ARM GAS  /tmp/ccJ58Jn3.s 			page 1


   1              		.syntax unified
   2              		.cpu cortex-m3
   3              		.fpu softvfp
   4              		.eabi_attribute 20, 1
   5              		.eabi_attribute 21, 1
   6              		.eabi_attribute 23, 3
   7              		.eabi_attribute 24, 1
   8              		.eabi_attribute 25, 1
   9              		.eabi_attribute 26, 1
  10              		.eabi_attribute 30, 2
  11              		.eabi_attribute 34, 1
  12              		.eabi_attribute 18, 4
  13              		.thumb
  14              		.file	"blctrl20.c"
  15              		.text
  16              	.Ltext0:
  17              		.cfi_sections	.debug_frame
  18              		.section	.text.blctrl20_init,"ax",%progbits
  19              		.align	2
  20              		.p2align 4,,15
  21              		.global	blctrl20_init
  22              		.thumb
  23              		.thumb_func
  24              		.type	blctrl20_init, %function
  25              	blctrl20_init:
  26              	.LFB62:
  27              		.file 1 "blctrl20.c"
  28              		.loc 1 64 0
  29              		.cfi_startproc
  30              		@ args = 0, pretend = 0, frame = 0
  31              		@ frame_needed = 0, uses_anonymous_args = 0
  32              		@ link register save eliminated.
  33 0000 7047     		bx	lr
  34              		.cfi_endproc
  35              	.LFE62:
  36              		.size	blctrl20_init, .-blctrl20_init
  37 0002 00BFAFF3 		.section	.text.blctrl20_set_velocity,"ax",%progbits
  37      0080AFF3 
  37      0080AFF3 
  37      0080
  38              		.align	2
  39              		.p2align 4,,15
  40              		.global	blctrl20_set_velocity
  41              		.thumb
  42              		.thumb_func
  43              		.type	blctrl20_set_velocity, %function
  44              	blctrl20_set_velocity:
  45              	.LFB63:
  46              		.loc 1 68 0
  47              		.cfi_startproc
  48              		@ args = 0, pretend = 0, frame = 0
  49              		@ frame_needed = 0, uses_anonymous_args = 0
  50              	.LVL0:
  51              		.loc 1 68 0
  52 0000 70B5     		push	{r4, r5, r6, lr}
  53              	.LCFI0:
  54              		.cfi_def_cfa_offset 16
ARM GAS  /tmp/ccJ58Jn3.s 			page 2


  55              		.cfi_offset 4, -16
  56              		.cfi_offset 5, -12
  57              		.cfi_offset 6, -8
  58              		.cfi_offset 14, -4
  59              		.loc 1 72 0
  60 0002 3148     		ldr	r0, .L23
  61              		.loc 1 68 0
  62 0004 84B0     		sub	sp, sp, #16
  63              	.LCFI1:
  64              		.cfi_def_cfa_offset 32
  65              		.loc 1 76 0
  66 0006 314D     		ldr	r5, .L23+4
  67              		.loc 1 72 0
  68 0008 FFF7FEFF 		bl	i2cAcquireBus
  69              	.LVL1:
  70              		.loc 1 76 0
  71 000c 0024     		movs	r4, #0
  72              		.loc 1 77 0
  73 000e 0423     		movs	r3, #4
  74 0010 0293     		str	r3, [sp, #8]
  75 0012 0094     		str	r4, [sp, #0]
  76 0014 0194     		str	r4, [sp, #4]
  77 0016 2C48     		ldr	r0, .L23
  78 0018 2921     		movs	r1, #41
  79 001a 2A46     		mov	r2, r5
  80 001c 0123     		movs	r3, #1
  81              		.loc 1 76 0
  82 001e 2C70     		strb	r4, [r5, #0]
  83              		.loc 1 77 0
  84 0020 FFF7FEFF 		bl	i2cMasterTransmitTimeout
  85              	.LVL2:
  86              		.loc 1 78 0
  87 0024 0028     		cmp	r0, #0
  88 0026 48D1     		bne	.L20
  89              	.LVL3:
  90              	.L3:
  91              		.loc 1 83 0
  92 0028 294D     		ldr	r5, .L23+8
  93 002a 2A4C     		ldr	r4, .L23+12
  94 002c 2E78     		ldrb	r6, [r5, #0]	@ zero_extendqisi2
  95              		.loc 1 84 0
  96 002e 0020     		movs	r0, #0
  97              		.loc 1 83 0
  98 0030 7608     		lsrs	r6, r6, #1
  99              		.loc 1 84 0
 100 0032 0422     		movs	r2, #4
 101              		.loc 1 83 0
 102 0034 6436     		adds	r6, r6, #100
 103              		.loc 1 84 0
 104 0036 0090     		str	r0, [sp, #0]
 105 0038 0190     		str	r0, [sp, #4]
 106 003a 0292     		str	r2, [sp, #8]
 107 003c 2248     		ldr	r0, .L23
 108 003e 2A21     		movs	r1, #42
 109 0040 2246     		mov	r2, r4
 110 0042 0123     		movs	r3, #1
 111              		.loc 1 83 0
ARM GAS  /tmp/ccJ58Jn3.s 			page 3


 112 0044 2670     		strb	r6, [r4, #0]
 113              		.loc 1 84 0
 114 0046 FFF7FEFF 		bl	i2cMasterTransmitTimeout
 115              	.LVL4:
 116              		.loc 1 85 0
 117 004a 0028     		cmp	r0, #0
 118 004c 2FD1     		bne	.L21
 119              	.LVL5:
 120              	.L4:
 121              		.loc 1 90 0
 122 004e 224E     		ldr	r6, .L23+16
 123 0050 0024     		movs	r4, #0
 124              		.loc 1 91 0
 125 0052 0421     		movs	r1, #4
 126 0054 0291     		str	r1, [sp, #8]
 127 0056 0094     		str	r4, [sp, #0]
 128 0058 0194     		str	r4, [sp, #4]
 129 005a 1B48     		ldr	r0, .L23
 130 005c 2B21     		movs	r1, #43
 131 005e 3246     		mov	r2, r6
 132 0060 0123     		movs	r3, #1
 133              		.loc 1 90 0
 134 0062 3470     		strb	r4, [r6, #0]
 135              		.loc 1 91 0
 136 0064 FFF7FEFF 		bl	i2cMasterTransmitTimeout
 137              	.LVL6:
 138              		.loc 1 92 0
 139 0068 D8B9     		cbnz	r0, .L22
 140              	.LVL7:
 141              	.L5:
 142              		.loc 1 97 0
 143 006a 2D78     		ldrb	r5, [r5, #0]	@ zero_extendqisi2
 144 006c 1B4C     		ldr	r4, .L23+20
 145 006e 6D08     		lsrs	r5, r5, #1
 146              		.loc 1 98 0
 147 0070 0020     		movs	r0, #0
 148 0072 0423     		movs	r3, #4
 149              		.loc 1 97 0
 150 0074 6435     		adds	r5, r5, #100
 151              		.loc 1 98 0
 152 0076 0090     		str	r0, [sp, #0]
 153 0078 0190     		str	r0, [sp, #4]
 154 007a 0293     		str	r3, [sp, #8]
 155 007c 1248     		ldr	r0, .L23
 156 007e 2C21     		movs	r1, #44
 157 0080 2246     		mov	r2, r4
 158 0082 0123     		movs	r3, #1
 159              		.loc 1 97 0
 160 0084 2570     		strb	r5, [r4, #0]
 161              		.loc 1 98 0
 162 0086 FFF7FEFF 		bl	i2cMasterTransmitTimeout
 163              	.LVL8:
 164              		.loc 1 99 0
 165 008a 20B1     		cbz	r0, .L6
 166              		.loc 1 100 0
 167 008c 0E48     		ldr	r0, .L23
 168              	.LVL9:
ARM GAS  /tmp/ccJ58Jn3.s 			page 4


 169 008e FFF7FEFF 		bl	i2cGetErrors
 170              	.LVL10:
 171 0092 1349     		ldr	r1, .L23+24
 172 0094 C860     		str	r0, [r1, #12]
 173              	.L6:
 174              		.loc 1 103 0
 175 0096 0C48     		ldr	r0, .L23
 176              		.loc 1 105 0
 177 0098 04B0     		add	sp, sp, #16
 178 009a BDE87040 		pop	{r4, r5, r6, lr}
 179              		.loc 1 103 0
 180 009e FFF7FEBF 		b	i2cReleaseBus
 181              	.LVL11:
 182              	.L22:
 183              		.loc 1 93 0
 184 00a2 0948     		ldr	r0, .L23
 185              	.LVL12:
 186 00a4 FFF7FEFF 		bl	i2cGetErrors
 187              	.LVL13:
 188 00a8 0D4A     		ldr	r2, .L23+24
 189 00aa 9060     		str	r0, [r2, #8]
 190 00ac DDE7     		b	.L5
 191              	.LVL14:
 192              	.L21:
 193              		.loc 1 86 0
 194 00ae 0648     		ldr	r0, .L23
 195              	.LVL15:
 196 00b0 FFF7FEFF 		bl	i2cGetErrors
 197              	.LVL16:
 198 00b4 0A4B     		ldr	r3, .L23+24
 199 00b6 5860     		str	r0, [r3, #4]
 200 00b8 C9E7     		b	.L4
 201              	.LVL17:
 202              	.L20:
 203              		.loc 1 79 0
 204 00ba 0348     		ldr	r0, .L23
 205              	.LVL18:
 206 00bc FFF7FEFF 		bl	i2cGetErrors
 207              	.LVL19:
 208 00c0 0749     		ldr	r1, .L23+24
 209 00c2 0860     		str	r0, [r1, #0]
 210 00c4 B0E7     		b	.L3
 211              	.L24:
 212 00c6 00BF     		.align	2
 213              	.L23:
 214 00c8 00000000 		.word	I2CD1
 215 00cc 00000000 		.word	.LANCHOR0
 216 00d0 00000000 		.word	roll_controller_output
 217 00d4 00000000 		.word	.LANCHOR2
 218 00d8 00000000 		.word	.LANCHOR3
 219 00dc 00000000 		.word	.LANCHOR4
 220 00e0 00000000 		.word	.LANCHOR1
 221              		.cfi_endproc
 222              	.LFE63:
 223              		.size	blctrl20_set_velocity, .-blctrl20_set_velocity
 224              		.global	m4
 225              		.global	m3
ARM GAS  /tmp/ccJ58Jn3.s 			page 5


 226              		.global	m2
 227              		.global	m1
 228 00e4 AFF30080 		.section	.bss.m1,"aw",%nobits
 228      AFF30080 
 228      AFF30080 
 229              		.set	.LANCHOR0,. + 0
 230              		.type	m1, %object
 231              		.size	m1, 1
 232              	m1:
 233 0000 00       		.space	1
 234              		.section	.bss.m2,"aw",%nobits
 235              		.set	.LANCHOR2,. + 0
 236              		.type	m2, %object
 237              		.size	m2, 1
 238              	m2:
 239 0000 00       		.space	1
 240              		.section	.bss.m3,"aw",%nobits
 241              		.set	.LANCHOR3,. + 0
 242              		.type	m3, %object
 243              		.size	m3, 1
 244              	m3:
 245 0000 00       		.space	1
 246              		.section	.bss.m4,"aw",%nobits
 247              		.set	.LANCHOR4,. + 0
 248              		.type	m4, %object
 249              		.size	m4, 1
 250              	m4:
 251 0000 00       		.space	1
 252              		.section	.bss.a_errors,"aw",%nobits
 253              		.align	2
 254              		.set	.LANCHOR1,. + 0
 255              		.type	a_errors, %object
 256              		.size	a_errors, 16
 257              	a_errors:
 258 0000 00000000 		.space	16
 258      00000000 
 258      00000000 
 258      00000000 
 259              		.text
 260              	.Letext0:
 261              		.file 2 "/home/formica/toolchains/gcc-arm-none-eabi-4_7-2012q4/bin/../lib/gcc/arm-none-eabi/4.7.3/
 262              		.file 3 "/home/formica/toolchains/gcc-arm-none-eabi-4_7-2012q4/bin/../lib/gcc/arm-none-eabi/4.7.3/
 263              		.file 4 "/home/formica/chibios/chibios/os/ports/GCC/ARMCMx/chtypes.h"
 264              		.file 5 "/home/formica/chibios/chibios/os/kernel/include/chlists.h"
 265              		.file 6 "/home/formica/chibios/chibios/os/kernel/include/chthreads.h"
 266              		.file 7 "/home/formica/chibios/chibios/os/ports/GCC/ARMCMx/chcore_v7m.h"
 267              		.file 8 "/home/formica/chibios/chibios/os/kernel/include/chmtx.h"
 268              		.file 9 "/home/formica/chibios/chibios/os/hal/platforms/STM32F1xx/stm32f10x.h"
 269              		.file 10 "/home/formica/chibios/chibios/os/hal/platforms/STM32F1xx/stm32_dma.h"
 270              		.file 11 "/home/formica/chibios/chibios/os/hal/include/i2c.h"
 271              		.file 12 "/home/formica/chibios/chibios/os/hal/platforms/STM32/i2c_lld.h"
 272              		.file 13 "/home/formica/chibios/chibios/os/ports/common/ARMCMx/CMSIS/include/core_cm3.h"