ARM GAS  /tmp/cciBicjf.s 			page 1


   1              		.syntax unified
   2              		.cpu cortex-m3
   3              		.fpu softvfp
   4              		.eabi_attribute 20, 1
   5              		.eabi_attribute 21, 1
   6              		.eabi_attribute 23, 3
   7              		.eabi_attribute 24, 1
   8              		.eabi_attribute 25, 1
   9              		.eabi_attribute 26, 1
  10              		.eabi_attribute 30, 2
  11              		.eabi_attribute 34, 1
  12              		.eabi_attribute 18, 4
  13              		.thumb
  14              		.file	"chdynamic.c"
  15              		.text
  16              	.Ltext0:
  17              		.cfi_sections	.debug_frame
  18              		.section	.text.chThdAddRef,"ax",%progbits
  19              		.align	2
  20              		.p2align 4,,15
  21              		.global	chThdAddRef
  22              		.thumb
  23              		.thumb_func
  24              		.type	chThdAddRef, %function
  25              	chThdAddRef:
  26              	.LFB7:
  27              		.file 1 "/home/formica/chibios/chibios/os/kernel/src/chdynamic.c"
  28              		.loc 1 52 0
  29              		.cfi_startproc
  30              		@ args = 0, pretend = 0, frame = 0
  31              		@ frame_needed = 0, uses_anonymous_args = 0
  32              	.LVL0:
  33 0000 10B5     		push	{r4, lr}
  34              	.LCFI0:
  35              		.cfi_def_cfa_offset 8
  36              		.cfi_offset 4, -8
  37              		.cfi_offset 14, -4
  38              	.LBB2:
  39              		.loc 1 54 0
  40 0002 2023     		movs	r3, #32
  41              	.LVL1:
  42              	.LBE2:
  43              		.loc 1 52 0
  44 0004 0446     		mov	r4, r0
  45              	.LBB3:
  46              		.loc 1 54 0
  47              	@ 54 "/home/formica/chibios/chibios/os/kernel/src/chdynamic.c" 1
  48 0006 83F31188 		msr     BASEPRI, r3
  49              	@ 0 "" 2
  50              	.LVL2:
  51              		.thumb
  52              	.LBE3:
  53 000a FFF7FEFF 		bl	dbg_check_lock
  54              	.LVL3:
  55              		.loc 1 55 0
  56 000e 94F82230 		ldrb	r3, [r4, #34]	@ zero_extendqisi2
  57 0012 FF2B     		cmp	r3, #255
ARM GAS  /tmp/cciBicjf.s 			page 2


  58 0014 09D0     		beq	.L4
  59              	.L2:
  60              		.loc 1 56 0
  61 0016 581C     		adds	r0, r3, #1
  62 0018 84F82200 		strb	r0, [r4, #34]
  63              		.loc 1 57 0
  64 001c FFF7FEFF 		bl	dbg_check_unlock
  65              	.LVL4:
  66              	.LBB4:
  67 0020 0023     		movs	r3, #0
  68              	.LVL5:
  69              	@ 57 "/home/formica/chibios/chibios/os/kernel/src/chdynamic.c" 1
  70 0022 83F31188 		msr     BASEPRI, r3
  71              	@ 0 "" 2
  72              	.LVL6:
  73              		.thumb
  74              	.LBE4:
  75              		.loc 1 59 0
  76 0026 2046     		mov	r0, r4
  77 0028 10BD     		pop	{r4, pc}
  78              	.LVL7:
  79              	.L4:
  80              		.loc 1 55 0 discriminator 1
  81 002a 0348     		ldr	r0, .L5
  82 002c FFF7FEFF 		bl	chDbgPanic
  83              	.LVL8:
  84 0030 94F82230 		ldrb	r3, [r4, #34]	@ zero_extendqisi2
  85 0034 EFE7     		b	.L2
  86              	.L6:
  87 0036 00BF     		.align	2
  88              	.L5:
  89 0038 00000000 		.word	.LC0
  90              		.cfi_endproc
  91              	.LFE7:
  92              		.size	chThdAddRef, .-chThdAddRef
  93 003c AFF30080 		.section	.text.chThdRelease,"ax",%progbits
  94              		.align	2
  95              		.p2align 4,,15
  96              		.global	chThdRelease
  97              		.thumb
  98              		.thumb_func
  99              		.type	chThdRelease, %function
 100              	chThdRelease:
 101              	.LFB8:
 102              		.loc 1 74 0
 103              		.cfi_startproc
 104              		@ args = 0, pretend = 0, frame = 0
 105              		@ frame_needed = 0, uses_anonymous_args = 0
 106              	.LVL9:
 107 0000 38B5     		push	{r3, r4, r5, lr}
 108              	.LCFI1:
 109              		.cfi_def_cfa_offset 16
 110              		.cfi_offset 3, -16
 111              		.cfi_offset 4, -12
 112              		.cfi_offset 5, -8
 113              		.cfi_offset 14, -4
 114              		.loc 1 74 0
ARM GAS  /tmp/cciBicjf.s 			page 3


 115 0002 0446     		mov	r4, r0
 116              	.LBB5:
 117              		.loc 1 77 0
 118 0004 2023     		movs	r3, #32
 119              	.LVL10:
 120              	@ 77 "/home/formica/chibios/chibios/os/kernel/src/chdynamic.c" 1
 121 0006 83F31188 		msr     BASEPRI, r3
 122              	@ 0 "" 2
 123              	.LVL11:
 124              		.thumb
 125              	.LBE5:
 126 000a FFF7FEFF 		bl	dbg_check_lock
 127              	.LVL12:
 128              		.loc 1 78 0
 129 000e 94F82230 		ldrb	r3, [r4, #34]	@ zero_extendqisi2
 130 0012 002B     		cmp	r3, #0
 131 0014 21D0     		beq	.L12
 132              	.L8:
 133              		.loc 1 79 0
 134 0016 581E     		subs	r0, r3, #1
 135 0018 C5B2     		uxtb	r5, r0
 136 001a 84F82250 		strb	r5, [r4, #34]
 137              	.LVL13:
 138              		.loc 1 80 0
 139 001e FFF7FEFF 		bl	dbg_check_unlock
 140              	.LVL14:
 141              	.LBB6:
 142 0022 0023     		movs	r3, #0
 143              	.LVL15:
 144              	@ 80 "/home/formica/chibios/chibios/os/kernel/src/chdynamic.c" 1
 145 0024 83F31188 		msr     BASEPRI, r3
 146              	@ 0 "" 2
 147              	.LVL16:
 148              		.thumb
 149              	.LBE6:
 150              		.loc 1 85 0
 151 0028 1DB9     		cbnz	r5, .L7
 152              		.loc 1 85 0 is_stmt 0 discriminator 1
 153 002a 94F82010 		ldrb	r1, [r4, #32]	@ zero_extendqisi2
 154 002e 0E29     		cmp	r1, #14
 155 0030 00D0     		beq	.L13
 156              	.L7:
 157 0032 38BD     		pop	{r3, r4, r5, pc}
 158              	.L13:
 159              		.loc 1 86 0 is_stmt 1
 160 0034 94F82120 		ldrb	r2, [r4, #33]	@ zero_extendqisi2
 161 0038 02F00303 		and	r3, r2, #3
 162              	.LVL17:
 163 003c 012B     		cmp	r3, #1
 164 003e 12D0     		beq	.L10
 165 0040 022B     		cmp	r3, #2
 166 0042 F6D1     		bne	.L7
 167              		.loc 1 98 0
 168 0044 6369     		ldr	r3, [r4, #20]
 169 0046 2169     		ldr	r1, [r4, #16]
 170              		.loc 1 100 0
 171 0048 A06C     		ldr	r0, [r4, #72]
ARM GAS  /tmp/cciBicjf.s 			page 4


 172              		.loc 1 98 0
 173 004a 1961     		str	r1, [r3, #16]
 174 004c 2269     		ldr	r2, [r4, #16]
 175              		.loc 1 100 0
 176 004e 2146     		mov	r1, r4
 177              		.loc 1 98 0
 178 0050 5361     		str	r3, [r2, #20]
 179              		.loc 1 105 0
 180 0052 BDE83840 		pop	{r3, r4, r5, lr}
 181              		.loc 1 100 0
 182 0056 FFF7FEBF 		b	chPoolFree
 183              	.LVL18:
 184              	.L12:
 185              		.loc 1 78 0 discriminator 1
 186 005a 0848     		ldr	r0, .L14
 187 005c FFF7FEFF 		bl	chDbgPanic
 188              	.LVL19:
 189 0060 94F82230 		ldrb	r3, [r4, #34]	@ zero_extendqisi2
 190 0064 D7E7     		b	.L8
 191              	.LVL20:
 192              	.L10:
 193              		.loc 1 90 0
 194 0066 6369     		ldr	r3, [r4, #20]
 195 0068 2169     		ldr	r1, [r4, #16]
 196              		.loc 1 92 0
 197 006a 2046     		mov	r0, r4
 198              		.loc 1 90 0
 199 006c 1961     		str	r1, [r3, #16]
 200 006e 2269     		ldr	r2, [r4, #16]
 201 0070 5361     		str	r3, [r2, #20]
 202              		.loc 1 105 0
 203 0072 BDE83840 		pop	{r3, r4, r5, lr}
 204              		.loc 1 92 0
 205 0076 FFF7FEBF 		b	chHeapFree
 206              	.LVL21:
 207              	.L15:
 208 007a 00BF     		.align	2
 209              	.L14:
 210 007c 14000000 		.word	.LC1
 211              		.cfi_endproc
 212              	.LFE8:
 213              		.size	chThdRelease, .-chThdRelease
 214              		.section	.text.chThdCreateFromHeap,"ax",%progbits
 215              		.align	2
 216              		.p2align 4,,15
 217              		.global	chThdCreateFromHeap
 218              		.thumb
 219              		.thumb_func
 220              		.type	chThdCreateFromHeap, %function
 221              	chThdCreateFromHeap:
 222              	.LFB9:
 223              		.loc 1 131 0
 224              		.cfi_startproc
 225              		@ args = 4, pretend = 0, frame = 0
 226              		@ frame_needed = 0, uses_anonymous_args = 0
 227              	.LVL22:
 228 0000 2DE9F041 		push	{r4, r5, r6, r7, r8, lr}
ARM GAS  /tmp/cciBicjf.s 			page 5


 229              	.LCFI2:
 230              		.cfi_def_cfa_offset 24
 231              		.cfi_offset 4, -24
 232              		.cfi_offset 5, -20
 233              		.cfi_offset 6, -16
 234              		.cfi_offset 7, -12
 235              		.cfi_offset 8, -8
 236              		.cfi_offset 14, -4
 237 0004 82B0     		sub	sp, sp, #8
 238              	.LCFI3:
 239              		.cfi_def_cfa_offset 32
 240              		.loc 1 131 0
 241 0006 0D46     		mov	r5, r1
 242 0008 1746     		mov	r7, r2
 243 000a 9846     		mov	r8, r3
 244              		.loc 1 135 0
 245 000c FFF7FEFF 		bl	chHeapAlloc
 246              	.LVL23:
 247              		.loc 1 136 0
 248 0010 0446     		mov	r4, r0
 249 0012 18B3     		cbz	r0, .L17
 250              		.loc 1 140 0
 251 0014 00F14C06 		add	r6, r0, #76
 252 0018 3146     		mov	r1, r6
 253 001a FF22     		movs	r2, #255
 254 001c FFF7FEFF 		bl	_thread_memfill
 255              	.LVL24:
 256              		.loc 1 143 0
 257 0020 3046     		mov	r0, r6
 258 0022 6119     		adds	r1, r4, r5
 259 0024 5522     		movs	r2, #85
 260 0026 FFF7FEFF 		bl	_thread_memfill
 261              	.LVL25:
 262              	.LBB7:
 263              		.loc 1 148 0
 264 002a 2023     		movs	r3, #32
 265              	.LVL26:
 266              	@ 148 "/home/formica/chibios/chibios/os/kernel/src/chdynamic.c" 1
 267 002c 83F31188 		msr     BASEPRI, r3
 268              	@ 0 "" 2
 269              	.LVL27:
 270              		.thumb
 271              	.LBE7:
 272 0030 FFF7FEFF 		bl	dbg_check_lock
 273              	.LVL28:
 274              		.loc 1 149 0
 275 0034 0898     		ldr	r0, [sp, #32]
 276 0036 3A46     		mov	r2, r7
 277 0038 4346     		mov	r3, r8
 278 003a 2946     		mov	r1, r5
 279 003c 0090     		str	r0, [sp, #0]
 280 003e 2046     		mov	r0, r4
 281 0040 FFF7FEFF 		bl	chThdCreateI
 282              	.LVL29:
 283              		.loc 1 150 0
 284 0044 0123     		movs	r3, #1
 285 0046 80F82130 		strb	r3, [r0, #33]
ARM GAS  /tmp/cciBicjf.s 			page 6


 286              		.loc 1 151 0
 287 004a 0021     		movs	r1, #0
 288              		.loc 1 149 0
 289 004c 0446     		mov	r4, r0
 290              	.LVL30:
 291              		.loc 1 151 0
 292 004e FFF7FEFF 		bl	chSchWakeupS
 293              	.LVL31:
 294              		.loc 1 152 0
 295 0052 FFF7FEFF 		bl	dbg_check_unlock
 296              	.LVL32:
 297              	.LBB8:
 298 0056 0023     		movs	r3, #0
 299              	.LVL33:
 300              	@ 152 "/home/formica/chibios/chibios/os/kernel/src/chdynamic.c" 1
 301 0058 83F31188 		msr     BASEPRI, r3
 302              	@ 0 "" 2
 303              	.LVL34:
 304              		.thumb
 305              	.L17:
 306              	.LBE8:
 307              		.loc 1 154 0
 308 005c 2046     		mov	r0, r4
 309 005e 02B0     		add	sp, sp, #8
 310 0060 BDE8F081 		pop	{r4, r5, r6, r7, r8, pc}
 311              		.cfi_endproc
 312              	.LFE9:
 313              		.size	chThdCreateFromHeap, .-chThdCreateFromHeap
 314 0064 AFF30080 		.section	.text.chThdCreateFromMemoryPool,"ax",%progbits
 314      AFF30080 
 314      AFF30080 
 315              		.align	2
 316              		.p2align 4,,15
 317              		.global	chThdCreateFromMemoryPool
 318              		.thumb
 319              		.thumb_func
 320              		.type	chThdCreateFromMemoryPool, %function
 321              	chThdCreateFromMemoryPool:
 322              	.LFB10:
 323              		.loc 1 180 0
 324              		.cfi_startproc
 325              		@ args = 0, pretend = 0, frame = 0
 326              		@ frame_needed = 0, uses_anonymous_args = 0
 327              	.LVL35:
 328 0000 2DE9F043 		push	{r4, r5, r6, r7, r8, r9, lr}
 329              	.LCFI4:
 330              		.cfi_def_cfa_offset 28
 331              		.cfi_offset 4, -28
 332              		.cfi_offset 5, -24
 333              		.cfi_offset 6, -20
 334              		.cfi_offset 7, -16
 335              		.cfi_offset 8, -12
 336              		.cfi_offset 9, -8
 337              		.cfi_offset 14, -4
 338              		.loc 1 184 0
 339 0004 0446     		mov	r4, r0
 340              		.loc 1 180 0
ARM GAS  /tmp/cciBicjf.s 			page 7


 341 0006 83B0     		sub	sp, sp, #12
 342              	.LCFI5:
 343              		.cfi_def_cfa_offset 40
 344              		.loc 1 180 0
 345 0008 8846     		mov	r8, r1
 346 000a 9146     		mov	r9, r2
 347 000c 1F46     		mov	r7, r3
 348              		.loc 1 184 0
 349 000e 0028     		cmp	r0, #0
 350 0010 2DD0     		beq	.L23
 351              	.LVL36:
 352              	.L20:
 353              		.loc 1 186 0
 354 0012 2046     		mov	r0, r4
 355 0014 FFF7FEFF 		bl	chPoolAlloc
 356              	.LVL37:
 357              		.loc 1 187 0
 358 0018 0546     		mov	r5, r0
 359 001a 20B3     		cbz	r0, .L21
 360              		.loc 1 191 0
 361 001c 00F14C06 		add	r6, r0, #76
 362 0020 3146     		mov	r1, r6
 363 0022 FF22     		movs	r2, #255
 364 0024 FFF7FEFF 		bl	_thread_memfill
 365              	.LVL38:
 366              		.loc 1 194 0
 367 0028 6168     		ldr	r1, [r4, #4]
 368 002a 3046     		mov	r0, r6
 369 002c 6918     		adds	r1, r5, r1
 370 002e 5522     		movs	r2, #85
 371 0030 FFF7FEFF 		bl	_thread_memfill
 372              	.LVL39:
 373              	.LBB9:
 374              		.loc 1 199 0
 375 0034 2023     		movs	r3, #32
 376              	.LVL40:
 377              	@ 199 "/home/formica/chibios/chibios/os/kernel/src/chdynamic.c" 1
 378 0036 83F31188 		msr     BASEPRI, r3
 379              	@ 0 "" 2
 380              	.LVL41:
 381              		.thumb
 382              	.LBE9:
 383 003a FFF7FEFF 		bl	dbg_check_lock
 384              	.LVL42:
 385              		.loc 1 200 0
 386 003e 6168     		ldr	r1, [r4, #4]
 387 0040 4246     		mov	r2, r8
 388 0042 4B46     		mov	r3, r9
 389 0044 0097     		str	r7, [sp, #0]
 390 0046 2846     		mov	r0, r5
 391 0048 FFF7FEFF 		bl	chThdCreateI
 392              	.LVL43:
 393              		.loc 1 201 0
 394 004c 0223     		movs	r3, #2
 395 004e 80F82130 		strb	r3, [r0, #33]
 396              		.loc 1 203 0
 397 0052 0021     		movs	r1, #0
ARM GAS  /tmp/cciBicjf.s 			page 8


 398              		.loc 1 202 0
 399 0054 8464     		str	r4, [r0, #72]
 400              		.loc 1 200 0
 401 0056 0546     		mov	r5, r0
 402              	.LVL44:
 403              		.loc 1 203 0
 404 0058 FFF7FEFF 		bl	chSchWakeupS
 405              	.LVL45:
 406              		.loc 1 204 0
 407 005c FFF7FEFF 		bl	dbg_check_unlock
 408              	.LVL46:
 409              	.LBB10:
 410 0060 0023     		movs	r3, #0
 411              	.LVL47:
 412              	@ 204 "/home/formica/chibios/chibios/os/kernel/src/chdynamic.c" 1
 413 0062 83F31188 		msr     BASEPRI, r3
 414              	@ 0 "" 2
 415              	.LVL48:
 416              		.thumb
 417              	.L21:
 418              	.LBE10:
 419              		.loc 1 206 0
 420 0066 2846     		mov	r0, r5
 421 0068 03B0     		add	sp, sp, #12
 422 006a BDE8F083 		pop	{r4, r5, r6, r7, r8, r9, pc}
 423              	.LVL49:
 424              	.L23:
 425              		.loc 1 184 0 discriminator 1
 426 006e 0248     		ldr	r0, .L24
 427              	.LVL50:
 428 0070 FFF7FEFF 		bl	chDbgPanic
 429              	.LVL51:
 430 0074 CDE7     		b	.L20
 431              	.L25:
 432 0076 00BF     		.align	2
 433              	.L24:
 434 0078 28000000 		.word	.LC2
 435              		.cfi_endproc
 436              	.LFE10:
 437              		.size	chThdCreateFromMemoryPool, .-chThdCreateFromMemoryPool
 438 007c AFF30080 		.section	.rodata.str1.4,"aMS",%progbits,1
 439              		.align	2
 440              	.LC0:
 441 0000 63685468 		.ascii	"chThdAddRef(), #1\000"
 441      64416464 
 441      52656628 
 441      292C2023 
 441      3100
 442 0012 0000     		.space	2
 443              	.LC1:
 444 0014 63685468 		.ascii	"chThdRelease(), #1\000"
 444      6452656C 
 444      65617365 
 444      28292C20 
 444      233100
 445 0027 00       		.space	1
 446              	.LC2:
ARM GAS  /tmp/cciBicjf.s 			page 9


 447 0028 22636854 		.ascii	"\"chThdCreateFromMemoryPool\"()\000"
 447      68644372 
 447      65617465 
 447      46726F6D 
 447      4D656D6F 
 448 0046 0000     		.text
 449              	.Letext0:
 450              		.file 2 "/home/formica/toolchains/gcc-arm-none-eabi-4_7-2012q4/bin/../lib/gcc/arm-none-eabi/4.7.3/
 451              		.file 3 "/home/formica/toolchains/gcc-arm-none-eabi-4_7-2012q4/bin/../lib/gcc/arm-none-eabi/4.7.3/
 452              		.file 4 "/home/formica/chibios/chibios/os/ports/GCC/ARMCMx/chtypes.h"
 453              		.file 5 "/home/formica/chibios/chibios/os/kernel/include/chlists.h"
 454              		.file 6 "/home/formica/chibios/chibios/os/kernel/include/chthreads.h"
 455              		.file 7 "/home/formica/chibios/chibios/os/ports/GCC/ARMCMx/chcore_v7m.h"
 456              		.file 8 "/home/formica/chibios/chibios/os/kernel/include/chmtx.h"
 457              		.file 9 "/home/formica/chibios/chibios/os/kernel/include/chmemcore.h"
 458              		.file 10 "/home/formica/chibios/chibios/os/kernel/include/chheap.h"
 459              		.file 11 "/home/formica/chibios/chibios/os/kernel/include/chmempools.h"
 460              		.file 12 "/home/formica/chibios/chibios/os/kernel/include/chdebug.h"
 461              		.file 13 "/home/formica/chibios/chibios/os/kernel/include/chschd.h"