ARM GAS  /tmp/ccZctqP8.s 			page 1


   1              		.syntax unified
   2              		.cpu cortex-m3
   3              		.fpu softvfp
   4              		.eabi_attribute 20, 1
   5              		.eabi_attribute 21, 1
   6              		.eabi_attribute 23, 3
   7              		.eabi_attribute 24, 1
   8              		.eabi_attribute 25, 1
   9              		.eabi_attribute 26, 1
  10              		.eabi_attribute 30, 2
  11              		.eabi_attribute 34, 1
  12              		.eabi_attribute 18, 4
  13              		.thumb
  14              		.file	"chheap.c"
  15              		.text
  16              	.Ltext0:
  17              		.cfi_sections	.debug_frame
  18              		.section	.text._heap_init,"ax",%progbits
  19              		.align	2
  20              		.p2align 4,,15
  21              		.global	_heap_init
  22              		.thumb
  23              		.thumb_func
  24              		.type	_heap_init, %function
  25              	_heap_init:
  26              	.LFB7:
  27              		.file 1 "/home/formica/chibios/chibios/os/kernel/src/chheap.c"
  28              		.loc 1 75 0
  29              		.cfi_startproc
  30              		@ args = 0, pretend = 0, frame = 0
  31              		@ frame_needed = 0, uses_anonymous_args = 0
  32              		@ link register save eliminated.
  33              		.loc 1 76 0
  34 0000 40F20003 		movw	r3, #:lower16:.LANCHOR0
  35 0004 C0F20003 		movt	r3, #:upper16:.LANCHOR0
  36 0008 40F20001 		movw	r1, #:lower16:chCoreAlloc
  37              		.loc 1 77 0
  38 000c 0022     		movs	r2, #0
  39              		.loc 1 76 0
  40 000e C0F20001 		movt	r1, #:upper16:chCoreAlloc
  41              		.loc 1 80 0
  42 0012 03F11000 		add	r0, r3, #16
  43              		.loc 1 76 0
  44 0016 1960     		str	r1, [r3, #0]
  45              		.loc 1 77 0
  46 0018 9A60     		str	r2, [r3, #8]
  47              		.loc 1 78 0
  48 001a DA60     		str	r2, [r3, #12]
  49              		.loc 1 84 0
  50              		.loc 1 80 0
  51 001c FFF7FEBF 		b	chMtxInit
  52              	.LVL0:
  53              		.cfi_endproc
  54              	.LFE7:
  55              		.size	_heap_init, .-_heap_init
  56              		.section	.text.chHeapInit,"ax",%progbits
  57              		.align	2
ARM GAS  /tmp/ccZctqP8.s 			page 2


  58              		.p2align 4,,15
  59              		.global	chHeapInit
  60              		.thumb
  61              		.thumb_func
  62              		.type	chHeapInit, %function
  63              	chHeapInit:
  64              	.LFB8:
  65              		.loc 1 99 0
  66              		.cfi_startproc
  67              		@ args = 0, pretend = 0, frame = 0
  68              		@ frame_needed = 0, uses_anonymous_args = 0
  69              	.LVL1:
  70 0000 70B5     		push	{r4, r5, r6, lr}
  71              	.LCFI0:
  72              		.cfi_def_cfa_offset 16
  73              		.cfi_offset 4, -16
  74              		.cfi_offset 5, -12
  75              		.cfi_offset 6, -8
  76              		.cfi_offset 14, -4
  77              		.loc 1 99 0
  78 0002 1646     		mov	r6, r2
  79              		.loc 1 102 0
  80 0004 4A07     		lsls	r2, r1, #29
  81              	.LVL2:
  82              		.loc 1 99 0
  83 0006 0D46     		mov	r5, r1
  84 0008 0446     		mov	r4, r0
  85              		.loc 1 102 0
  86 000a 01D1     		bne	.L3
  87              		.loc 1 102 0 is_stmt 0 discriminator 2
  88 000c 7307     		lsls	r3, r6, #29
  89 000e 02D0     		beq	.L4
  90              	.L3:
  91              		.loc 1 102 0 discriminator 1
  92 0010 0748     		ldr	r0, .L9
  93              	.LVL3:
  94 0012 FFF7FEFF 		bl	chDbgPanic
  95              	.LVL4:
  96              	.L4:
  97              		.loc 1 104 0 is_stmt 1
  98 0016 0023     		movs	r3, #0
  99              		.loc 1 108 0
 100 0018 083E     		subs	r6, r6, #8
 101              	.LVL5:
 102              		.loc 1 110 0
 103 001a 04F11000 		add	r0, r4, #16
 104              		.loc 1 104 0
 105 001e 2360     		str	r3, [r4, #0]
 106              	.LVL6:
 107              		.loc 1 105 0
 108 0020 A560     		str	r5, [r4, #8]
 109              		.loc 1 106 0
 110 0022 E360     		str	r3, [r4, #12]
 111              		.loc 1 108 0
 112 0024 85E84800 		stmia	r5, {r3, r6}
 113              		.loc 1 114 0
 114 0028 BDE87040 		pop	{r4, r5, r6, lr}
ARM GAS  /tmp/ccZctqP8.s 			page 3


 115              		.loc 1 110 0
 116 002c FFF7FEBF 		b	chMtxInit
 117              	.LVL7:
 118              	.L10:
 119              		.align	2
 120              	.L9:
 121 0030 00000000 		.word	.LC0
 122              		.cfi_endproc
 123              	.LFE8:
 124              		.size	chHeapInit, .-chHeapInit
 125 0034 AFF30080 		.section	.text.chHeapAlloc,"ax",%progbits
 125      AFF30080 
 125      AFF30080 
 126              		.align	2
 127              		.p2align 4,,15
 128              		.global	chHeapAlloc
 129              		.thumb
 130              		.thumb_func
 131              		.type	chHeapAlloc, %function
 132              	chHeapAlloc:
 133              	.LFB9:
 134              		.loc 1 132 0
 135              		.cfi_startproc
 136              		@ args = 0, pretend = 0, frame = 0
 137              		@ frame_needed = 0, uses_anonymous_args = 0
 138              	.LVL8:
 139 0000 F8B5     		push	{r3, r4, r5, r6, r7, lr}
 140              	.LCFI1:
 141              		.cfi_def_cfa_offset 24
 142              		.cfi_offset 3, -24
 143              		.cfi_offset 4, -20
 144              		.cfi_offset 5, -16
 145              		.cfi_offset 6, -12
 146              		.cfi_offset 7, -8
 147              		.cfi_offset 14, -4
 148              		.loc 1 136 0
 149 0002 1F4E     		ldr	r6, .L27
 150              		.loc 1 138 0
 151 0004 0731     		adds	r1, r1, #7
 152              	.LVL9:
 153              		.loc 1 136 0
 154 0006 0028     		cmp	r0, #0
 155 0008 18BF     		it	ne
 156 000a 0646     		movne	r6, r0
 157              		.loc 1 140 0
 158 000c 06F11000 		add	r0, r6, #16
 159              	.LVL10:
 160              		.loc 1 138 0
 161 0010 21F00705 		bic	r5, r1, #7
 162              	.LVL11:
 163              		.loc 1 139 0
 164 0014 06F10804 		add	r4, r6, #8
 165              	.LVL12:
 166              		.loc 1 140 0
 167 0018 FFF7FEFF 		bl	chMtxLock
 168              	.LVL13:
 169              		.loc 1 142 0
ARM GAS  /tmp/ccZctqP8.s 			page 4


 170 001c 00E0     		b	.L13
 171              	.LVL14:
 172              	.L21:
 173              		.loc 1 144 0
 174 001e 1C46     		mov	r4, r3
 175              	.LVL15:
 176              	.L13:
 177              		.loc 1 142 0 discriminator 1
 178 0020 2368     		ldr	r3, [r4, #0]
 179              	.LVL16:
 180 0022 E3B1     		cbz	r3, .L25
 181              		.loc 1 144 0
 182 0024 5A68     		ldr	r2, [r3, #4]
 183 0026 9542     		cmp	r5, r2
 184 0028 F9D8     		bhi	.L21
 185              		.loc 1 145 0
 186 002a 05F10801 		add	r1, r5, #8
 187 002e 9142     		cmp	r1, r2
 188 0030 12D8     		bhi	.L26
 189              		.loc 1 155 0
 190 0032 4FF6F870 		movw	r0, #65528
 191 0036 CFF6FF70 		movt	r0, 65535
 192 003a 401B     		subs	r0, r0, r5
 193 003c 8218     		adds	r2, r0, r2
 194              		.loc 1 154 0
 195 003e 1868     		ldr	r0, [r3, #0]
 196              		.loc 1 153 0
 197 0040 5F18     		adds	r7, r3, r1
 198              	.LVL17:
 199              		.loc 1 154 0
 200 0042 5850     		str	r0, [r3, r1]
 201              		.loc 1 155 0
 202 0044 7A60     		str	r2, [r7, #4]
 203              		.loc 1 156 0
 204 0046 2760     		str	r7, [r4, #0]
 205              		.loc 1 157 0
 206 0048 5D60     		str	r5, [r3, #4]
 207              	.LVL18:
 208              	.L15:
 209              		.loc 1 159 0
 210 004a 1C46     		mov	r4, r3
 211              	.LVL19:
 212 004c 44F8086B 		str	r6, [r4], #8
 213              		.loc 1 161 0
 214 0050 FFF7FEFF 		bl	chMtxUnlock
 215              	.LVL20:
 216              	.L16:
 217              		.loc 1 181 0
 218 0054 2046     		mov	r0, r4
 219 0056 F8BD     		pop	{r3, r4, r5, r6, r7, pc}
 220              	.LVL21:
 221              	.L26:
 222              		.loc 1 149 0
 223 0058 1968     		ldr	r1, [r3, #0]
 224 005a 2160     		str	r1, [r4, #0]
 225 005c F5E7     		b	.L15
 226              	.L25:
ARM GAS  /tmp/ccZctqP8.s 			page 5


 227              		.loc 1 167 0
 228 005e FFF7FEFF 		bl	chMtxUnlock
 229              	.LVL22:
 230              		.loc 1 171 0
 231 0062 3268     		ldr	r2, [r6, #0]
 232 0064 4AB1     		cbz	r2, .L19
 233              		.loc 1 172 0
 234 0066 05F10800 		add	r0, r5, #8
 235 006a 9047     		blx	r2
 236              	.LVL23:
 237              		.loc 1 173 0
 238 006c 28B1     		cbz	r0, .L19
 239              		.loc 1 177 0
 240 006e 00F10804 		add	r4, r0, #8
 241              	.LVL24:
 242              		.loc 1 174 0
 243 0072 0660     		str	r6, [r0, #0]
 244              		.loc 1 175 0
 245 0074 4560     		str	r5, [r0, #4]
 246              	.LVL25:
 247              		.loc 1 181 0
 248 0076 2046     		mov	r0, r4
 249 0078 F8BD     		pop	{r3, r4, r5, r6, r7, pc}
 250              	.LVL26:
 251              	.L19:
 252              		.loc 1 180 0
 253 007a 0024     		movs	r4, #0
 254              	.LVL27:
 255 007c EAE7     		b	.L16
 256              	.L28:
 257 007e 00BF     		.align	2
 258              	.L27:
 259 0080 00000000 		.word	.LANCHOR0
 260              		.cfi_endproc
 261              	.LFE9:
 262              		.size	chHeapAlloc, .-chHeapAlloc
 263 0084 AFF30080 		.section	.text.chHeapFree,"ax",%progbits
 263      AFF30080 
 263      AFF30080 
 264              		.align	2
 265              		.p2align 4,,15
 266              		.global	chHeapFree
 267              		.thumb
 268              		.thumb_func
 269              		.type	chHeapFree, %function
 270              	chHeapFree:
 271              	.LFB10:
 272              		.loc 1 194 0
 273              		.cfi_startproc
 274              		@ args = 0, pretend = 0, frame = 0
 275              		@ frame_needed = 0, uses_anonymous_args = 0
 276              	.LVL28:
 277 0000 F8B5     		push	{r3, r4, r5, r6, r7, lr}
 278              	.LCFI2:
 279              		.cfi_def_cfa_offset 24
 280              		.cfi_offset 3, -24
 281              		.cfi_offset 4, -20
ARM GAS  /tmp/ccZctqP8.s 			page 6


 282              		.cfi_offset 5, -16
 283              		.cfi_offset 6, -12
 284              		.cfi_offset 7, -8
 285              		.cfi_offset 14, -4
 286              		.loc 1 198 0
 287 0002 0746     		mov	r7, r0
 288 0004 0028     		cmp	r0, #0
 289 0006 4BD0     		beq	.L42
 290              	.LVL29:
 291              	.L30:
 292              		.loc 1 201 0
 293 0008 57F8086C 		ldr	r6, [r7, #-8]
 294              		.loc 1 200 0
 295 000c A7F10805 		sub	r5, r7, #8
 296              	.LVL30:
 297              		.loc 1 203 0
 298 0010 06F11000 		add	r0, r6, #16
 299 0014 FFF7FEFF 		bl	chMtxLock
 300              	.LVL31:
 301              		.loc 1 202 0
 302 0018 0836     		adds	r6, r6, #8
 303              	.LVL32:
 304 001a 3446     		mov	r4, r6
 305              	.LVL33:
 306              	.L38:
 307              		.loc 1 206 0
 308 001c AC42     		cmp	r4, r5
 309 001e 04D8     		bhi	.L31
 310              		.loc 1 206 0 is_stmt 0 discriminator 1
 311 0020 6368     		ldr	r3, [r4, #4]
 312 0022 0833     		adds	r3, r3, #8
 313 0024 E018     		adds	r0, r4, r3
 314 0026 8542     		cmp	r5, r0
 315 0028 1FD3     		bcc	.L43
 316              	.L31:
 317              		.loc 1 210 0 is_stmt 1
 318 002a B442     		cmp	r4, r6
 319              		.loc 1 211 0
 320 002c 2168     		ldr	r1, [r4, #0]
 321              		.loc 1 210 0
 322 002e 01D0     		beq	.L32
 323              		.loc 1 210 0 is_stmt 0 discriminator 2
 324 0030 AC42     		cmp	r4, r5
 325 0032 02D2     		bcs	.L35
 326              	.L32:
 327              		.loc 1 210 0 discriminator 1
 328 0034 19B1     		cbz	r1, .L34
 329              		.loc 1 211 0 is_stmt 1
 330 0036 8D42     		cmp	r5, r1
 331 0038 01D3     		bcc	.L34
 332              	.L35:
 333              	.LVL34:
 334              		.loc 1 228 0
 335 003a 0C46     		mov	r4, r1
 336              		.loc 1 229 0
 337 003c EEE7     		b	.L38
 338              	.LVL35:
ARM GAS  /tmp/ccZctqP8.s 			page 7


 339              	.L34:
 340              		.loc 1 216 0
 341 003e 57F8042C 		ldr	r2, [r7, #-4]
 342              		.loc 1 213 0
 343 0042 47F8081C 		str	r1, [r7, #-8]
 344              		.loc 1 214 0
 345 0046 2560     		str	r5, [r4, #0]
 346              		.loc 1 216 0
 347 0048 02F10803 		add	r3, r2, #8
 348 004c 57F8080C 		ldr	r0, [r7, #-8]
 349 0050 E918     		adds	r1, r5, r3
 350 0052 8142     		cmp	r1, r0
 351 0054 0DD0     		beq	.L44
 352              		.loc 1 221 0
 353 0056 6068     		ldr	r0, [r4, #4]
 354 0058 00F10801 		add	r1, r0, #8
 355 005c 6318     		adds	r3, r4, r1
 356 005e 9D42     		cmp	r5, r3
 357 0060 15D0     		beq	.L45
 358              	.L37:
 359              		.loc 1 233 0
 360 0062 BDE8F840 		pop	{r3, r4, r5, r6, r7, lr}
 361              		.loc 1 231 0
 362 0066 FFF7FEBF 		b	chMtxUnlock
 363              	.LVL36:
 364              	.L43:
 365              		.loc 1 206 0 discriminator 2
 366 006a 0F48     		ldr	r0, .L46
 367 006c FFF7FEFF 		bl	chDbgPanic
 368              	.LVL37:
 369 0070 DBE7     		b	.L31
 370              	.L44:
 371              		.loc 1 218 0
 372 0072 4868     		ldr	r0, [r1, #4]
 373              		.loc 1 219 0
 374 0074 EB58     		ldr	r3, [r5, r3]
 375              		.loc 1 218 0
 376 0076 1218     		adds	r2, r2, r0
 377 0078 0832     		adds	r2, r2, #8
 378 007a 47F8042C 		str	r2, [r7, #-4]
 379              		.loc 1 221 0
 380 007e 6068     		ldr	r0, [r4, #4]
 381              		.loc 1 219 0
 382 0080 47F8083C 		str	r3, [r7, #-8]
 383              		.loc 1 221 0
 384 0084 00F10801 		add	r1, r0, #8
 385 0088 6318     		adds	r3, r4, r1
 386 008a 9D42     		cmp	r5, r3
 387 008c E9D1     		bne	.L37
 388              	.L45:
 389              		.loc 1 223 0
 390 008e 57F8041C 		ldr	r1, [r7, #-4]
 391              		.loc 1 224 0
 392 0092 57F8082C 		ldr	r2, [r7, #-8]
 393              		.loc 1 223 0
 394 0096 4318     		adds	r3, r0, r1
 395 0098 0833     		adds	r3, r3, #8
ARM GAS  /tmp/ccZctqP8.s 			page 8


 396              		.loc 1 224 0
 397 009a 84E80C00 		stmia	r4, {r2, r3}
 398 009e E0E7     		b	.L37
 399              	.LVL38:
 400              	.L42:
 401              		.loc 1 198 0 discriminator 1
 402 00a0 0248     		ldr	r0, .L46+4
 403              	.LVL39:
 404 00a2 FFF7FEFF 		bl	chDbgPanic
 405              	.LVL40:
 406 00a6 AFE7     		b	.L30
 407              	.L47:
 408              		.align	2
 409              	.L46:
 410 00a8 20000000 		.word	.LC2
 411 00ac 10000000 		.word	.LC1
 412              		.cfi_endproc
 413              	.LFE10:
 414              		.size	chHeapFree, .-chHeapFree
 415              		.section	.text.chHeapStatus,"ax",%progbits
 416              		.align	2
 417              		.p2align 4,,15
 418              		.global	chHeapStatus
 419              		.thumb
 420              		.thumb_func
 421              		.type	chHeapStatus, %function
 422              	chHeapStatus:
 423              	.LFB11:
 424              		.loc 1 250 0
 425              		.cfi_startproc
 426              		@ args = 0, pretend = 0, frame = 0
 427              		@ frame_needed = 0, uses_anonymous_args = 0
 428              	.LVL41:
 429 0000 38B5     		push	{r3, r4, r5, lr}
 430              	.LCFI3:
 431              		.cfi_def_cfa_offset 16
 432              		.cfi_offset 3, -16
 433              		.cfi_offset 4, -12
 434              		.cfi_offset 5, -8
 435              		.cfi_offset 14, -4
 436              		.loc 1 255 0
 437 0002 0E4C     		ldr	r4, .L59
 438              		.loc 1 250 0
 439 0004 0D46     		mov	r5, r1
 440              		.loc 1 255 0
 441 0006 0028     		cmp	r0, #0
 442 0008 18BF     		it	ne
 443 000a 0446     		movne	r4, r0
 444              		.loc 1 257 0
 445 000c 04F11000 		add	r0, r4, #16
 446              	.LVL42:
 447 0010 FFF7FEFF 		bl	chMtxLock
 448              	.LVL43:
 449              		.loc 1 260 0
 450 0014 A368     		ldr	r3, [r4, #8]
 451 0016 6BB1     		cbz	r3, .L54
 452 0018 0022     		movs	r2, #0
ARM GAS  /tmp/ccZctqP8.s 			page 9


 453 001a 1446     		mov	r4, r2
 454              	.LVL44:
 455              	.L51:
 456              		.loc 1 261 0 discriminator 2
 457 001c 5868     		ldr	r0, [r3, #4]
 458              		.loc 1 260 0 discriminator 2
 459 001e 1B68     		ldr	r3, [r3, #0]
 460              		.loc 1 261 0 discriminator 2
 461 0020 1218     		adds	r2, r2, r0
 462              	.LVL45:
 463              		.loc 1 260 0 discriminator 2
 464 0022 0134     		adds	r4, r4, #1
 465              	.LVL46:
 466 0024 002B     		cmp	r3, #0
 467 0026 F9D1     		bne	.L51
 468              	.LVL47:
 469              	.L50:
 470              		.loc 1 262 0
 471 0028 05B1     		cbz	r5, .L52
 472              		.loc 1 263 0
 473 002a 2A60     		str	r2, [r5, #0]
 474              	.L52:
 475              		.loc 1 265 0
 476 002c FFF7FEFF 		bl	chMtxUnlock
 477              	.LVL48:
 478              		.loc 1 267 0
 479 0030 2046     		mov	r0, r4
 480 0032 38BD     		pop	{r3, r4, r5, pc}
 481              	.LVL49:
 482              	.L54:
 483              		.loc 1 259 0
 484 0034 1A46     		mov	r2, r3
 485              		.loc 1 260 0
 486 0036 1C46     		mov	r4, r3
 487 0038 F6E7     		b	.L50
 488              	.L60:
 489 003a 00BF     		.align	2
 490              	.L59:
 491 003c 00000000 		.word	.LANCHOR0
 492              		.cfi_endproc
 493              	.LFE11:
 494              		.size	chHeapStatus, .-chHeapStatus
 495              		.section	.rodata.str1.4,"aMS",%progbits,1
 496              		.align	2
 497              	.LC0:
 498 0000 22636848 		.ascii	"\"chHeapInit\"()\000"
 498      65617049 
 498      6E697422 
 498      282900
 499 000f 00       		.space	1
 500              	.LC1:
 501 0010 22636848 		.ascii	"\"chHeapFree\"()\000"
 501      65617046 
 501      72656522 
 501      282900
 502 001f 00       		.space	1
 503              	.LC2:
ARM GAS  /tmp/ccZctqP8.s 			page 10


 504 0020 63684865 		.ascii	"chHeapFree(), #1\000"
 504      61704672 
 504      65652829 
 504      2C202331 
 504      00
 505 0031 000000   		.section	.bss.default_heap,"aw",%nobits
 506              		.align	3
 507              		.set	.LANCHOR0,. + 0
 508              		.type	default_heap, %object
 509              		.size	default_heap, 32
 510              	default_heap:
 511 0000 00000000 		.space	32
 511      00000000 
 511      00000000 
 511      00000000 
 511      00000000 
 512              		.text
 513              	.Letext0:
 514              		.file 2 "/home/formica/toolchains/gcc-arm-none-eabi-4_7-2012q4/bin/../lib/gcc/arm-none-eabi/4.7.3/
 515              		.file 3 "/home/formica/toolchains/gcc-arm-none-eabi-4_7-2012q4/bin/../lib/gcc/arm-none-eabi/4.7.3/
 516              		.file 4 "/home/formica/chibios/chibios/os/ports/GCC/ARMCMx/chtypes.h"
 517              		.file 5 "/home/formica/chibios/chibios/os/kernel/include/chlists.h"
 518              		.file 6 "/home/formica/chibios/chibios/os/kernel/include/chthreads.h"
 519              		.file 7 "/home/formica/chibios/chibios/os/ports/GCC/ARMCMx/chcore_v7m.h"
 520              		.file 8 "/home/formica/chibios/chibios/os/kernel/include/chmtx.h"
 521              		.file 9 "/home/formica/chibios/chibios/os/kernel/include/chmemcore.h"
 522              		.file 10 "/home/formica/chibios/chibios/os/kernel/include/chheap.h"
 523              		.file 11 "/home/formica/chibios/chibios/os/kernel/include/chdebug.h"