ARM GAS  /tmp/ccRGZgHL.s 			page 1


   1              		.syntax unified
   2              		.cpu cortex-m3
   3              		.fpu softvfp
   4              		.eabi_attribute 20, 1
   5              		.eabi_attribute 21, 1
   6              		.eabi_attribute 23, 3
   7              		.eabi_attribute 24, 1
   8              		.eabi_attribute 25, 1
   9              		.eabi_attribute 26, 1
  10              		.eabi_attribute 30, 2
  11              		.eabi_attribute 34, 1
  12              		.eabi_attribute 18, 4
  13              		.thumb
  14              		.file	"chmboxes.c"
  15              		.text
  16              	.Ltext0:
  17              		.cfi_sections	.debug_frame
  18              		.section	.text.chMBInit,"ax",%progbits
  19              		.align	2
  20              		.p2align 4,,15
  21              		.global	chMBInit
  22              		.thumb
  23              		.thumb_func
  24              		.type	chMBInit, %function
  25              	chMBInit:
  26              	.LFB7:
  27              		.file 1 "/home/formica/chibios/chibios/os/kernel/src/chmboxes.c"
  28              		.loc 1 72 0
  29              		.cfi_startproc
  30              		@ args = 0, pretend = 0, frame = 0
  31              		@ frame_needed = 0, uses_anonymous_args = 0
  32              	.LVL0:
  33 0000 70B5     		push	{r4, r5, r6, lr}
  34              	.LCFI0:
  35              		.cfi_def_cfa_offset 16
  36              		.cfi_offset 4, -16
  37              		.cfi_offset 5, -12
  38              		.cfi_offset 6, -8
  39              		.cfi_offset 14, -4
  40              		.loc 1 74 0
  41 0002 0446     		mov	r4, r0
  42              		.loc 1 72 0
  43 0004 0D46     		mov	r5, r1
  44 0006 1646     		mov	r6, r2
  45              		.loc 1 74 0
  46 0008 A0B1     		cbz	r0, .L2
  47              		.loc 1 74 0 is_stmt 0 discriminator 2
  48 000a 99B1     		cbz	r1, .L2
  49              		.loc 1 74 0 discriminator 3
  50 000c 002A     		cmp	r2, #0
  51 000e 11DD     		ble	.L2
  52              	.LVL1:
  53              	.L3:
  54              		.loc 1 77 0 is_stmt 1
  55 0010 05EB8603 		add	r3, r5, r6, lsl #2
  56              		.loc 1 78 0
  57 0014 04F11C00 		add	r0, r4, #28
ARM GAS  /tmp/ccRGZgHL.s 			page 2


  58 0018 3146     		mov	r1, r6
  59              		.loc 1 76 0
  60 001a E560     		str	r5, [r4, #12]
  61 001c A560     		str	r5, [r4, #8]
  62 001e 2560     		str	r5, [r4, #0]
  63              		.loc 1 77 0
  64 0020 6360     		str	r3, [r4, #4]
  65              		.loc 1 78 0
  66 0022 FFF7FEFF 		bl	chSemInit
  67              	.LVL2:
  68              		.loc 1 79 0
  69 0026 04F11000 		add	r0, r4, #16
  70 002a 0021     		movs	r1, #0
  71              		.loc 1 80 0
  72 002c BDE87040 		pop	{r4, r5, r6, lr}
  73              		.loc 1 79 0
  74 0030 FFF7FEBF 		b	chSemInit
  75              	.LVL3:
  76              	.L2:
  77              		.loc 1 74 0 discriminator 1
  78 0034 0148     		ldr	r0, .L11
  79              	.LVL4:
  80 0036 FFF7FEFF 		bl	chDbgPanic
  81              	.LVL5:
  82 003a E9E7     		b	.L3
  83              	.L12:
  84              		.align	2
  85              	.L11:
  86 003c 00000000 		.word	.LC0
  87              		.cfi_endproc
  88              	.LFE7:
  89              		.size	chMBInit, .-chMBInit
  90              		.section	.text.chMBReset,"ax",%progbits
  91              		.align	2
  92              		.p2align 4,,15
  93              		.global	chMBReset
  94              		.thumb
  95              		.thumb_func
  96              		.type	chMBReset, %function
  97              	chMBReset:
  98              	.LFB8:
  99              		.loc 1 91 0
 100              		.cfi_startproc
 101              		@ args = 0, pretend = 0, frame = 0
 102              		@ frame_needed = 0, uses_anonymous_args = 0
 103              	.LVL6:
 104 0000 10B5     		push	{r4, lr}
 105              	.LCFI1:
 106              		.cfi_def_cfa_offset 8
 107              		.cfi_offset 4, -8
 108              		.cfi_offset 14, -4
 109              		.loc 1 93 0
 110 0002 0446     		mov	r4, r0
 111 0004 D8B1     		cbz	r0, .L15
 112              	.LVL7:
 113              	.L14:
 114              	.LBB2:
ARM GAS  /tmp/ccRGZgHL.s 			page 3


 115              		.loc 1 95 0
 116 0006 2023     		movs	r3, #32
 117              	.LVL8:
 118              	@ 95 "/home/formica/chibios/chibios/os/kernel/src/chmboxes.c" 1
 119 0008 83F31188 		msr     BASEPRI, r3
 120              	@ 0 "" 2
 121              	.LVL9:
 122              		.thumb
 123              	.LBE2:
 124 000c FFF7FEFF 		bl	dbg_check_lock
 125              	.LVL10:
 126              		.loc 1 96 0
 127 0010 2368     		ldr	r3, [r4, #0]
 128              		.loc 1 97 0
 129 0012 6168     		ldr	r1, [r4, #4]
 130              		.loc 1 96 0
 131 0014 E360     		str	r3, [r4, #12]
 132              		.loc 1 97 0
 133 0016 CA1A     		subs	r2, r1, r3
 134 0018 9110     		asrs	r1, r2, #2
 135              		.loc 1 96 0
 136 001a A360     		str	r3, [r4, #8]
 137              		.loc 1 97 0
 138 001c 04F11C00 		add	r0, r4, #28
 139 0020 FFF7FEFF 		bl	chSemResetI
 140              	.LVL11:
 141              		.loc 1 98 0
 142 0024 04F11000 		add	r0, r4, #16
 143 0028 0021     		movs	r1, #0
 144 002a FFF7FEFF 		bl	chSemResetI
 145              	.LVL12:
 146              		.loc 1 99 0
 147 002e FFF7FEFF 		bl	chSchRescheduleS
 148              	.LVL13:
 149              		.loc 1 100 0
 150 0032 FFF7FEFF 		bl	dbg_check_unlock
 151              	.LVL14:
 152              	.LBB3:
 153 0036 0023     		movs	r3, #0
 154              	.LVL15:
 155              	@ 100 "/home/formica/chibios/chibios/os/kernel/src/chmboxes.c" 1
 156 0038 83F31188 		msr     BASEPRI, r3
 157              	@ 0 "" 2
 158              	.LVL16:
 159              		.thumb
 160 003c 10BD     		pop	{r4, pc}
 161              	.LVL17:
 162              	.L15:
 163              	.LBE3:
 164              		.loc 1 93 0 discriminator 1
 165 003e 0248     		ldr	r0, .L16
 166              	.LVL18:
 167 0040 FFF7FEFF 		bl	chDbgPanic
 168              	.LVL19:
 169 0044 DFE7     		b	.L14
 170              	.L17:
 171 0046 00BF     		.align	2
ARM GAS  /tmp/ccRGZgHL.s 			page 4


 172              	.L16:
 173 0048 10000000 		.word	.LC1
 174              		.cfi_endproc
 175              	.LFE8:
 176              		.size	chMBReset, .-chMBReset
 177 004c AFF30080 		.section	.text.chMBPostS,"ax",%progbits
 178              		.align	2
 179              		.p2align 4,,15
 180              		.global	chMBPostS
 181              		.thumb
 182              		.thumb_func
 183              		.type	chMBPostS, %function
 184              	chMBPostS:
 185              	.LFB10:
 186              		.loc 1 150 0
 187              		.cfi_startproc
 188              		@ args = 0, pretend = 0, frame = 0
 189              		@ frame_needed = 0, uses_anonymous_args = 0
 190              	.LVL20:
 191 0000 70B5     		push	{r4, r5, r6, lr}
 192              	.LCFI2:
 193              		.cfi_def_cfa_offset 16
 194              		.cfi_offset 4, -16
 195              		.cfi_offset 5, -12
 196              		.cfi_offset 6, -8
 197              		.cfi_offset 14, -4
 198              		.loc 1 150 0
 199 0002 0446     		mov	r4, r0
 200 0004 0E46     		mov	r6, r1
 201 0006 1546     		mov	r5, r2
 202              		.loc 1 153 0
 203 0008 FFF7FEFF 		bl	chDbgCheckClassS
 204              	.LVL21:
 205              		.loc 1 154 0
 206 000c C4B1     		cbz	r4, .L22
 207              	.L19:
 208              		.loc 1 156 0
 209 000e 2946     		mov	r1, r5
 210 0010 04F11C00 		add	r0, r4, #28
 211 0014 FFF7FEFF 		bl	chSemWaitTimeoutS
 212              	.LVL22:
 213              		.loc 1 157 0
 214 0018 0546     		mov	r5, r0
 215              	.LVL23:
 216 001a 78B9     		cbnz	r0, .L20
 217              		.loc 1 158 0
 218 001c A368     		ldr	r3, [r4, #8]
 219              		.loc 1 159 0
 220 001e 6268     		ldr	r2, [r4, #4]
 221              		.loc 1 158 0
 222 0020 43F8046B 		str	r6, [r3], #4
 223              		.loc 1 159 0
 224 0024 9342     		cmp	r3, r2
 225              		.loc 1 158 0
 226 0026 A360     		str	r3, [r4, #8]
 227              		.loc 1 160 0
 228 0028 28BF     		it	cs
ARM GAS  /tmp/ccRGZgHL.s 			page 5


 229 002a 2368     		ldrcs	r3, [r4, #0]
 230              		.loc 1 161 0
 231 002c 04F11000 		add	r0, r4, #16
 232              	.LVL24:
 233              		.loc 1 160 0
 234 0030 28BF     		it	cs
 235 0032 A360     		strcs	r3, [r4, #8]
 236              		.loc 1 161 0
 237 0034 FFF7FEFF 		bl	chSemSignalI
 238              	.LVL25:
 239              		.loc 1 162 0
 240 0038 FFF7FEFF 		bl	chSchRescheduleS
 241              	.LVL26:
 242              	.L20:
 243              		.loc 1 165 0
 244 003c 2846     		mov	r0, r5
 245 003e 70BD     		pop	{r4, r5, r6, pc}
 246              	.LVL27:
 247              	.L22:
 248              		.loc 1 154 0 discriminator 1
 249 0040 0148     		ldr	r0, .L23
 250 0042 FFF7FEFF 		bl	chDbgPanic
 251              	.LVL28:
 252 0046 E2E7     		b	.L19
 253              	.L24:
 254              		.align	2
 255              	.L23:
 256 0048 20000000 		.word	.LC2
 257              		.cfi_endproc
 258              	.LFE10:
 259              		.size	chMBPostS, .-chMBPostS
 260 004c AFF30080 		.section	.text.chMBPost,"ax",%progbits
 261              		.align	2
 262              		.p2align 4,,15
 263              		.global	chMBPost
 264              		.thumb
 265              		.thumb_func
 266              		.type	chMBPost, %function
 267              	chMBPost:
 268              	.LFB9:
 269              		.loc 1 122 0
 270              		.cfi_startproc
 271              		@ args = 0, pretend = 0, frame = 0
 272              		@ frame_needed = 0, uses_anonymous_args = 0
 273              	.LVL29:
 274 0000 70B5     		push	{r4, r5, r6, lr}
 275              	.LCFI3:
 276              		.cfi_def_cfa_offset 16
 277              		.cfi_offset 4, -16
 278              		.cfi_offset 5, -12
 279              		.cfi_offset 6, -8
 280              		.cfi_offset 14, -4
 281              	.LBB4:
 282              		.loc 1 125 0
 283 0002 2023     		movs	r3, #32
 284              	.LVL30:
 285              	.LBE4:
ARM GAS  /tmp/ccRGZgHL.s 			page 6


 286              		.loc 1 122 0
 287 0004 0646     		mov	r6, r0
 288 0006 0D46     		mov	r5, r1
 289 0008 1446     		mov	r4, r2
 290              	.LBB5:
 291              		.loc 1 125 0
 292              	@ 125 "/home/formica/chibios/chibios/os/kernel/src/chmboxes.c" 1
 293 000a 83F31188 		msr     BASEPRI, r3
 294              	@ 0 "" 2
 295              	.LVL31:
 296              		.thumb
 297              	.LBE5:
 298 000e FFF7FEFF 		bl	dbg_check_lock
 299              	.LVL32:
 300              		.loc 1 126 0
 301 0012 2246     		mov	r2, r4
 302 0014 2946     		mov	r1, r5
 303 0016 3046     		mov	r0, r6
 304 0018 FFF7FEFF 		bl	chMBPostS
 305              	.LVL33:
 306 001c 0446     		mov	r4, r0
 307              	.LVL34:
 308              		.loc 1 127 0
 309 001e FFF7FEFF 		bl	dbg_check_unlock
 310              	.LVL35:
 311              	.LBB6:
 312 0022 0023     		movs	r3, #0
 313              	.LVL36:
 314              	@ 127 "/home/formica/chibios/chibios/os/kernel/src/chmboxes.c" 1
 315 0024 83F31188 		msr     BASEPRI, r3
 316              	@ 0 "" 2
 317              	.LVL37:
 318              		.thumb
 319              	.LBE6:
 320              		.loc 1 129 0
 321 0028 2046     		mov	r0, r4
 322 002a 70BD     		pop	{r4, r5, r6, pc}
 323              		.cfi_endproc
 324              	.LFE9:
 325              		.size	chMBPost, .-chMBPost
 326 002c AFF30080 		.section	.text.chMBPostI,"ax",%progbits
 327              		.align	2
 328              		.p2align 4,,15
 329              		.global	chMBPostI
 330              		.thumb
 331              		.thumb_func
 332              		.type	chMBPostI, %function
 333              	chMBPostI:
 334              	.LFB11:
 335              		.loc 1 181 0
 336              		.cfi_startproc
 337              		@ args = 0, pretend = 0, frame = 0
 338              		@ frame_needed = 0, uses_anonymous_args = 0
 339              	.LVL38:
 340 0000 38B5     		push	{r3, r4, r5, lr}
 341              	.LCFI4:
 342              		.cfi_def_cfa_offset 16
ARM GAS  /tmp/ccRGZgHL.s 			page 7


 343              		.cfi_offset 3, -16
 344              		.cfi_offset 4, -12
 345              		.cfi_offset 5, -8
 346              		.cfi_offset 14, -4
 347              		.loc 1 181 0
 348 0002 0446     		mov	r4, r0
 349 0004 0D46     		mov	r5, r1
 350              		.loc 1 183 0
 351 0006 FFF7FEFF 		bl	chDbgCheckClassI
 352              	.LVL39:
 353              		.loc 1 184 0
 354 000a A4B1     		cbz	r4, .L31
 355              	.L27:
 356              		.loc 1 186 0
 357 000c 626A     		ldr	r2, [r4, #36]
 358 000e 002A     		cmp	r2, #0
 359 0010 15DD     		ble	.L30
 360              		.loc 1 189 0
 361 0012 A368     		ldr	r3, [r4, #8]
 362              		.loc 1 188 0
 363 0014 501E     		subs	r0, r2, #1
 364              		.loc 1 190 0
 365 0016 6168     		ldr	r1, [r4, #4]
 366              		.loc 1 188 0
 367 0018 6062     		str	r0, [r4, #36]
 368              		.loc 1 189 0
 369 001a 43F8045B 		str	r5, [r3], #4
 370              		.loc 1 190 0
 371 001e 8B42     		cmp	r3, r1
 372              		.loc 1 189 0
 373 0020 A360     		str	r3, [r4, #8]
 374              		.loc 1 191 0
 375 0022 28BF     		it	cs
 376 0024 2368     		ldrcs	r3, [r4, #0]
 377              		.loc 1 192 0
 378 0026 04F11000 		add	r0, r4, #16
 379              		.loc 1 191 0
 380 002a 28BF     		it	cs
 381 002c A360     		strcs	r3, [r4, #8]
 382              		.loc 1 192 0
 383 002e FFF7FEFF 		bl	chSemSignalI
 384              	.LVL40:
 385              		.loc 1 193 0
 386 0032 0020     		movs	r0, #0
 387 0034 38BD     		pop	{r3, r4, r5, pc}
 388              	.L31:
 389              		.loc 1 184 0 discriminator 1
 390 0036 0348     		ldr	r0, .L32
 391 0038 FFF7FEFF 		bl	chDbgPanic
 392              	.LVL41:
 393 003c E6E7     		b	.L27
 394              	.L30:
 395              		.loc 1 187 0
 396 003e 4FF0FF30 		mov	r0, #-1
 397              		.loc 1 194 0
 398 0042 38BD     		pop	{r3, r4, r5, pc}
 399              	.L33:
ARM GAS  /tmp/ccRGZgHL.s 			page 8


 400              		.align	2
 401              	.L32:
 402 0044 30000000 		.word	.LC3
 403              		.cfi_endproc
 404              	.LFE11:
 405              		.size	chMBPostI, .-chMBPostI
 406 0048 AFF30080 		.section	.text.chMBPostAheadS,"ax",%progbits
 406      AFF30080 
 407              		.align	2
 408              		.p2align 4,,15
 409              		.global	chMBPostAheadS
 410              		.thumb
 411              		.thumb_func
 412              		.type	chMBPostAheadS, %function
 413              	chMBPostAheadS:
 414              	.LFB13:
 415              		.loc 1 243 0
 416              		.cfi_startproc
 417              		@ args = 0, pretend = 0, frame = 0
 418              		@ frame_needed = 0, uses_anonymous_args = 0
 419              	.LVL42:
 420 0000 70B5     		push	{r4, r5, r6, lr}
 421              	.LCFI5:
 422              		.cfi_def_cfa_offset 16
 423              		.cfi_offset 4, -16
 424              		.cfi_offset 5, -12
 425              		.cfi_offset 6, -8
 426              		.cfi_offset 14, -4
 427              		.loc 1 243 0
 428 0002 0446     		mov	r4, r0
 429 0004 0E46     		mov	r6, r1
 430 0006 1546     		mov	r5, r2
 431              		.loc 1 246 0
 432 0008 FFF7FEFF 		bl	chDbgCheckClassS
 433              	.LVL43:
 434              		.loc 1 247 0
 435 000c CCB1     		cbz	r4, .L38
 436              	.L35:
 437              		.loc 1 249 0
 438 000e 2946     		mov	r1, r5
 439 0010 04F11C00 		add	r0, r4, #28
 440 0014 FFF7FEFF 		bl	chSemWaitTimeoutS
 441              	.LVL44:
 442              		.loc 1 250 0
 443 0018 0546     		mov	r5, r0
 444              	.LVL45:
 445 001a 60B9     		cbnz	r0, .L36
 446              		.loc 1 251 0
 447 001c E368     		ldr	r3, [r4, #12]
 448 001e 2268     		ldr	r2, [r4, #0]
 449 0020 191F     		subs	r1, r3, #4
 450 0022 9142     		cmp	r1, r2
 451 0024 E160     		str	r1, [r4, #12]
 452 0026 08D3     		bcc	.L39
 453              	.LVL46:
 454              	.L37:
 455              		.loc 1 254 0
ARM GAS  /tmp/ccRGZgHL.s 			page 9


 456 0028 04F11000 		add	r0, r4, #16
 457              		.loc 1 253 0
 458 002c 0E60     		str	r6, [r1, #0]
 459              		.loc 1 254 0
 460 002e FFF7FEFF 		bl	chSemSignalI
 461              	.LVL47:
 462              		.loc 1 255 0
 463 0032 FFF7FEFF 		bl	chSchRescheduleS
 464              	.LVL48:
 465              	.L36:
 466              		.loc 1 258 0
 467 0036 2846     		mov	r0, r5
 468 0038 70BD     		pop	{r4, r5, r6, pc}
 469              	.LVL49:
 470              	.L39:
 471              		.loc 1 252 0
 472 003a 6068     		ldr	r0, [r4, #4]
 473              	.LVL50:
 474 003c 011F     		subs	r1, r0, #4
 475 003e E160     		str	r1, [r4, #12]
 476 0040 F2E7     		b	.L37
 477              	.LVL51:
 478              	.L38:
 479              		.loc 1 247 0 discriminator 1
 480 0042 0248     		ldr	r0, .L40
 481 0044 FFF7FEFF 		bl	chDbgPanic
 482              	.LVL52:
 483 0048 E1E7     		b	.L35
 484              	.L41:
 485 004a 00BF     		.align	2
 486              	.L40:
 487 004c 40000000 		.word	.LC4
 488              		.cfi_endproc
 489              	.LFE13:
 490              		.size	chMBPostAheadS, .-chMBPostAheadS
 491              		.section	.text.chMBPostAhead,"ax",%progbits
 492              		.align	2
 493              		.p2align 4,,15
 494              		.global	chMBPostAhead
 495              		.thumb
 496              		.thumb_func
 497              		.type	chMBPostAhead, %function
 498              	chMBPostAhead:
 499              	.LFB12:
 500              		.loc 1 215 0
 501              		.cfi_startproc
 502              		@ args = 0, pretend = 0, frame = 0
 503              		@ frame_needed = 0, uses_anonymous_args = 0
 504              	.LVL53:
 505 0000 70B5     		push	{r4, r5, r6, lr}
 506              	.LCFI6:
 507              		.cfi_def_cfa_offset 16
 508              		.cfi_offset 4, -16
 509              		.cfi_offset 5, -12
 510              		.cfi_offset 6, -8
 511              		.cfi_offset 14, -4
 512              	.LBB7:
ARM GAS  /tmp/ccRGZgHL.s 			page 10


 513              		.loc 1 218 0
 514 0002 2023     		movs	r3, #32
 515              	.LVL54:
 516              	.LBE7:
 517              		.loc 1 215 0
 518 0004 0646     		mov	r6, r0
 519 0006 0D46     		mov	r5, r1
 520 0008 1446     		mov	r4, r2
 521              	.LBB8:
 522              		.loc 1 218 0
 523              	@ 218 "/home/formica/chibios/chibios/os/kernel/src/chmboxes.c" 1
 524 000a 83F31188 		msr     BASEPRI, r3
 525              	@ 0 "" 2
 526              	.LVL55:
 527              		.thumb
 528              	.LBE8:
 529 000e FFF7FEFF 		bl	dbg_check_lock
 530              	.LVL56:
 531              		.loc 1 219 0
 532 0012 2246     		mov	r2, r4
 533 0014 2946     		mov	r1, r5
 534 0016 3046     		mov	r0, r6
 535 0018 FFF7FEFF 		bl	chMBPostAheadS
 536              	.LVL57:
 537 001c 0446     		mov	r4, r0
 538              	.LVL58:
 539              		.loc 1 220 0
 540 001e FFF7FEFF 		bl	dbg_check_unlock
 541              	.LVL59:
 542              	.LBB9:
 543 0022 0023     		movs	r3, #0
 544              	.LVL60:
 545              	@ 220 "/home/formica/chibios/chibios/os/kernel/src/chmboxes.c" 1
 546 0024 83F31188 		msr     BASEPRI, r3
 547              	@ 0 "" 2
 548              	.LVL61:
 549              		.thumb
 550              	.LBE9:
 551              		.loc 1 222 0
 552 0028 2046     		mov	r0, r4
 553 002a 70BD     		pop	{r4, r5, r6, pc}
 554              		.cfi_endproc
 555              	.LFE12:
 556              		.size	chMBPostAhead, .-chMBPostAhead
 557 002c AFF30080 		.section	.text.chMBPostAheadI,"ax",%progbits
 558              		.align	2
 559              		.p2align 4,,15
 560              		.global	chMBPostAheadI
 561              		.thumb
 562              		.thumb_func
 563              		.type	chMBPostAheadI, %function
 564              	chMBPostAheadI:
 565              	.LFB14:
 566              		.loc 1 274 0
 567              		.cfi_startproc
 568              		@ args = 0, pretend = 0, frame = 0
 569              		@ frame_needed = 0, uses_anonymous_args = 0
ARM GAS  /tmp/ccRGZgHL.s 			page 11


 570              	.LVL62:
 571 0000 38B5     		push	{r3, r4, r5, lr}
 572              	.LCFI7:
 573              		.cfi_def_cfa_offset 16
 574              		.cfi_offset 3, -16
 575              		.cfi_offset 4, -12
 576              		.cfi_offset 5, -8
 577              		.cfi_offset 14, -4
 578              		.loc 1 274 0
 579 0002 0446     		mov	r4, r0
 580 0004 0D46     		mov	r5, r1
 581              		.loc 1 276 0
 582 0006 FFF7FEFF 		bl	chDbgCheckClassI
 583              	.LVL63:
 584              		.loc 1 277 0
 585 000a A4B1     		cbz	r4, .L48
 586              	.L44:
 587              		.loc 1 279 0
 588 000c 626A     		ldr	r2, [r4, #36]
 589 000e 002A     		cmp	r2, #0
 590 0010 15DD     		ble	.L47
 591              		.loc 1 282 0
 592 0012 E368     		ldr	r3, [r4, #12]
 593 0014 2168     		ldr	r1, [r4, #0]
 594 0016 043B     		subs	r3, r3, #4
 595              		.loc 1 281 0
 596 0018 501E     		subs	r0, r2, #1
 597              		.loc 1 282 0
 598 001a 8B42     		cmp	r3, r1
 599              		.loc 1 281 0
 600 001c 6062     		str	r0, [r4, #36]
 601              		.loc 1 282 0
 602 001e E360     		str	r3, [r4, #12]
 603 0020 02D2     		bcs	.L46
 604              		.loc 1 283 0
 605 0022 6268     		ldr	r2, [r4, #4]
 606 0024 131F     		subs	r3, r2, #4
 607 0026 E360     		str	r3, [r4, #12]
 608              	.L46:
 609              		.loc 1 285 0
 610 0028 04F11000 		add	r0, r4, #16
 611              		.loc 1 284 0
 612 002c 1D60     		str	r5, [r3, #0]
 613              		.loc 1 285 0
 614 002e FFF7FEFF 		bl	chSemSignalI
 615              	.LVL64:
 616              		.loc 1 286 0
 617 0032 0020     		movs	r0, #0
 618 0034 38BD     		pop	{r3, r4, r5, pc}
 619              	.L48:
 620              		.loc 1 277 0 discriminator 1
 621 0036 0348     		ldr	r0, .L49
 622 0038 FFF7FEFF 		bl	chDbgPanic
 623              	.LVL65:
 624 003c E6E7     		b	.L44
 625              	.L47:
 626              		.loc 1 280 0
ARM GAS  /tmp/ccRGZgHL.s 			page 12


 627 003e 4FF0FF30 		mov	r0, #-1
 628              		.loc 1 287 0
 629 0042 38BD     		pop	{r3, r4, r5, pc}
 630              	.L50:
 631              		.align	2
 632              	.L49:
 633 0044 54000000 		.word	.LC5
 634              		.cfi_endproc
 635              	.LFE14:
 636              		.size	chMBPostAheadI, .-chMBPostAheadI
 637 0048 AFF30080 		.section	.text.chMBFetchS,"ax",%progbits
 637      AFF30080 
 638              		.align	2
 639              		.p2align 4,,15
 640              		.global	chMBFetchS
 641              		.thumb
 642              		.thumb_func
 643              		.type	chMBFetchS, %function
 644              	chMBFetchS:
 645              	.LFB16:
 646              		.loc 1 336 0
 647              		.cfi_startproc
 648              		@ args = 0, pretend = 0, frame = 0
 649              		@ frame_needed = 0, uses_anonymous_args = 0
 650              	.LVL66:
 651 0000 70B5     		push	{r4, r5, r6, lr}
 652              	.LCFI8:
 653              		.cfi_def_cfa_offset 16
 654              		.cfi_offset 4, -16
 655              		.cfi_offset 5, -12
 656              		.cfi_offset 6, -8
 657              		.cfi_offset 14, -4
 658              		.loc 1 336 0
 659 0002 0446     		mov	r4, r0
 660 0004 0E46     		mov	r6, r1
 661 0006 1546     		mov	r5, r2
 662              		.loc 1 339 0
 663 0008 FFF7FEFF 		bl	chDbgCheckClassS
 664              	.LVL67:
 665              		.loc 1 340 0
 666 000c CCB1     		cbz	r4, .L52
 667              		.loc 1 340 0 is_stmt 0 discriminator 2
 668 000e C6B1     		cbz	r6, .L52
 669              	.L53:
 670              		.loc 1 342 0 is_stmt 1
 671 0010 2946     		mov	r1, r5
 672 0012 04F11000 		add	r0, r4, #16
 673 0016 FFF7FEFF 		bl	chSemWaitTimeoutS
 674              	.LVL68:
 675              		.loc 1 343 0
 676 001a 0546     		mov	r5, r0
 677              	.LVL69:
 678 001c 78B9     		cbnz	r0, .L54
 679              		.loc 1 344 0
 680 001e E368     		ldr	r3, [r4, #12]
 681              		.loc 1 345 0
 682 0020 6268     		ldr	r2, [r4, #4]
ARM GAS  /tmp/ccRGZgHL.s 			page 13


 683              		.loc 1 344 0
 684 0022 53F8041B 		ldr	r1, [r3], #4
 685              		.loc 1 347 0
 686 0026 04F11C00 		add	r0, r4, #28
 687              	.LVL70:
 688              		.loc 1 345 0
 689 002a 9342     		cmp	r3, r2
 690              		.loc 1 344 0
 691 002c 3160     		str	r1, [r6, #0]
 692 002e E360     		str	r3, [r4, #12]
 693              		.loc 1 346 0
 694 0030 24BF     		itt	cs
 695 0032 2368     		ldrcs	r3, [r4, #0]
 696 0034 E360     		strcs	r3, [r4, #12]
 697              		.loc 1 347 0
 698 0036 FFF7FEFF 		bl	chSemSignalI
 699              	.LVL71:
 700              		.loc 1 348 0
 701 003a FFF7FEFF 		bl	chSchRescheduleS
 702              	.LVL72:
 703              	.L54:
 704              		.loc 1 351 0
 705 003e 2846     		mov	r0, r5
 706 0040 70BD     		pop	{r4, r5, r6, pc}
 707              	.LVL73:
 708              	.L52:
 709              		.loc 1 340 0 discriminator 1
 710 0042 0248     		ldr	r0, .L59
 711 0044 FFF7FEFF 		bl	chDbgPanic
 712              	.LVL74:
 713 0048 E2E7     		b	.L53
 714              	.L60:
 715 004a 00BF     		.align	2
 716              	.L59:
 717 004c 68000000 		.word	.LC6
 718              		.cfi_endproc
 719              	.LFE16:
 720              		.size	chMBFetchS, .-chMBFetchS
 721              		.section	.text.chMBFetch,"ax",%progbits
 722              		.align	2
 723              		.p2align 4,,15
 724              		.global	chMBFetch
 725              		.thumb
 726              		.thumb_func
 727              		.type	chMBFetch, %function
 728              	chMBFetch:
 729              	.LFB15:
 730              		.loc 1 308 0
 731              		.cfi_startproc
 732              		@ args = 0, pretend = 0, frame = 0
 733              		@ frame_needed = 0, uses_anonymous_args = 0
 734              	.LVL75:
 735 0000 70B5     		push	{r4, r5, r6, lr}
 736              	.LCFI9:
 737              		.cfi_def_cfa_offset 16
 738              		.cfi_offset 4, -16
 739              		.cfi_offset 5, -12
ARM GAS  /tmp/ccRGZgHL.s 			page 14


 740              		.cfi_offset 6, -8
 741              		.cfi_offset 14, -4
 742              	.LBB10:
 743              		.loc 1 311 0
 744 0002 2023     		movs	r3, #32
 745              	.LVL76:
 746              	.LBE10:
 747              		.loc 1 308 0
 748 0004 0646     		mov	r6, r0
 749 0006 0D46     		mov	r5, r1
 750 0008 1446     		mov	r4, r2
 751              	.LBB11:
 752              		.loc 1 311 0
 753              	@ 311 "/home/formica/chibios/chibios/os/kernel/src/chmboxes.c" 1
 754 000a 83F31188 		msr     BASEPRI, r3
 755              	@ 0 "" 2
 756              	.LVL77:
 757              		.thumb
 758              	.LBE11:
 759 000e FFF7FEFF 		bl	dbg_check_lock
 760              	.LVL78:
 761              		.loc 1 312 0
 762 0012 2246     		mov	r2, r4
 763 0014 2946     		mov	r1, r5
 764 0016 3046     		mov	r0, r6
 765 0018 FFF7FEFF 		bl	chMBFetchS
 766              	.LVL79:
 767 001c 0446     		mov	r4, r0
 768              	.LVL80:
 769              		.loc 1 313 0
 770 001e FFF7FEFF 		bl	dbg_check_unlock
 771              	.LVL81:
 772              	.LBB12:
 773 0022 0023     		movs	r3, #0
 774              	.LVL82:
 775              	@ 313 "/home/formica/chibios/chibios/os/kernel/src/chmboxes.c" 1
 776 0024 83F31188 		msr     BASEPRI, r3
 777              	@ 0 "" 2
 778              	.LVL83:
 779              		.thumb
 780              	.LBE12:
 781              		.loc 1 315 0
 782 0028 2046     		mov	r0, r4
 783 002a 70BD     		pop	{r4, r5, r6, pc}
 784              		.cfi_endproc
 785              	.LFE15:
 786              		.size	chMBFetch, .-chMBFetch
 787 002c AFF30080 		.section	.text.chMBFetchI,"ax",%progbits
 788              		.align	2
 789              		.p2align 4,,15
 790              		.global	chMBFetchI
 791              		.thumb
 792              		.thumb_func
 793              		.type	chMBFetchI, %function
 794              	chMBFetchI:
 795              	.LFB17:
 796              		.loc 1 367 0
ARM GAS  /tmp/ccRGZgHL.s 			page 15


 797              		.cfi_startproc
 798              		@ args = 0, pretend = 0, frame = 0
 799              		@ frame_needed = 0, uses_anonymous_args = 0
 800              	.LVL84:
 801 0000 38B5     		push	{r3, r4, r5, lr}
 802              	.LCFI10:
 803              		.cfi_def_cfa_offset 16
 804              		.cfi_offset 3, -16
 805              		.cfi_offset 4, -12
 806              		.cfi_offset 5, -8
 807              		.cfi_offset 14, -4
 808              		.loc 1 367 0
 809 0002 0446     		mov	r4, r0
 810 0004 0D46     		mov	r5, r1
 811              		.loc 1 369 0
 812 0006 FFF7FEFF 		bl	chDbgCheckClassI
 813              	.LVL85:
 814              		.loc 1 370 0
 815 000a B4B1     		cbz	r4, .L63
 816              		.loc 1 370 0 is_stmt 0 discriminator 2
 817 000c ADB1     		cbz	r5, .L63
 818              	.L64:
 819              		.loc 1 372 0 is_stmt 1
 820 000e A269     		ldr	r2, [r4, #24]
 821 0010 002A     		cmp	r2, #0
 822 0012 16DD     		ble	.L67
 823              		.loc 1 375 0
 824 0014 E368     		ldr	r3, [r4, #12]
 825              		.loc 1 374 0
 826 0016 501E     		subs	r0, r2, #1
 827 0018 A061     		str	r0, [r4, #24]
 828              		.loc 1 375 0
 829 001a 53F8041B 		ldr	r1, [r3], #4
 830              		.loc 1 376 0
 831 001e 6268     		ldr	r2, [r4, #4]
 832              		.loc 1 375 0
 833 0020 2960     		str	r1, [r5, #0]
 834              		.loc 1 376 0
 835 0022 9342     		cmp	r3, r2
 836              		.loc 1 375 0
 837 0024 E360     		str	r3, [r4, #12]
 838              		.loc 1 377 0
 839 0026 28BF     		it	cs
 840 0028 2368     		ldrcs	r3, [r4, #0]
 841              		.loc 1 378 0
 842 002a 04F11C00 		add	r0, r4, #28
 843              		.loc 1 377 0
 844 002e 28BF     		it	cs
 845 0030 E360     		strcs	r3, [r4, #12]
 846              		.loc 1 378 0
 847 0032 FFF7FEFF 		bl	chSemSignalI
 848              	.LVL86:
 849              		.loc 1 379 0
 850 0036 0020     		movs	r0, #0
 851 0038 38BD     		pop	{r3, r4, r5, pc}
 852              	.L63:
 853              		.loc 1 370 0 discriminator 1
ARM GAS  /tmp/ccRGZgHL.s 			page 16


 854 003a 0348     		ldr	r0, .L71
 855 003c FFF7FEFF 		bl	chDbgPanic
 856              	.LVL87:
 857 0040 E5E7     		b	.L64
 858              	.L67:
 859              		.loc 1 373 0
 860 0042 4FF0FF30 		mov	r0, #-1
 861              		.loc 1 380 0
 862 0046 38BD     		pop	{r3, r4, r5, pc}
 863              	.L72:
 864              		.align	2
 865              	.L71:
 866 0048 78000000 		.word	.LC7
 867              		.cfi_endproc
 868              	.LFE17:
 869              		.size	chMBFetchI, .-chMBFetchI
 870 004c AFF30080 		.section	.rodata.str1.4,"aMS",%progbits,1
 871              		.align	2
 872              	.LC0:
 873 0000 2263684D 		.ascii	"\"chMBInit\"()\000"
 873      42496E69 
 873      74222829 
 873      00
 874 000d 000000   		.space	3
 875              	.LC1:
 876 0010 2263684D 		.ascii	"\"chMBReset\"()\000"
 876      42526573 
 876      65742228 
 876      2900
 877 001e 0000     		.space	2
 878              	.LC2:
 879 0020 2263684D 		.ascii	"\"chMBPostS\"()\000"
 879      42506F73 
 879      74532228 
 879      2900
 880 002e 0000     		.space	2
 881              	.LC3:
 882 0030 2263684D 		.ascii	"\"chMBPostI\"()\000"
 882      42506F73 
 882      74492228 
 882      2900
 883 003e 0000     		.space	2
 884              	.LC4:
 885 0040 2263684D 		.ascii	"\"chMBPostAheadS\"()\000"
 885      42506F73 
 885      74416865 
 885      61645322 
 885      282900
 886 0053 00       		.space	1
 887              	.LC5:
 888 0054 2263684D 		.ascii	"\"chMBPostAheadI\"()\000"
 888      42506F73 
 888      74416865 
 888      61644922 
 888      282900
 889 0067 00       		.space	1
 890              	.LC6:
ARM GAS  /tmp/ccRGZgHL.s 			page 17


 891 0068 2263684D 		.ascii	"\"chMBFetchS\"()\000"
 891      42466574 
 891      63685322 
 891      282900
 892 0077 00       		.space	1
 893              	.LC7:
 894 0078 2263684D 		.ascii	"\"chMBFetchI\"()\000"
 894      42466574 
 894      63684922 
 894      282900
 895 0087 00       		.text
 896              	.Letext0:
 897              		.file 2 "/home/formica/toolchains/gcc-arm-none-eabi-4_7-2012q4/bin/../lib/gcc/arm-none-eabi/4.7.3/
 898              		.file 3 "/home/formica/chibios/chibios/os/ports/GCC/ARMCMx/chtypes.h"
 899              		.file 4 "/home/formica/chibios/chibios/os/kernel/include/chlists.h"
 900              		.file 5 "/home/formica/chibios/chibios/os/kernel/include/chthreads.h"
 901              		.file 6 "/home/formica/chibios/chibios/os/ports/GCC/ARMCMx/chcore_v7m.h"
 902              		.file 7 "/home/formica/chibios/chibios/os/kernel/include/chsem.h"
 903              		.file 8 "/home/formica/chibios/chibios/os/kernel/include/chmtx.h"
 904              		.file 9 "/home/formica/chibios/chibios/os/kernel/include/chmboxes.h"
 905              		.file 10 "/home/formica/chibios/chibios/os/kernel/include/chdebug.h"
 906              		.file 11 "/home/formica/chibios/chibios/os/kernel/include/chschd.h"
 907              		.section	.debug_info,"",%progbits
 908              	.Ldebug_info0:
 909 0000 380C0000 		.4byte	0xc38
 910 0004 0200     		.2byte	0x2
 911 0006 00000000 		.4byte	.Ldebug_abbrev0
 912 000a 04       		.byte	0x4
 913 000b 01       		.uleb128 0x1
 914 000c 25010000 		.4byte	.LASF89
 915 0010 01       		.byte	0x1
 916 0011 80010000 		.4byte	.LASF90
 917 0015 48000000 		.4byte	.Ldebug_ranges0+0x48
 918 0019 00000000 		.4byte	0
 919 001d 00000000 		.4byte	0
 920 0021 00000000 		.4byte	.Ldebug_line0
 921 0025 02       		.uleb128 0x2
 922 0026 04       		.byte	0x4
 923 0027 05       		.byte	0x5
 924 0028 696E7400 		.ascii	"int\000"
 925 002c 03       		.uleb128 0x3
 926 002d 04       		.byte	0x4
 927 002e 07       		.byte	0x7
 928 002f 0F010000 		.4byte	.LASF0
 929 0033 03       		.uleb128 0x3
 930 0034 01       		.byte	0x1
 931 0035 06       		.byte	0x6
 932 0036 A6000000 		.4byte	.LASF1
 933 003a 04       		.uleb128 0x4
 934 003b CE030000 		.4byte	.LASF5
 935 003f 02       		.byte	0x2
 936 0040 2A       		.byte	0x2a
 937 0041 45000000 		.4byte	0x45
 938 0045 03       		.uleb128 0x3
 939 0046 01       		.byte	0x1
 940 0047 08       		.byte	0x8
 941 0048 D7020000 		.4byte	.LASF2
ARM GAS  /tmp/ccRGZgHL.s 			page 18


 942 004c 03       		.uleb128 0x3
 943 004d 02       		.byte	0x2
 944 004e 05       		.byte	0x5
 945 004f F6020000 		.4byte	.LASF3
 946 0053 03       		.uleb128 0x3
 947 0054 02       		.byte	0x2
 948 0055 07       		.byte	0x7
 949 0056 D1010000 		.4byte	.LASF4
 950 005a 04       		.uleb128 0x4
 951 005b CF020000 		.4byte	.LASF6
 952 005f 02       		.byte	0x2
 953 0060 4F       		.byte	0x4f
 954 0061 65000000 		.4byte	0x65
 955 0065 03       		.uleb128 0x3
 956 0066 04       		.byte	0x4
 957 0067 05       		.byte	0x5
 958 0068 C2000000 		.4byte	.LASF7
 959 006c 04       		.uleb128 0x4
 960 006d 39030000 		.4byte	.LASF8
 961 0071 02       		.byte	0x2
 962 0072 50       		.byte	0x50
 963 0073 77000000 		.4byte	0x77
 964 0077 03       		.uleb128 0x3
 965 0078 04       		.byte	0x4
 966 0079 07       		.byte	0x7
 967 007a 6E010000 		.4byte	.LASF9
 968 007e 03       		.uleb128 0x3
 969 007f 08       		.byte	0x8
 970 0080 05       		.byte	0x5
 971 0081 98000000 		.4byte	.LASF10
 972 0085 04       		.uleb128 0x4
 973 0086 25000000 		.4byte	.LASF11
 974 008a 02       		.byte	0x2
 975 008b 78       		.byte	0x78
 976 008c 90000000 		.4byte	0x90
 977 0090 03       		.uleb128 0x3
 978 0091 08       		.byte	0x8
 979 0092 07       		.byte	0x7
 980 0093 59000000 		.4byte	.LASF12
 981 0097 04       		.uleb128 0x4
 982 0098 11020000 		.4byte	.LASF13
 983 009c 03       		.byte	0x3
 984 009d 2F       		.byte	0x2f
 985 009e 3A000000 		.4byte	0x3a
 986 00a2 04       		.uleb128 0x4
 987 00a3 CB000000 		.4byte	.LASF14
 988 00a7 03       		.byte	0x3
 989 00a8 30       		.byte	0x30
 990 00a9 3A000000 		.4byte	0x3a
 991 00ad 04       		.uleb128 0x4
 992 00ae B8020000 		.4byte	.LASF15
 993 00b2 03       		.byte	0x3
 994 00b3 31       		.byte	0x31
 995 00b4 3A000000 		.4byte	0x3a
 996 00b8 04       		.uleb128 0x4
 997 00b9 C7020000 		.4byte	.LASF16
 998 00bd 03       		.byte	0x3
ARM GAS  /tmp/ccRGZgHL.s 			page 19


 999 00be 32       		.byte	0x32
 1000 00bf 6C000000 		.4byte	0x6c
 1001 00c3 04       		.uleb128 0x4
 1002 00c4 EF010000 		.4byte	.LASF17
 1003 00c8 03       		.byte	0x3
 1004 00c9 33       		.byte	0x33
 1005 00ca 5A000000 		.4byte	0x5a
 1006 00ce 04       		.uleb128 0x4
 1007 00cf 36020000 		.4byte	.LASF18
 1008 00d3 03       		.byte	0x3
 1009 00d4 35       		.byte	0x35
 1010 00d5 6C000000 		.4byte	0x6c
 1011 00d9 04       		.uleb128 0x4
 1012 00da 60030000 		.4byte	.LASF19
 1013 00de 03       		.byte	0x3
 1014 00df 36       		.byte	0x36
 1015 00e0 6C000000 		.4byte	0x6c
 1016 00e4 04       		.uleb128 0x4
 1017 00e5 FE000000 		.4byte	.LASF20
 1018 00e9 03       		.byte	0x3
 1019 00ea 37       		.byte	0x37
 1020 00eb 5A000000 		.4byte	0x5a
 1021 00ef 04       		.uleb128 0x4
 1022 00f0 27030000 		.4byte	.LASF21
 1023 00f4 04       		.byte	0x4
 1024 00f5 2A       		.byte	0x2a
 1025 00f6 FA000000 		.4byte	0xfa
 1026 00fa 05       		.uleb128 0x5
 1027 00fb 27030000 		.4byte	.LASF21
 1028 00ff 4C       		.byte	0x4c
 1029 0100 05       		.byte	0x5
 1030 0101 5E       		.byte	0x5e
 1031 0102 1F020000 		.4byte	0x21f
 1032 0106 06       		.uleb128 0x6
 1033 0107 0F030000 		.4byte	.LASF22
 1034 010b 05       		.byte	0x5
 1035 010c 5F       		.byte	0x5f
 1036 010d 44020000 		.4byte	0x244
 1037 0111 02       		.byte	0x2
 1038 0112 23       		.byte	0x23
 1039 0113 00       		.uleb128 0
 1040 0114 06       		.uleb128 0x6
 1041 0115 C0020000 		.4byte	.LASF23
 1042 0119 05       		.byte	0x5
 1043 011a 61       		.byte	0x61
 1044 011b 44020000 		.4byte	0x244
 1045 011f 02       		.byte	0x2
 1046 0120 23       		.byte	0x23
 1047 0121 04       		.uleb128 0x4
 1048 0122 06       		.uleb128 0x6
 1049 0123 91000000 		.4byte	.LASF24
 1050 0127 05       		.byte	0x5
 1051 0128 63       		.byte	0x63
 1052 0129 B8000000 		.4byte	0xb8
 1053 012d 02       		.byte	0x2
 1054 012e 23       		.byte	0x23
 1055 012f 08       		.uleb128 0x8
ARM GAS  /tmp/ccRGZgHL.s 			page 20


 1056 0130 06       		.uleb128 0x6
 1057 0131 EC030000 		.4byte	.LASF25
 1058 0135 05       		.byte	0x5
 1059 0136 64       		.byte	0x64
 1060 0137 1C030000 		.4byte	0x31c
 1061 013b 02       		.byte	0x2
 1062 013c 23       		.byte	0x23
 1063 013d 0C       		.uleb128 0xc
 1064 013e 06       		.uleb128 0x6
 1065 013f D4000000 		.4byte	.LASF26
 1066 0143 05       		.byte	0x5
 1067 0144 66       		.byte	0x66
 1068 0145 44020000 		.4byte	0x244
 1069 0149 02       		.byte	0x2
 1070 014a 23       		.byte	0x23
 1071 014b 10       		.uleb128 0x10
 1072 014c 06       		.uleb128 0x6
 1073 014d 85020000 		.4byte	.LASF27
 1074 0151 05       		.byte	0x5
 1075 0152 67       		.byte	0x67
 1076 0153 44020000 		.4byte	0x244
 1077 0157 02       		.byte	0x2
 1078 0158 23       		.byte	0x23
 1079 0159 14       		.uleb128 0x14
 1080 015a 06       		.uleb128 0x6
 1081 015b DD030000 		.4byte	.LASF28
 1082 015f 05       		.byte	0x5
 1083 0160 6E       		.byte	0x6e
 1084 0161 6A040000 		.4byte	0x46a
 1085 0165 02       		.byte	0x2
 1086 0166 23       		.byte	0x23
 1087 0167 18       		.uleb128 0x18
 1088 0168 06       		.uleb128 0x6
 1089 0169 04010000 		.4byte	.LASF29
 1090 016d 05       		.byte	0x5
 1091 016e 74       		.byte	0x74
 1092 016f 7C040000 		.4byte	0x47c
 1093 0173 02       		.byte	0x2
 1094 0174 23       		.byte	0x23
 1095 0175 1C       		.uleb128 0x1c
 1096 0176 06       		.uleb128 0x6
 1097 0177 00030000 		.4byte	.LASF30
 1098 017b 05       		.byte	0x5
 1099 017c 79       		.byte	0x79
 1100 017d A2000000 		.4byte	0xa2
 1101 0181 02       		.byte	0x2
 1102 0182 23       		.byte	0x23
 1103 0183 20       		.uleb128 0x20
 1104 0184 06       		.uleb128 0x6
 1105 0185 16030000 		.4byte	.LASF31
 1106 0189 05       		.byte	0x5
 1107 018a 7D       		.byte	0x7d
 1108 018b 97000000 		.4byte	0x97
 1109 018f 02       		.byte	0x2
 1110 0190 23       		.byte	0x23
 1111 0191 21       		.uleb128 0x21
 1112 0192 06       		.uleb128 0x6
ARM GAS  /tmp/ccRGZgHL.s 			page 21


 1113 0193 BB030000 		.4byte	.LASF32
 1114 0197 05       		.byte	0x5
 1115 0198 82       		.byte	0x82
 1116 0199 AD000000 		.4byte	0xad
 1117 019d 02       		.byte	0x2
 1118 019e 23       		.byte	0x23
 1119 019f 22       		.uleb128 0x22
 1120 01a0 06       		.uleb128 0x6
 1121 01a1 75030000 		.4byte	.LASF33
 1122 01a5 05       		.byte	0x5
 1123 01a6 89       		.byte	0x89
 1124 01a7 46030000 		.4byte	0x346
 1125 01ab 02       		.byte	0x2
 1126 01ac 23       		.byte	0x23
 1127 01ad 24       		.uleb128 0x24
 1128 01ae 07       		.uleb128 0x7
 1129 01af 705F7500 		.ascii	"p_u\000"
 1130 01b3 05       		.byte	0x5
 1131 01b4 AE       		.byte	0xae
 1132 01b5 35040000 		.4byte	0x435
 1133 01b9 02       		.byte	0x2
 1134 01ba 23       		.byte	0x23
 1135 01bb 28       		.uleb128 0x28
 1136 01bc 06       		.uleb128 0x6
 1137 01bd F2030000 		.4byte	.LASF34
 1138 01c1 05       		.byte	0x5
 1139 01c2 B3       		.byte	0xb3
 1140 01c3 6C020000 		.4byte	0x26c
 1141 01c7 02       		.byte	0x2
 1142 01c8 23       		.byte	0x23
 1143 01c9 2C       		.uleb128 0x2c
 1144 01ca 06       		.uleb128 0x6
 1145 01cb 91030000 		.4byte	.LASF35
 1146 01cf 05       		.byte	0x5
 1147 01d0 B9       		.byte	0xb9
 1148 01d1 4A020000 		.4byte	0x24a
 1149 01d5 02       		.byte	0x2
 1150 01d6 23       		.byte	0x23
 1151 01d7 30       		.uleb128 0x30
 1152 01d8 06       		.uleb128 0x6
 1153 01d9 00000000 		.4byte	.LASF36
 1154 01dd 05       		.byte	0x5
 1155 01de BD       		.byte	0xbd
 1156 01df C3000000 		.4byte	0xc3
 1157 01e3 02       		.byte	0x2
 1158 01e4 23       		.byte	0x23
 1159 01e5 38       		.uleb128 0x38
 1160 01e6 06       		.uleb128 0x6
 1161 01e7 2E030000 		.4byte	.LASF37
 1162 01eb 05       		.byte	0x5
 1163 01ec C3       		.byte	0xc3
 1164 01ed CE000000 		.4byte	0xce
 1165 01f1 02       		.byte	0x2
 1166 01f2 23       		.byte	0x23
 1167 01f3 3C       		.uleb128 0x3c
 1168 01f4 06       		.uleb128 0x6
 1169 01f5 EC020000 		.4byte	.LASF38
ARM GAS  /tmp/ccRGZgHL.s 			page 22


 1170 01f9 05       		.byte	0x5
 1171 01fa CA       		.byte	0xca
 1172 01fb 82040000 		.4byte	0x482
 1173 01ff 02       		.byte	0x2
 1174 0200 23       		.byte	0x23
 1175 0201 40       		.uleb128 0x40
 1176 0202 06       		.uleb128 0x6
 1177 0203 6A030000 		.4byte	.LASF39
 1178 0207 05       		.byte	0x5
 1179 0208 CE       		.byte	0xce
 1180 0209 B8000000 		.4byte	0xb8
 1181 020d 02       		.byte	0x2
 1182 020e 23       		.byte	0x23
 1183 020f 44       		.uleb128 0x44
 1184 0210 06       		.uleb128 0x6
 1185 0211 B2000000 		.4byte	.LASF40
 1186 0215 05       		.byte	0x5
 1187 0216 D4       		.byte	0xd4
 1188 0217 82020000 		.4byte	0x282
 1189 021b 02       		.byte	0x2
 1190 021c 23       		.byte	0x23
 1191 021d 48       		.uleb128 0x48
 1192 021e 00       		.byte	0
 1193 021f 08       		.uleb128 0x8
 1194 0220 08       		.byte	0x8
 1195 0221 04       		.byte	0x4
 1196 0222 61       		.byte	0x61
 1197 0223 44020000 		.4byte	0x244
 1198 0227 06       		.uleb128 0x6
 1199 0228 0F030000 		.4byte	.LASF22
 1200 022c 04       		.byte	0x4
 1201 022d 62       		.byte	0x62
 1202 022e 44020000 		.4byte	0x244
 1203 0232 02       		.byte	0x2
 1204 0233 23       		.byte	0x23
 1205 0234 00       		.uleb128 0
 1206 0235 06       		.uleb128 0x6
 1207 0236 C0020000 		.4byte	.LASF23
 1208 023a 04       		.byte	0x4
 1209 023b 64       		.byte	0x64
 1210 023c 44020000 		.4byte	0x244
 1211 0240 02       		.byte	0x2
 1212 0241 23       		.byte	0x23
 1213 0242 04       		.uleb128 0x4
 1214 0243 00       		.byte	0
 1215 0244 09       		.uleb128 0x9
 1216 0245 04       		.byte	0x4
 1217 0246 EF000000 		.4byte	0xef
 1218 024a 04       		.uleb128 0x4
 1219 024b 8D020000 		.4byte	.LASF41
 1220 024f 04       		.byte	0x4
 1221 0250 66       		.byte	0x66
 1222 0251 1F020000 		.4byte	0x21f
 1223 0255 08       		.uleb128 0x8
 1224 0256 04       		.byte	0x4
 1225 0257 04       		.byte	0x4
 1226 0258 6B       		.byte	0x6b
ARM GAS  /tmp/ccRGZgHL.s 			page 23


 1227 0259 6C020000 		.4byte	0x26c
 1228 025d 06       		.uleb128 0x6
 1229 025e 0F030000 		.4byte	.LASF22
 1230 0262 04       		.byte	0x4
 1231 0263 6D       		.byte	0x6d
 1232 0264 44020000 		.4byte	0x244
 1233 0268 02       		.byte	0x2
 1234 0269 23       		.byte	0x23
 1235 026a 00       		.uleb128 0
 1236 026b 00       		.byte	0
 1237 026c 04       		.uleb128 0x4
 1238 026d 2A020000 		.4byte	.LASF42
 1239 0271 04       		.byte	0x4
 1240 0272 70       		.byte	0x70
 1241 0273 55020000 		.4byte	0x255
 1242 0277 04       		.uleb128 0x4
 1243 0278 F5000000 		.4byte	.LASF43
 1244 027c 06       		.byte	0x6
 1245 027d D7       		.byte	0xd7
 1246 027e 82020000 		.4byte	0x282
 1247 0282 0A       		.uleb128 0xa
 1248 0283 04       		.byte	0x4
 1249 0284 04       		.uleb128 0x4
 1250 0285 4D020000 		.4byte	.LASF44
 1251 0289 06       		.byte	0x6
 1252 028a DD       		.byte	0xdd
 1253 028b 85000000 		.4byte	0x85
 1254 028f 05       		.uleb128 0x5
 1255 0290 8A030000 		.4byte	.LASF45
 1256 0294 24       		.byte	0x24
 1257 0295 06       		.byte	0x6
 1258 0296 FE       		.byte	0xfe
 1259 0297 1C030000 		.4byte	0x31c
 1260 029b 0B       		.uleb128 0xb
 1261 029c 723400   		.ascii	"r4\000"
 1262 029f 06       		.byte	0x6
 1263 02a0 1101     		.2byte	0x111
 1264 02a2 77020000 		.4byte	0x277
 1265 02a6 02       		.byte	0x2
 1266 02a7 23       		.byte	0x23
 1267 02a8 00       		.uleb128 0
 1268 02a9 0B       		.uleb128 0xb
 1269 02aa 723500   		.ascii	"r5\000"
 1270 02ad 06       		.byte	0x6
 1271 02ae 1201     		.2byte	0x112
 1272 02b0 77020000 		.4byte	0x277
 1273 02b4 02       		.byte	0x2
 1274 02b5 23       		.byte	0x23
 1275 02b6 04       		.uleb128 0x4
 1276 02b7 0B       		.uleb128 0xb
 1277 02b8 723600   		.ascii	"r6\000"
 1278 02bb 06       		.byte	0x6
 1279 02bc 1301     		.2byte	0x113
 1280 02be 77020000 		.4byte	0x277
 1281 02c2 02       		.byte	0x2
 1282 02c3 23       		.byte	0x23
 1283 02c4 08       		.uleb128 0x8
ARM GAS  /tmp/ccRGZgHL.s 			page 24


 1284 02c5 0B       		.uleb128 0xb
 1285 02c6 723700   		.ascii	"r7\000"
 1286 02c9 06       		.byte	0x6
 1287 02ca 1401     		.2byte	0x114
 1288 02cc 77020000 		.4byte	0x277
 1289 02d0 02       		.byte	0x2
 1290 02d1 23       		.byte	0x23
 1291 02d2 0C       		.uleb128 0xc
 1292 02d3 0B       		.uleb128 0xb
 1293 02d4 723800   		.ascii	"r8\000"
 1294 02d7 06       		.byte	0x6
 1295 02d8 1501     		.2byte	0x115
 1296 02da 77020000 		.4byte	0x277
 1297 02de 02       		.byte	0x2
 1298 02df 23       		.byte	0x23
 1299 02e0 10       		.uleb128 0x10
 1300 02e1 0B       		.uleb128 0xb
 1301 02e2 723900   		.ascii	"r9\000"
 1302 02e5 06       		.byte	0x6
 1303 02e6 1601     		.2byte	0x116
 1304 02e8 77020000 		.4byte	0x277
 1305 02ec 02       		.byte	0x2
 1306 02ed 23       		.byte	0x23
 1307 02ee 14       		.uleb128 0x14
 1308 02ef 0B       		.uleb128 0xb
 1309 02f0 72313000 		.ascii	"r10\000"
 1310 02f4 06       		.byte	0x6
 1311 02f5 1701     		.2byte	0x117
 1312 02f7 77020000 		.4byte	0x277
 1313 02fb 02       		.byte	0x2
 1314 02fc 23       		.byte	0x23
 1315 02fd 18       		.uleb128 0x18
 1316 02fe 0B       		.uleb128 0xb
 1317 02ff 72313100 		.ascii	"r11\000"
 1318 0303 06       		.byte	0x6
 1319 0304 1801     		.2byte	0x118
 1320 0306 77020000 		.4byte	0x277
 1321 030a 02       		.byte	0x2
 1322 030b 23       		.byte	0x23
 1323 030c 1C       		.uleb128 0x1c
 1324 030d 0B       		.uleb128 0xb
 1325 030e 6C7200   		.ascii	"lr\000"
 1326 0311 06       		.byte	0x6
 1327 0312 1901     		.2byte	0x119
 1328 0314 77020000 		.4byte	0x277
 1329 0318 02       		.byte	0x2
 1330 0319 23       		.byte	0x23
 1331 031a 20       		.uleb128 0x20
 1332 031b 00       		.byte	0
 1333 031c 0C       		.uleb128 0xc
 1334 031d C9010000 		.4byte	.LASF46
 1335 0321 04       		.byte	0x4
 1336 0322 06       		.byte	0x6
 1337 0323 2301     		.2byte	0x123
 1338 0325 39030000 		.4byte	0x339
 1339 0329 0B       		.uleb128 0xb
 1340 032a 72313300 		.ascii	"r13\000"
ARM GAS  /tmp/ccRGZgHL.s 			page 25


 1341 032e 06       		.byte	0x6
 1342 032f 2401     		.2byte	0x124
 1343 0331 39030000 		.4byte	0x339
 1344 0335 02       		.byte	0x2
 1345 0336 23       		.byte	0x23
 1346 0337 00       		.uleb128 0
 1347 0338 00       		.byte	0
 1348 0339 09       		.uleb128 0x9
 1349 033a 04       		.byte	0x4
 1350 033b 8F020000 		.4byte	0x28f
 1351 033f 03       		.uleb128 0x3
 1352 0340 04       		.byte	0x4
 1353 0341 07       		.byte	0x7
 1354 0342 69020000 		.4byte	.LASF47
 1355 0346 0D       		.uleb128 0xd
 1356 0347 D9000000 		.4byte	0xd9
 1357 034b 05       		.uleb128 0x5
 1358 034c A6030000 		.4byte	.LASF48
 1359 0350 0C       		.byte	0xc
 1360 0351 07       		.byte	0x7
 1361 0352 2C       		.byte	0x2c
 1362 0353 74030000 		.4byte	0x374
 1363 0357 06       		.uleb128 0x6
 1364 0358 DC000000 		.4byte	.LASF49
 1365 035c 07       		.byte	0x7
 1366 035d 2D       		.byte	0x2d
 1367 035e 4A020000 		.4byte	0x24a
 1368 0362 02       		.byte	0x2
 1369 0363 23       		.byte	0x23
 1370 0364 00       		.uleb128 0
 1371 0365 06       		.uleb128 0x6
 1372 0366 C3010000 		.4byte	.LASF50
 1373 036a 07       		.byte	0x7
 1374 036b 2F       		.byte	0x2f
 1375 036c E4000000 		.4byte	0xe4
 1376 0370 02       		.byte	0x2
 1377 0371 23       		.byte	0x23
 1378 0372 08       		.uleb128 0x8
 1379 0373 00       		.byte	0
 1380 0374 04       		.uleb128 0x4
 1381 0375 A6030000 		.4byte	.LASF48
 1382 0379 07       		.byte	0x7
 1383 037a 30       		.byte	0x30
 1384 037b 4B030000 		.4byte	0x34b
 1385 037f 05       		.uleb128 0x5
 1386 0380 42020000 		.4byte	.LASF51
 1387 0384 10       		.byte	0x10
 1388 0385 08       		.byte	0x8
 1389 0386 2C       		.byte	0x2c
 1390 0387 B6030000 		.4byte	0x3b6
 1391 038b 06       		.uleb128 0x6
 1392 038c BA000000 		.4byte	.LASF52
 1393 0390 08       		.byte	0x8
 1394 0391 2D       		.byte	0x2d
 1395 0392 4A020000 		.4byte	0x24a
 1396 0396 02       		.byte	0x2
 1397 0397 23       		.byte	0x23
ARM GAS  /tmp/ccRGZgHL.s 			page 26


 1398 0398 00       		.uleb128 0
 1399 0399 06       		.uleb128 0x6
 1400 039a E4030000 		.4byte	.LASF53
 1401 039e 08       		.byte	0x8
 1402 039f 2F       		.byte	0x2f
 1403 03a0 44020000 		.4byte	0x244
 1404 03a4 02       		.byte	0x2
 1405 03a5 23       		.byte	0x23
 1406 03a6 08       		.uleb128 0x8
 1407 03a7 06       		.uleb128 0x6
 1408 03a8 59030000 		.4byte	.LASF54
 1409 03ac 08       		.byte	0x8
 1410 03ad 31       		.byte	0x31
 1411 03ae B6030000 		.4byte	0x3b6
 1412 03b2 02       		.byte	0x2
 1413 03b3 23       		.byte	0x23
 1414 03b4 0C       		.uleb128 0xc
 1415 03b5 00       		.byte	0
 1416 03b6 09       		.uleb128 0x9
 1417 03b7 04       		.byte	0x4
 1418 03b8 7F030000 		.4byte	0x37f
 1419 03bc 04       		.uleb128 0x4
 1420 03bd 42020000 		.4byte	.LASF51
 1421 03c1 08       		.byte	0x8
 1422 03c2 33       		.byte	0x33
 1423 03c3 7F030000 		.4byte	0x37f
 1424 03c7 08       		.uleb128 0x8
 1425 03c8 28       		.byte	0x28
 1426 03c9 09       		.byte	0x9
 1427 03ca 33       		.byte	0x33
 1428 03cb 24040000 		.4byte	0x424
 1429 03cf 06       		.uleb128 0x6
 1430 03d0 9A020000 		.4byte	.LASF55
 1431 03d4 09       		.byte	0x9
 1432 03d5 34       		.byte	0x34
 1433 03d6 24040000 		.4byte	0x424
 1434 03da 02       		.byte	0x2
 1435 03db 23       		.byte	0x23
 1436 03dc 00       		.uleb128 0
 1437 03dd 06       		.uleb128 0x6
 1438 03de E5020000 		.4byte	.LASF56
 1439 03e2 09       		.byte	0x9
 1440 03e3 36       		.byte	0x36
 1441 03e4 24040000 		.4byte	0x424
 1442 03e8 02       		.byte	0x2
 1443 03e9 23       		.byte	0x23
 1444 03ea 04       		.uleb128 0x4
 1445 03eb 06       		.uleb128 0x6
 1446 03ec 88000000 		.4byte	.LASF57
 1447 03f0 09       		.byte	0x9
 1448 03f1 38       		.byte	0x38
 1449 03f2 24040000 		.4byte	0x424
 1450 03f6 02       		.byte	0x2
 1451 03f7 23       		.byte	0x23
 1452 03f8 08       		.uleb128 0x8
 1453 03f9 06       		.uleb128 0x6
 1454 03fa 72020000 		.4byte	.LASF58
ARM GAS  /tmp/ccRGZgHL.s 			page 27


 1455 03fe 09       		.byte	0x9
 1456 03ff 39       		.byte	0x39
 1457 0400 24040000 		.4byte	0x424
 1458 0404 02       		.byte	0x2
 1459 0405 23       		.byte	0x23
 1460 0406 0C       		.uleb128 0xc
 1461 0407 06       		.uleb128 0x6
 1462 0408 B0030000 		.4byte	.LASF59
 1463 040c 09       		.byte	0x9
 1464 040d 3A       		.byte	0x3a
 1465 040e 74030000 		.4byte	0x374
 1466 0412 02       		.byte	0x2
 1467 0413 23       		.byte	0x23
 1468 0414 10       		.uleb128 0x10
 1469 0415 06       		.uleb128 0x6
 1470 0416 B7010000 		.4byte	.LASF60
 1471 041a 09       		.byte	0x9
 1472 041b 3C       		.byte	0x3c
 1473 041c 74030000 		.4byte	0x374
 1474 0420 02       		.byte	0x2
 1475 0421 23       		.byte	0x23
 1476 0422 1C       		.uleb128 0x1c
 1477 0423 00       		.byte	0
 1478 0424 09       		.uleb128 0x9
 1479 0425 04       		.byte	0x4
 1480 0426 C3000000 		.4byte	0xc3
 1481 042a 04       		.uleb128 0x4
 1482 042b 42000000 		.4byte	.LASF61
 1483 042f 09       		.byte	0x9
 1484 0430 3E       		.byte	0x3e
 1485 0431 C7030000 		.4byte	0x3c7
 1486 0435 0E       		.uleb128 0xe
 1487 0436 04       		.byte	0x4
 1488 0437 05       		.byte	0x5
 1489 0438 90       		.byte	0x90
 1490 0439 6A040000 		.4byte	0x46a
 1491 043d 0F       		.uleb128 0xf
 1492 043e 1E000000 		.4byte	.LASF62
 1493 0442 05       		.byte	0x5
 1494 0443 97       		.byte	0x97
 1495 0444 C3000000 		.4byte	0xc3
 1496 0448 0F       		.uleb128 0xf
 1497 0449 70000000 		.4byte	.LASF63
 1498 044d 05       		.byte	0x5
 1499 044e 9E       		.byte	0x9e
 1500 044f C3000000 		.4byte	0xc3
 1501 0453 0F       		.uleb128 0xf
 1502 0454 D6030000 		.4byte	.LASF64
 1503 0458 05       		.byte	0x5
 1504 0459 A5       		.byte	0xa5
 1505 045a 82020000 		.4byte	0x282
 1506 045e 0F       		.uleb128 0xf
 1507 045f 08030000 		.4byte	.LASF65
 1508 0463 05       		.byte	0x5
 1509 0464 AC       		.byte	0xac
 1510 0465 CE000000 		.4byte	0xce
 1511 0469 00       		.byte	0
ARM GAS  /tmp/ccRGZgHL.s 			page 28


 1512 046a 09       		.uleb128 0x9
 1513 046b 04       		.byte	0x4
 1514 046c 70040000 		.4byte	0x470
 1515 0470 10       		.uleb128 0x10
 1516 0471 75040000 		.4byte	0x475
 1517 0475 03       		.uleb128 0x3
 1518 0476 01       		.byte	0x1
 1519 0477 08       		.byte	0x8
 1520 0478 42030000 		.4byte	.LASF66
 1521 047c 09       		.uleb128 0x9
 1522 047d 04       		.byte	0x4
 1523 047e 84020000 		.4byte	0x284
 1524 0482 09       		.uleb128 0x9
 1525 0483 04       		.byte	0x4
 1526 0484 BC030000 		.4byte	0x3bc
 1527 0488 11       		.uleb128 0x11
 1528 0489 01       		.byte	0x1
 1529 048a 1C010000 		.4byte	.LASF67
 1530 048e 01       		.byte	0x1
 1531 048f 48       		.byte	0x48
 1532 0490 01       		.byte	0x1
 1533 0491 00000000 		.4byte	.LFB7
 1534 0495 40000000 		.4byte	.LFE7
 1535 0499 00000000 		.4byte	.LLST0
 1536 049d 01       		.byte	0x1
 1537 049e 15050000 		.4byte	0x515
 1538 04a2 12       		.uleb128 0x12
 1539 04a3 6D627000 		.ascii	"mbp\000"
 1540 04a7 01       		.byte	0x1
 1541 04a8 48       		.byte	0x48
 1542 04a9 15050000 		.4byte	0x515
 1543 04ad 20000000 		.4byte	.LLST1
 1544 04b1 12       		.uleb128 0x12
 1545 04b2 62756600 		.ascii	"buf\000"
 1546 04b6 01       		.byte	0x1
 1547 04b7 48       		.byte	0x48
 1548 04b8 24040000 		.4byte	0x424
 1549 04bc 54000000 		.4byte	.LLST2
 1550 04c0 12       		.uleb128 0x12
 1551 04c1 6E00     		.ascii	"n\000"
 1552 04c3 01       		.byte	0x1
 1553 04c4 48       		.byte	0x48
 1554 04c5 E4000000 		.4byte	0xe4
 1555 04c9 88000000 		.4byte	.LLST3
 1556 04cd 13       		.uleb128 0x13
 1557 04ce 26000000 		.4byte	.LVL2
 1558 04d2 860B0000 		.4byte	0xb86
 1559 04d6 E7040000 		.4byte	0x4e7
 1560 04da 14       		.uleb128 0x14
 1561 04db 01       		.byte	0x1
 1562 04dc 51       		.byte	0x51
 1563 04dd 02       		.byte	0x2
 1564 04de 76       		.byte	0x76
 1565 04df 00       		.sleb128 0
 1566 04e0 14       		.uleb128 0x14
 1567 04e1 01       		.byte	0x1
 1568 04e2 50       		.byte	0x50
ARM GAS  /tmp/ccRGZgHL.s 			page 29


 1569 04e3 02       		.byte	0x2
 1570 04e4 74       		.byte	0x74
 1571 04e5 1C       		.sleb128 28
 1572 04e6 00       		.byte	0
 1573 04e7 15       		.uleb128 0x15
 1574 04e8 34000000 		.4byte	.LVL3
 1575 04ec 01       		.byte	0x1
 1576 04ed 860B0000 		.4byte	0xb86
 1577 04f1 01050000 		.4byte	0x501
 1578 04f5 14       		.uleb128 0x14
 1579 04f6 01       		.byte	0x1
 1580 04f7 51       		.byte	0x51
 1581 04f8 01       		.byte	0x1
 1582 04f9 30       		.byte	0x30
 1583 04fa 14       		.uleb128 0x14
 1584 04fb 01       		.byte	0x1
 1585 04fc 50       		.byte	0x50
 1586 04fd 02       		.byte	0x2
 1587 04fe 74       		.byte	0x74
 1588 04ff 10       		.sleb128 16
 1589 0500 00       		.byte	0
 1590 0501 16       		.uleb128 0x16
 1591 0502 3A000000 		.4byte	.LVL5
 1592 0506 A50B0000 		.4byte	0xba5
 1593 050a 14       		.uleb128 0x14
 1594 050b 01       		.byte	0x1
 1595 050c 50       		.byte	0x50
 1596 050d 05       		.byte	0x5
 1597 050e 03       		.byte	0x3
 1598 050f 00000000 		.4byte	.LC0
 1599 0513 00       		.byte	0
 1600 0514 00       		.byte	0
 1601 0515 09       		.uleb128 0x9
 1602 0516 04       		.byte	0x4
 1603 0517 2A040000 		.4byte	0x42a
 1604 051b 11       		.uleb128 0x11
 1605 051c 01       		.byte	0x1
 1606 051d 7B020000 		.4byte	.LASF68
 1607 0521 01       		.byte	0x1
 1608 0522 5B       		.byte	0x5b
 1609 0523 01       		.byte	0x1
 1610 0524 00000000 		.4byte	.LFB8
 1611 0528 4C000000 		.4byte	.LFE8
 1612 052c BC000000 		.4byte	.LLST4
 1613 0530 01       		.byte	0x1
 1614 0531 DA050000 		.4byte	0x5da
 1615 0535 12       		.uleb128 0x12
 1616 0536 6D627000 		.ascii	"mbp\000"
 1617 053a 01       		.byte	0x1
 1618 053b 5B       		.byte	0x5b
 1619 053c 15050000 		.4byte	0x515
 1620 0540 DC000000 		.4byte	.LLST5
 1621 0544 17       		.uleb128 0x17
 1622 0545 06000000 		.4byte	.LBB2
 1623 0549 0C000000 		.4byte	.LBE2
 1624 054d 61050000 		.4byte	0x561
 1625 0551 18       		.uleb128 0x18
ARM GAS  /tmp/ccRGZgHL.s 			page 30


 1626 0552 746D7000 		.ascii	"tmp\000"
 1627 0556 01       		.byte	0x1
 1628 0557 5F       		.byte	0x5f
 1629 0558 6C000000 		.4byte	0x6c
 1630 055c 10010000 		.4byte	.LLST6
 1631 0560 00       		.byte	0
 1632 0561 17       		.uleb128 0x17
 1633 0562 36000000 		.4byte	.LBB3
 1634 0566 3E000000 		.4byte	.LBE3
 1635 056a 7E050000 		.4byte	0x57e
 1636 056e 18       		.uleb128 0x18
 1637 056f 746D7000 		.ascii	"tmp\000"
 1638 0573 01       		.byte	0x1
 1639 0574 64       		.byte	0x64
 1640 0575 6C000000 		.4byte	0x6c
 1641 0579 23010000 		.4byte	.LLST7
 1642 057d 00       		.byte	0
 1643 057e 19       		.uleb128 0x19
 1644 057f 10000000 		.4byte	.LVL10
 1645 0583 BF0B0000 		.4byte	0xbbf
 1646 0587 13       		.uleb128 0x13
 1647 0588 24000000 		.4byte	.LVL11
 1648 058c C90B0000 		.4byte	0xbc9
 1649 0590 9B050000 		.4byte	0x59b
 1650 0594 14       		.uleb128 0x14
 1651 0595 01       		.byte	0x1
 1652 0596 50       		.byte	0x50
 1653 0597 02       		.byte	0x2
 1654 0598 74       		.byte	0x74
 1655 0599 1C       		.sleb128 28
 1656 059a 00       		.byte	0
 1657 059b 13       		.uleb128 0x13
 1658 059c 2E000000 		.4byte	.LVL12
 1659 05a0 C90B0000 		.4byte	0xbc9
 1660 05a4 B4050000 		.4byte	0x5b4
 1661 05a8 14       		.uleb128 0x14
 1662 05a9 01       		.byte	0x1
 1663 05aa 51       		.byte	0x51
 1664 05ab 01       		.byte	0x1
 1665 05ac 30       		.byte	0x30
 1666 05ad 14       		.uleb128 0x14
 1667 05ae 01       		.byte	0x1
 1668 05af 50       		.byte	0x50
 1669 05b0 02       		.byte	0x2
 1670 05b1 74       		.byte	0x74
 1671 05b2 10       		.sleb128 16
 1672 05b3 00       		.byte	0
 1673 05b4 19       		.uleb128 0x19
 1674 05b5 32000000 		.4byte	.LVL13
 1675 05b9 E20B0000 		.4byte	0xbe2
 1676 05bd 19       		.uleb128 0x19
 1677 05be 36000000 		.4byte	.LVL14
 1678 05c2 EC0B0000 		.4byte	0xbec
 1679 05c6 16       		.uleb128 0x16
 1680 05c7 44000000 		.4byte	.LVL19
 1681 05cb A50B0000 		.4byte	0xba5
 1682 05cf 14       		.uleb128 0x14
ARM GAS  /tmp/ccRGZgHL.s 			page 31


 1683 05d0 01       		.byte	0x1
 1684 05d1 50       		.byte	0x50
 1685 05d2 05       		.byte	0x5
 1686 05d3 03       		.byte	0x3
 1687 05d4 10000000 		.4byte	.LC1
 1688 05d8 00       		.byte	0
 1689 05d9 00       		.byte	0
 1690 05da 1A       		.uleb128 0x1a
 1691 05db 01       		.byte	0x1
 1692 05dc 38000000 		.4byte	.LASF70
 1693 05e0 01       		.byte	0x1
 1694 05e1 96       		.byte	0x96
 1695 05e2 01       		.byte	0x1
 1696 05e3 C3000000 		.4byte	0xc3
 1697 05e7 00000000 		.4byte	.LFB10
 1698 05eb 4C000000 		.4byte	.LFE10
 1699 05ef 36010000 		.4byte	.LLST8
 1700 05f3 01       		.byte	0x1
 1701 05f4 88060000 		.4byte	0x688
 1702 05f8 12       		.uleb128 0x12
 1703 05f9 6D627000 		.ascii	"mbp\000"
 1704 05fd 01       		.byte	0x1
 1705 05fe 96       		.byte	0x96
 1706 05ff 15050000 		.4byte	0x515
 1707 0603 56010000 		.4byte	.LLST9
 1708 0607 12       		.uleb128 0x12
 1709 0608 6D736700 		.ascii	"msg\000"
 1710 060c 01       		.byte	0x1
 1711 060d 96       		.byte	0x96
 1712 060e C3000000 		.4byte	0xc3
 1713 0612 74010000 		.4byte	.LLST10
 1714 0616 1B       		.uleb128 0x1b
 1715 0617 A4020000 		.4byte	.LASF69
 1716 061b 01       		.byte	0x1
 1717 061c 96       		.byte	0x96
 1718 061d D9000000 		.4byte	0xd9
 1719 0621 92010000 		.4byte	.LLST11
 1720 0625 1C       		.uleb128 0x1c
 1721 0626 1E000000 		.4byte	.LASF62
 1722 062a 01       		.byte	0x1
 1723 062b 97       		.byte	0x97
 1724 062c C3000000 		.4byte	0xc3
 1725 0630 C9010000 		.4byte	.LLST12
 1726 0634 19       		.uleb128 0x19
 1727 0635 0C000000 		.4byte	.LVL21
 1728 0639 F60B0000 		.4byte	0xbf6
 1729 063d 13       		.uleb128 0x13
 1730 063e 18000000 		.4byte	.LVL22
 1731 0642 000C0000 		.4byte	0xc00
 1732 0646 57060000 		.4byte	0x657
 1733 064a 14       		.uleb128 0x14
 1734 064b 01       		.byte	0x1
 1735 064c 51       		.byte	0x51
 1736 064d 02       		.byte	0x2
 1737 064e 75       		.byte	0x75
 1738 064f 00       		.sleb128 0
 1739 0650 14       		.uleb128 0x14
ARM GAS  /tmp/ccRGZgHL.s 			page 32


 1740 0651 01       		.byte	0x1
 1741 0652 50       		.byte	0x50
 1742 0653 02       		.byte	0x2
 1743 0654 74       		.byte	0x74
 1744 0655 1C       		.sleb128 28
 1745 0656 00       		.byte	0
 1746 0657 13       		.uleb128 0x13
 1747 0658 38000000 		.4byte	.LVL25
 1748 065c 1D0C0000 		.4byte	0xc1d
 1749 0660 6B060000 		.4byte	0x66b
 1750 0664 14       		.uleb128 0x14
 1751 0665 01       		.byte	0x1
 1752 0666 50       		.byte	0x50
 1753 0667 02       		.byte	0x2
 1754 0668 74       		.byte	0x74
 1755 0669 10       		.sleb128 16
 1756 066a 00       		.byte	0
 1757 066b 19       		.uleb128 0x19
 1758 066c 3C000000 		.4byte	.LVL26
 1759 0670 E20B0000 		.4byte	0xbe2
 1760 0674 16       		.uleb128 0x16
 1761 0675 46000000 		.4byte	.LVL28
 1762 0679 A50B0000 		.4byte	0xba5
 1763 067d 14       		.uleb128 0x14
 1764 067e 01       		.byte	0x1
 1765 067f 50       		.byte	0x50
 1766 0680 05       		.byte	0x5
 1767 0681 03       		.byte	0x3
 1768 0682 20000000 		.4byte	.LC2
 1769 0686 00       		.byte	0
 1770 0687 00       		.byte	0
 1771 0688 1A       		.uleb128 0x1a
 1772 0689 01       		.byte	0x1
 1773 068a 1E030000 		.4byte	.LASF71
 1774 068e 01       		.byte	0x1
 1775 068f 7A       		.byte	0x7a
 1776 0690 01       		.byte	0x1
 1777 0691 C3000000 		.4byte	0xc3
 1778 0695 00000000 		.4byte	.LFB9
 1779 0699 2C000000 		.4byte	.LFE9
 1780 069d E7010000 		.4byte	.LLST13
 1781 06a1 01       		.byte	0x1
 1782 06a2 4B070000 		.4byte	0x74b
 1783 06a6 12       		.uleb128 0x12
 1784 06a7 6D627000 		.ascii	"mbp\000"
 1785 06ab 01       		.byte	0x1
 1786 06ac 7A       		.byte	0x7a
 1787 06ad 15050000 		.4byte	0x515
 1788 06b1 07020000 		.4byte	.LLST14
 1789 06b5 12       		.uleb128 0x12
 1790 06b6 6D736700 		.ascii	"msg\000"
 1791 06ba 01       		.byte	0x1
 1792 06bb 7A       		.byte	0x7a
 1793 06bc C3000000 		.4byte	0xc3
 1794 06c0 25020000 		.4byte	.LLST15
 1795 06c4 1B       		.uleb128 0x1b
 1796 06c5 A4020000 		.4byte	.LASF69
ARM GAS  /tmp/ccRGZgHL.s 			page 33


 1797 06c9 01       		.byte	0x1
 1798 06ca 7A       		.byte	0x7a
 1799 06cb D9000000 		.4byte	0xd9
 1800 06cf 43020000 		.4byte	.LLST16
 1801 06d3 1C       		.uleb128 0x1c
 1802 06d4 1E000000 		.4byte	.LASF62
 1803 06d8 01       		.byte	0x1
 1804 06d9 7B       		.byte	0x7b
 1805 06da C3000000 		.4byte	0xc3
 1806 06de 6F020000 		.4byte	.LLST17
 1807 06e2 1D       		.uleb128 0x1d
 1808 06e3 00000000 		.4byte	.Ldebug_ranges0+0
 1809 06e7 FB060000 		.4byte	0x6fb
 1810 06eb 18       		.uleb128 0x18
 1811 06ec 746D7000 		.ascii	"tmp\000"
 1812 06f0 01       		.byte	0x1
 1813 06f1 7D       		.byte	0x7d
 1814 06f2 6C000000 		.4byte	0x6c
 1815 06f6 8D020000 		.4byte	.LLST18
 1816 06fa 00       		.byte	0
 1817 06fb 17       		.uleb128 0x17
 1818 06fc 22000000 		.4byte	.LBB6
 1819 0700 28000000 		.4byte	.LBE6
 1820 0704 18070000 		.4byte	0x718
 1821 0708 18       		.uleb128 0x18
 1822 0709 746D7000 		.ascii	"tmp\000"
 1823 070d 01       		.byte	0x1
 1824 070e 7F       		.byte	0x7f
 1825 070f 6C000000 		.4byte	0x6c
 1826 0713 A0020000 		.4byte	.LLST19
 1827 0717 00       		.byte	0
 1828 0718 19       		.uleb128 0x19
 1829 0719 12000000 		.4byte	.LVL32
 1830 071d BF0B0000 		.4byte	0xbbf
 1831 0721 13       		.uleb128 0x13
 1832 0722 1C000000 		.4byte	.LVL33
 1833 0726 DA050000 		.4byte	0x5da
 1834 072a 41070000 		.4byte	0x741
 1835 072e 14       		.uleb128 0x14
 1836 072f 01       		.byte	0x1
 1837 0730 52       		.byte	0x52
 1838 0731 02       		.byte	0x2
 1839 0732 74       		.byte	0x74
 1840 0733 00       		.sleb128 0
 1841 0734 14       		.uleb128 0x14
 1842 0735 01       		.byte	0x1
 1843 0736 51       		.byte	0x51
 1844 0737 02       		.byte	0x2
 1845 0738 75       		.byte	0x75
 1846 0739 00       		.sleb128 0
 1847 073a 14       		.uleb128 0x14
 1848 073b 01       		.byte	0x1
 1849 073c 50       		.byte	0x50
 1850 073d 02       		.byte	0x2
 1851 073e 76       		.byte	0x76
 1852 073f 00       		.sleb128 0
 1853 0740 00       		.byte	0
ARM GAS  /tmp/ccRGZgHL.s 			page 34


 1854 0741 19       		.uleb128 0x19
 1855 0742 22000000 		.4byte	.LVL35
 1856 0746 EC0B0000 		.4byte	0xbec
 1857 074a 00       		.byte	0
 1858 074b 1A       		.uleb128 0x1a
 1859 074c 01       		.byte	0x1
 1860 074d 2E000000 		.4byte	.LASF72
 1861 0751 01       		.byte	0x1
 1862 0752 B5       		.byte	0xb5
 1863 0753 01       		.byte	0x1
 1864 0754 C3000000 		.4byte	0xc3
 1865 0758 00000000 		.4byte	.LFB11
 1866 075c 48000000 		.4byte	.LFE11
 1867 0760 B3020000 		.4byte	.LLST20
 1868 0764 01       		.byte	0x1
 1869 0765 B8070000 		.4byte	0x7b8
 1870 0769 12       		.uleb128 0x12
 1871 076a 6D627000 		.ascii	"mbp\000"
 1872 076e 01       		.byte	0x1
 1873 076f B5       		.byte	0xb5
 1874 0770 15050000 		.4byte	0x515
 1875 0774 D3020000 		.4byte	.LLST21
 1876 0778 12       		.uleb128 0x12
 1877 0779 6D736700 		.ascii	"msg\000"
 1878 077d 01       		.byte	0x1
 1879 077e B5       		.byte	0xb5
 1880 077f C3000000 		.4byte	0xc3
 1881 0783 F1020000 		.4byte	.LLST22
 1882 0787 19       		.uleb128 0x19
 1883 0788 0A000000 		.4byte	.LVL39
 1884 078c 310C0000 		.4byte	0xc31
 1885 0790 13       		.uleb128 0x13
 1886 0791 32000000 		.4byte	.LVL40
 1887 0795 1D0C0000 		.4byte	0xc1d
 1888 0799 A4070000 		.4byte	0x7a4
 1889 079d 14       		.uleb128 0x14
 1890 079e 01       		.byte	0x1
 1891 079f 50       		.byte	0x50
 1892 07a0 02       		.byte	0x2
 1893 07a1 74       		.byte	0x74
 1894 07a2 10       		.sleb128 16
 1895 07a3 00       		.byte	0
 1896 07a4 16       		.uleb128 0x16
 1897 07a5 3C000000 		.4byte	.LVL41
 1898 07a9 A50B0000 		.4byte	0xba5
 1899 07ad 14       		.uleb128 0x14
 1900 07ae 01       		.byte	0x1
 1901 07af 50       		.byte	0x50
 1902 07b0 05       		.byte	0x5
 1903 07b1 03       		.byte	0x3
 1904 07b2 30000000 		.4byte	.LC3
 1905 07b6 00       		.byte	0
 1906 07b7 00       		.byte	0
 1907 07b8 1A       		.uleb128 0x1a
 1908 07b9 01       		.byte	0x1
 1909 07ba 79000000 		.4byte	.LASF73
 1910 07be 01       		.byte	0x1
ARM GAS  /tmp/ccRGZgHL.s 			page 35


 1911 07bf F3       		.byte	0xf3
 1912 07c0 01       		.byte	0x1
 1913 07c1 C3000000 		.4byte	0xc3
 1914 07c5 00000000 		.4byte	.LFB13
 1915 07c9 50000000 		.4byte	.LFE13
 1916 07cd 0F030000 		.4byte	.LLST23
 1917 07d1 01       		.byte	0x1
 1918 07d2 66080000 		.4byte	0x866
 1919 07d6 12       		.uleb128 0x12
 1920 07d7 6D627000 		.ascii	"mbp\000"
 1921 07db 01       		.byte	0x1
 1922 07dc F3       		.byte	0xf3
 1923 07dd 15050000 		.4byte	0x515
 1924 07e1 2F030000 		.4byte	.LLST24
 1925 07e5 12       		.uleb128 0x12
 1926 07e6 6D736700 		.ascii	"msg\000"
 1927 07ea 01       		.byte	0x1
 1928 07eb F3       		.byte	0xf3
 1929 07ec C3000000 		.4byte	0xc3
 1930 07f0 4D030000 		.4byte	.LLST25
 1931 07f4 1B       		.uleb128 0x1b
 1932 07f5 A4020000 		.4byte	.LASF69
 1933 07f9 01       		.byte	0x1
 1934 07fa F3       		.byte	0xf3
 1935 07fb D9000000 		.4byte	0xd9
 1936 07ff 6B030000 		.4byte	.LLST26
 1937 0803 1C       		.uleb128 0x1c
 1938 0804 1E000000 		.4byte	.LASF62
 1939 0808 01       		.byte	0x1
 1940 0809 F4       		.byte	0xf4
 1941 080a C3000000 		.4byte	0xc3
 1942 080e A2030000 		.4byte	.LLST27
 1943 0812 19       		.uleb128 0x19
 1944 0813 0C000000 		.4byte	.LVL43
 1945 0817 F60B0000 		.4byte	0xbf6
 1946 081b 13       		.uleb128 0x13
 1947 081c 18000000 		.4byte	.LVL44
 1948 0820 000C0000 		.4byte	0xc00
 1949 0824 35080000 		.4byte	0x835
 1950 0828 14       		.uleb128 0x14
 1951 0829 01       		.byte	0x1
 1952 082a 51       		.byte	0x51
 1953 082b 02       		.byte	0x2
 1954 082c 75       		.byte	0x75
 1955 082d 00       		.sleb128 0
 1956 082e 14       		.uleb128 0x14
 1957 082f 01       		.byte	0x1
 1958 0830 50       		.byte	0x50
 1959 0831 02       		.byte	0x2
 1960 0832 74       		.byte	0x74
 1961 0833 1C       		.sleb128 28
 1962 0834 00       		.byte	0
 1963 0835 13       		.uleb128 0x13
 1964 0836 32000000 		.4byte	.LVL47
 1965 083a 1D0C0000 		.4byte	0xc1d
 1966 083e 49080000 		.4byte	0x849
 1967 0842 14       		.uleb128 0x14
ARM GAS  /tmp/ccRGZgHL.s 			page 36


 1968 0843 01       		.byte	0x1
 1969 0844 50       		.byte	0x50
 1970 0845 02       		.byte	0x2
 1971 0846 74       		.byte	0x74
 1972 0847 10       		.sleb128 16
 1973 0848 00       		.byte	0
 1974 0849 19       		.uleb128 0x19
 1975 084a 36000000 		.4byte	.LVL48
 1976 084e E20B0000 		.4byte	0xbe2
 1977 0852 16       		.uleb128 0x16
 1978 0853 48000000 		.4byte	.LVL52
 1979 0857 A50B0000 		.4byte	0xba5
 1980 085b 14       		.uleb128 0x14
 1981 085c 01       		.byte	0x1
 1982 085d 50       		.byte	0x50
 1983 085e 05       		.byte	0x5
 1984 085f 03       		.byte	0x3
 1985 0860 40000000 		.4byte	.LC4
 1986 0864 00       		.byte	0
 1987 0865 00       		.byte	0
 1988 0866 1A       		.uleb128 0x1a
 1989 0867 01       		.byte	0x1
 1990 0868 7C030000 		.4byte	.LASF74
 1991 086c 01       		.byte	0x1
 1992 086d D7       		.byte	0xd7
 1993 086e 01       		.byte	0x1
 1994 086f C3000000 		.4byte	0xc3
 1995 0873 00000000 		.4byte	.LFB12
 1996 0877 2C000000 		.4byte	.LFE12
 1997 087b D6030000 		.4byte	.LLST28
 1998 087f 01       		.byte	0x1
 1999 0880 29090000 		.4byte	0x929
 2000 0884 12       		.uleb128 0x12
 2001 0885 6D627000 		.ascii	"mbp\000"
 2002 0889 01       		.byte	0x1
 2003 088a D7       		.byte	0xd7
 2004 088b 15050000 		.4byte	0x515
 2005 088f F6030000 		.4byte	.LLST29
 2006 0893 12       		.uleb128 0x12
 2007 0894 6D736700 		.ascii	"msg\000"
 2008 0898 01       		.byte	0x1
 2009 0899 D7       		.byte	0xd7
 2010 089a C3000000 		.4byte	0xc3
 2011 089e 14040000 		.4byte	.LLST30
 2012 08a2 1B       		.uleb128 0x1b
 2013 08a3 A4020000 		.4byte	.LASF69
 2014 08a7 01       		.byte	0x1
 2015 08a8 D7       		.byte	0xd7
 2016 08a9 D9000000 		.4byte	0xd9
 2017 08ad 32040000 		.4byte	.LLST31
 2018 08b1 1C       		.uleb128 0x1c
 2019 08b2 1E000000 		.4byte	.LASF62
 2020 08b6 01       		.byte	0x1
 2021 08b7 D8       		.byte	0xd8
 2022 08b8 C3000000 		.4byte	0xc3
 2023 08bc 5E040000 		.4byte	.LLST32
 2024 08c0 1D       		.uleb128 0x1d
ARM GAS  /tmp/ccRGZgHL.s 			page 37


 2025 08c1 18000000 		.4byte	.Ldebug_ranges0+0x18
 2026 08c5 D9080000 		.4byte	0x8d9
 2027 08c9 18       		.uleb128 0x18
 2028 08ca 746D7000 		.ascii	"tmp\000"
 2029 08ce 01       		.byte	0x1
 2030 08cf DA       		.byte	0xda
 2031 08d0 6C000000 		.4byte	0x6c
 2032 08d4 7C040000 		.4byte	.LLST33
 2033 08d8 00       		.byte	0
 2034 08d9 17       		.uleb128 0x17
 2035 08da 22000000 		.4byte	.LBB9
 2036 08de 28000000 		.4byte	.LBE9
 2037 08e2 F6080000 		.4byte	0x8f6
 2038 08e6 18       		.uleb128 0x18
 2039 08e7 746D7000 		.ascii	"tmp\000"
 2040 08eb 01       		.byte	0x1
 2041 08ec DC       		.byte	0xdc
 2042 08ed 6C000000 		.4byte	0x6c
 2043 08f1 8F040000 		.4byte	.LLST34
 2044 08f5 00       		.byte	0
 2045 08f6 19       		.uleb128 0x19
 2046 08f7 12000000 		.4byte	.LVL56
 2047 08fb BF0B0000 		.4byte	0xbbf
 2048 08ff 13       		.uleb128 0x13
 2049 0900 1C000000 		.4byte	.LVL57
 2050 0904 B8070000 		.4byte	0x7b8
 2051 0908 1F090000 		.4byte	0x91f
 2052 090c 14       		.uleb128 0x14
 2053 090d 01       		.byte	0x1
 2054 090e 52       		.byte	0x52
 2055 090f 02       		.byte	0x2
 2056 0910 74       		.byte	0x74
 2057 0911 00       		.sleb128 0
 2058 0912 14       		.uleb128 0x14
 2059 0913 01       		.byte	0x1
 2060 0914 51       		.byte	0x51
 2061 0915 02       		.byte	0x2
 2062 0916 75       		.byte	0x75
 2063 0917 00       		.sleb128 0
 2064 0918 14       		.uleb128 0x14
 2065 0919 01       		.byte	0x1
 2066 091a 50       		.byte	0x50
 2067 091b 02       		.byte	0x2
 2068 091c 76       		.byte	0x76
 2069 091d 00       		.sleb128 0
 2070 091e 00       		.byte	0
 2071 091f 19       		.uleb128 0x19
 2072 0920 22000000 		.4byte	.LVL59
 2073 0924 EC0B0000 		.4byte	0xbec
 2074 0928 00       		.byte	0
 2075 0929 1E       		.uleb128 0x1e
 2076 092a 01       		.byte	0x1
 2077 092b 4A000000 		.4byte	.LASF75
 2078 092f 01       		.byte	0x1
 2079 0930 1201     		.2byte	0x112
 2080 0932 01       		.byte	0x1
 2081 0933 C3000000 		.4byte	0xc3
ARM GAS  /tmp/ccRGZgHL.s 			page 38


 2082 0937 00000000 		.4byte	.LFB14
 2083 093b 48000000 		.4byte	.LFE14
 2084 093f A2040000 		.4byte	.LLST35
 2085 0943 01       		.byte	0x1
 2086 0944 99090000 		.4byte	0x999
 2087 0948 1F       		.uleb128 0x1f
 2088 0949 6D627000 		.ascii	"mbp\000"
 2089 094d 01       		.byte	0x1
 2090 094e 1201     		.2byte	0x112
 2091 0950 15050000 		.4byte	0x515
 2092 0954 C2040000 		.4byte	.LLST36
 2093 0958 1F       		.uleb128 0x1f
 2094 0959 6D736700 		.ascii	"msg\000"
 2095 095d 01       		.byte	0x1
 2096 095e 1201     		.2byte	0x112
 2097 0960 C3000000 		.4byte	0xc3
 2098 0964 E0040000 		.4byte	.LLST37
 2099 0968 19       		.uleb128 0x19
 2100 0969 0A000000 		.4byte	.LVL63
 2101 096d 310C0000 		.4byte	0xc31
 2102 0971 13       		.uleb128 0x13
 2103 0972 32000000 		.4byte	.LVL64
 2104 0976 1D0C0000 		.4byte	0xc1d
 2105 097a 85090000 		.4byte	0x985
 2106 097e 14       		.uleb128 0x14
 2107 097f 01       		.byte	0x1
 2108 0980 50       		.byte	0x50
 2109 0981 02       		.byte	0x2
 2110 0982 74       		.byte	0x74
 2111 0983 10       		.sleb128 16
 2112 0984 00       		.byte	0
 2113 0985 16       		.uleb128 0x16
 2114 0986 3C000000 		.4byte	.LVL65
 2115 098a A50B0000 		.4byte	0xba5
 2116 098e 14       		.uleb128 0x14
 2117 098f 01       		.byte	0x1
 2118 0990 50       		.byte	0x50
 2119 0991 05       		.byte	0x5
 2120 0992 03       		.byte	0x3
 2121 0993 54000000 		.4byte	.LC5
 2122 0997 00       		.byte	0
 2123 0998 00       		.byte	0
 2124 0999 1E       		.uleb128 0x1e
 2125 099a 01       		.byte	0x1
 2126 099b 06020000 		.4byte	.LASF76
 2127 099f 01       		.byte	0x1
 2128 09a0 5001     		.2byte	0x150
 2129 09a2 01       		.byte	0x1
 2130 09a3 C3000000 		.4byte	0xc3
 2131 09a7 00000000 		.4byte	.LFB16
 2132 09ab 50000000 		.4byte	.LFE16
 2133 09af FE040000 		.4byte	.LLST38
 2134 09b3 01       		.byte	0x1
 2135 09b4 4C0A0000 		.4byte	0xa4c
 2136 09b8 1F       		.uleb128 0x1f
 2137 09b9 6D627000 		.ascii	"mbp\000"
 2138 09bd 01       		.byte	0x1
ARM GAS  /tmp/ccRGZgHL.s 			page 39


 2139 09be 5001     		.2byte	0x150
 2140 09c0 15050000 		.4byte	0x515
 2141 09c4 1E050000 		.4byte	.LLST39
 2142 09c8 20       		.uleb128 0x20
 2143 09c9 48020000 		.4byte	.LASF77
 2144 09cd 01       		.byte	0x1
 2145 09ce 5001     		.2byte	0x150
 2146 09d0 24040000 		.4byte	0x424
 2147 09d4 3C050000 		.4byte	.LLST40
 2148 09d8 20       		.uleb128 0x20
 2149 09d9 A4020000 		.4byte	.LASF69
 2150 09dd 01       		.byte	0x1
 2151 09de 5001     		.2byte	0x150
 2152 09e0 D9000000 		.4byte	0xd9
 2153 09e4 5A050000 		.4byte	.LLST41
 2154 09e8 21       		.uleb128 0x21
 2155 09e9 1E000000 		.4byte	.LASF62
 2156 09ed 01       		.byte	0x1
 2157 09ee 5101     		.2byte	0x151
 2158 09f0 C3000000 		.4byte	0xc3
 2159 09f4 91050000 		.4byte	.LLST42
 2160 09f8 19       		.uleb128 0x19
 2161 09f9 0C000000 		.4byte	.LVL67
 2162 09fd F60B0000 		.4byte	0xbf6
 2163 0a01 13       		.uleb128 0x13
 2164 0a02 1A000000 		.4byte	.LVL68
 2165 0a06 000C0000 		.4byte	0xc00
 2166 0a0a 1B0A0000 		.4byte	0xa1b
 2167 0a0e 14       		.uleb128 0x14
 2168 0a0f 01       		.byte	0x1
 2169 0a10 51       		.byte	0x51
 2170 0a11 02       		.byte	0x2
 2171 0a12 75       		.byte	0x75
 2172 0a13 00       		.sleb128 0
 2173 0a14 14       		.uleb128 0x14
 2174 0a15 01       		.byte	0x1
 2175 0a16 50       		.byte	0x50
 2176 0a17 02       		.byte	0x2
 2177 0a18 74       		.byte	0x74
 2178 0a19 10       		.sleb128 16
 2179 0a1a 00       		.byte	0
 2180 0a1b 13       		.uleb128 0x13
 2181 0a1c 3A000000 		.4byte	.LVL71
 2182 0a20 1D0C0000 		.4byte	0xc1d
 2183 0a24 2F0A0000 		.4byte	0xa2f
 2184 0a28 14       		.uleb128 0x14
 2185 0a29 01       		.byte	0x1
 2186 0a2a 50       		.byte	0x50
 2187 0a2b 02       		.byte	0x2
 2188 0a2c 74       		.byte	0x74
 2189 0a2d 1C       		.sleb128 28
 2190 0a2e 00       		.byte	0
 2191 0a2f 19       		.uleb128 0x19
 2192 0a30 3E000000 		.4byte	.LVL72
 2193 0a34 E20B0000 		.4byte	0xbe2
 2194 0a38 16       		.uleb128 0x16
 2195 0a39 48000000 		.4byte	.LVL74
ARM GAS  /tmp/ccRGZgHL.s 			page 40


 2196 0a3d A50B0000 		.4byte	0xba5
 2197 0a41 14       		.uleb128 0x14
 2198 0a42 01       		.byte	0x1
 2199 0a43 50       		.byte	0x50
 2200 0a44 05       		.byte	0x5
 2201 0a45 03       		.byte	0x3
 2202 0a46 68000000 		.4byte	.LC6
 2203 0a4a 00       		.byte	0
 2204 0a4b 00       		.byte	0
 2205 0a4c 1E       		.uleb128 0x1e
 2206 0a4d 01       		.byte	0x1
 2207 0a4e 9C030000 		.4byte	.LASF78
 2208 0a52 01       		.byte	0x1
 2209 0a53 3401     		.2byte	0x134
 2210 0a55 01       		.byte	0x1
 2211 0a56 C3000000 		.4byte	0xc3
 2212 0a5a 00000000 		.4byte	.LFB15
 2213 0a5e 2C000000 		.4byte	.LFE15
 2214 0a62 AF050000 		.4byte	.LLST43
 2215 0a66 01       		.byte	0x1
 2216 0a67 160B0000 		.4byte	0xb16
 2217 0a6b 1F       		.uleb128 0x1f
 2218 0a6c 6D627000 		.ascii	"mbp\000"
 2219 0a70 01       		.byte	0x1
 2220 0a71 3401     		.2byte	0x134
 2221 0a73 15050000 		.4byte	0x515
 2222 0a77 CF050000 		.4byte	.LLST44
 2223 0a7b 20       		.uleb128 0x20
 2224 0a7c 48020000 		.4byte	.LASF77
 2225 0a80 01       		.byte	0x1
 2226 0a81 3401     		.2byte	0x134
 2227 0a83 24040000 		.4byte	0x424
 2228 0a87 ED050000 		.4byte	.LLST45
 2229 0a8b 20       		.uleb128 0x20
 2230 0a8c A4020000 		.4byte	.LASF69
 2231 0a90 01       		.byte	0x1
 2232 0a91 3401     		.2byte	0x134
 2233 0a93 D9000000 		.4byte	0xd9
 2234 0a97 0B060000 		.4byte	.LLST46
 2235 0a9b 21       		.uleb128 0x21
 2236 0a9c 1E000000 		.4byte	.LASF62
 2237 0aa0 01       		.byte	0x1
 2238 0aa1 3501     		.2byte	0x135
 2239 0aa3 C3000000 		.4byte	0xc3
 2240 0aa7 37060000 		.4byte	.LLST47
 2241 0aab 1D       		.uleb128 0x1d
 2242 0aac 30000000 		.4byte	.Ldebug_ranges0+0x30
 2243 0ab0 C50A0000 		.4byte	0xac5
 2244 0ab4 22       		.uleb128 0x22
 2245 0ab5 746D7000 		.ascii	"tmp\000"
 2246 0ab9 01       		.byte	0x1
 2247 0aba 3701     		.2byte	0x137
 2248 0abc 6C000000 		.4byte	0x6c
 2249 0ac0 55060000 		.4byte	.LLST48
 2250 0ac4 00       		.byte	0
 2251 0ac5 17       		.uleb128 0x17
 2252 0ac6 22000000 		.4byte	.LBB12
ARM GAS  /tmp/ccRGZgHL.s 			page 41


 2253 0aca 28000000 		.4byte	.LBE12
 2254 0ace E30A0000 		.4byte	0xae3
 2255 0ad2 22       		.uleb128 0x22
 2256 0ad3 746D7000 		.ascii	"tmp\000"
 2257 0ad7 01       		.byte	0x1
 2258 0ad8 3901     		.2byte	0x139
 2259 0ada 6C000000 		.4byte	0x6c
 2260 0ade 68060000 		.4byte	.LLST49
 2261 0ae2 00       		.byte	0
 2262 0ae3 19       		.uleb128 0x19
 2263 0ae4 12000000 		.4byte	.LVL78
 2264 0ae8 BF0B0000 		.4byte	0xbbf
 2265 0aec 13       		.uleb128 0x13
 2266 0aed 1C000000 		.4byte	.LVL79
 2267 0af1 99090000 		.4byte	0x999
 2268 0af5 0C0B0000 		.4byte	0xb0c
 2269 0af9 14       		.uleb128 0x14
 2270 0afa 01       		.byte	0x1
 2271 0afb 52       		.byte	0x52
 2272 0afc 02       		.byte	0x2
 2273 0afd 74       		.byte	0x74
 2274 0afe 00       		.sleb128 0
 2275 0aff 14       		.uleb128 0x14
 2276 0b00 01       		.byte	0x1
 2277 0b01 51       		.byte	0x51
 2278 0b02 02       		.byte	0x2
 2279 0b03 75       		.byte	0x75
 2280 0b04 00       		.sleb128 0
 2281 0b05 14       		.uleb128 0x14
 2282 0b06 01       		.byte	0x1
 2283 0b07 50       		.byte	0x50
 2284 0b08 02       		.byte	0x2
 2285 0b09 76       		.byte	0x76
 2286 0b0a 00       		.sleb128 0
 2287 0b0b 00       		.byte	0
 2288 0b0c 19       		.uleb128 0x19
 2289 0b0d 22000000 		.4byte	.LVL81
 2290 0b11 EC0B0000 		.4byte	0xbec
 2291 0b15 00       		.byte	0
 2292 0b16 1E       		.uleb128 0x1e
 2293 0b17 01       		.byte	0x1
 2294 0b18 E4010000 		.4byte	.LASF79
 2295 0b1c 01       		.byte	0x1
 2296 0b1d 6F01     		.2byte	0x16f
 2297 0b1f 01       		.byte	0x1
 2298 0b20 C3000000 		.4byte	0xc3
 2299 0b24 00000000 		.4byte	.LFB17
 2300 0b28 4C000000 		.4byte	.LFE17
 2301 0b2c 7B060000 		.4byte	.LLST50
 2302 0b30 01       		.byte	0x1
 2303 0b31 860B0000 		.4byte	0xb86
 2304 0b35 1F       		.uleb128 0x1f
 2305 0b36 6D627000 		.ascii	"mbp\000"
 2306 0b3a 01       		.byte	0x1
 2307 0b3b 6F01     		.2byte	0x16f
 2308 0b3d 15050000 		.4byte	0x515
 2309 0b41 9B060000 		.4byte	.LLST51
ARM GAS  /tmp/ccRGZgHL.s 			page 42


 2310 0b45 20       		.uleb128 0x20
 2311 0b46 48020000 		.4byte	.LASF77
 2312 0b4a 01       		.byte	0x1
 2313 0b4b 6F01     		.2byte	0x16f
 2314 0b4d 24040000 		.4byte	0x424
 2315 0b51 B9060000 		.4byte	.LLST52
 2316 0b55 19       		.uleb128 0x19
 2317 0b56 0A000000 		.4byte	.LVL85
 2318 0b5a 310C0000 		.4byte	0xc31
 2319 0b5e 13       		.uleb128 0x13
 2320 0b5f 36000000 		.4byte	.LVL86
 2321 0b63 1D0C0000 		.4byte	0xc1d
 2322 0b67 720B0000 		.4byte	0xb72
 2323 0b6b 14       		.uleb128 0x14
 2324 0b6c 01       		.byte	0x1
 2325 0b6d 50       		.byte	0x50
 2326 0b6e 02       		.byte	0x2
 2327 0b6f 74       		.byte	0x74
 2328 0b70 1C       		.sleb128 28
 2329 0b71 00       		.byte	0
 2330 0b72 16       		.uleb128 0x16
 2331 0b73 40000000 		.4byte	.LVL87
 2332 0b77 A50B0000 		.4byte	0xba5
 2333 0b7b 14       		.uleb128 0x14
 2334 0b7c 01       		.byte	0x1
 2335 0b7d 50       		.byte	0x50
 2336 0b7e 05       		.byte	0x5
 2337 0b7f 03       		.byte	0x3
 2338 0b80 78000000 		.4byte	.LC7
 2339 0b84 00       		.byte	0
 2340 0b85 00       		.byte	0
 2341 0b86 23       		.uleb128 0x23
 2342 0b87 01       		.byte	0x1
 2343 0b88 FC030000 		.4byte	.LASF80
 2344 0b8c 07       		.byte	0x7
 2345 0b8d 35       		.byte	0x35
 2346 0b8e 01       		.byte	0x1
 2347 0b8f 01       		.byte	0x1
 2348 0b90 9F0B0000 		.4byte	0xb9f
 2349 0b94 24       		.uleb128 0x24
 2350 0b95 9F0B0000 		.4byte	0xb9f
 2351 0b99 24       		.uleb128 0x24
 2352 0b9a E4000000 		.4byte	0xe4
 2353 0b9e 00       		.byte	0
 2354 0b9f 09       		.uleb128 0x9
 2355 0ba0 04       		.byte	0x4
 2356 0ba1 74030000 		.4byte	0x374
 2357 0ba5 23       		.uleb128 0x23
 2358 0ba6 01       		.byte	0x1
 2359 0ba7 13000000 		.4byte	.LASF81
 2360 0bab 0A       		.byte	0xa
 2361 0bac F0       		.byte	0xf0
 2362 0bad 01       		.byte	0x1
 2363 0bae 01       		.byte	0x1
 2364 0baf B90B0000 		.4byte	0xbb9
 2365 0bb3 24       		.uleb128 0x24
 2366 0bb4 B90B0000 		.4byte	0xbb9
ARM GAS  /tmp/ccRGZgHL.s 			page 43


 2367 0bb8 00       		.byte	0
 2368 0bb9 09       		.uleb128 0x9
 2369 0bba 04       		.byte	0x4
 2370 0bbb 75040000 		.4byte	0x475
 2371 0bbf 25       		.uleb128 0x25
 2372 0bc0 01       		.byte	0x1
 2373 0bc1 A9020000 		.4byte	.LASF83
 2374 0bc5 0A       		.byte	0xa
 2375 0bc6 E2       		.byte	0xe2
 2376 0bc7 01       		.byte	0x1
 2377 0bc8 01       		.byte	0x1
 2378 0bc9 23       		.uleb128 0x23
 2379 0bca 01       		.byte	0x1
 2380 0bcb C2030000 		.4byte	.LASF82
 2381 0bcf 07       		.byte	0x7
 2382 0bd0 37       		.byte	0x37
 2383 0bd1 01       		.byte	0x1
 2384 0bd2 01       		.byte	0x1
 2385 0bd3 E20B0000 		.4byte	0xbe2
 2386 0bd7 24       		.uleb128 0x24
 2387 0bd8 9F0B0000 		.4byte	0xb9f
 2388 0bdc 24       		.uleb128 0x24
 2389 0bdd E4000000 		.4byte	0xe4
 2390 0be1 00       		.byte	0
 2391 0be2 25       		.uleb128 0x25
 2392 0be3 01       		.byte	0x1
 2393 0be4 E4000000 		.4byte	.LASF84
 2394 0be8 0B       		.byte	0xb
 2395 0be9 9F       		.byte	0x9f
 2396 0bea 01       		.byte	0x1
 2397 0beb 01       		.byte	0x1
 2398 0bec 25       		.uleb128 0x25
 2399 0bed 01       		.byte	0x1
 2400 0bee 58020000 		.4byte	.LASF85
 2401 0bf2 0A       		.byte	0xa
 2402 0bf3 E3       		.byte	0xe3
 2403 0bf4 01       		.byte	0x1
 2404 0bf5 01       		.byte	0x1
 2405 0bf6 25       		.uleb128 0x25
 2406 0bf7 01       		.byte	0x1
 2407 0bf8 19020000 		.4byte	.LASF86
 2408 0bfc 0A       		.byte	0xa
 2409 0bfd E9       		.byte	0xe9
 2410 0bfe 01       		.byte	0x1
 2411 0bff 01       		.byte	0x1
 2412 0c00 26       		.uleb128 0x26
 2413 0c01 01       		.byte	0x1
 2414 0c02 47030000 		.4byte	.LASF91
 2415 0c06 07       		.byte	0x7
 2416 0c07 3B       		.byte	0x3b
 2417 0c08 01       		.byte	0x1
 2418 0c09 C3000000 		.4byte	0xc3
 2419 0c0d 01       		.byte	0x1
 2420 0c0e 1D0C0000 		.4byte	0xc1d
 2421 0c12 24       		.uleb128 0x24
 2422 0c13 9F0B0000 		.4byte	0xb9f
 2423 0c17 24       		.uleb128 0x24
ARM GAS  /tmp/ccRGZgHL.s 			page 44


 2424 0c18 D9000000 		.4byte	0xd9
 2425 0c1c 00       		.byte	0
 2426 0c1d 23       		.uleb128 0x23
 2427 0c1e 01       		.byte	0x1
 2428 0c1f 06000000 		.4byte	.LASF87
 2429 0c23 07       		.byte	0x7
 2430 0c24 3D       		.byte	0x3d
 2431 0c25 01       		.byte	0x1
 2432 0c26 01       		.byte	0x1
 2433 0c27 310C0000 		.4byte	0xc31
 2434 0c2b 24       		.uleb128 0x24
 2435 0c2c 9F0B0000 		.4byte	0xb9f
 2436 0c30 00       		.byte	0
 2437 0c31 25       		.uleb128 0x25
 2438 0c32 01       		.byte	0x1
 2439 0c33 F5010000 		.4byte	.LASF88
 2440 0c37 0A       		.byte	0xa
 2441 0c38 E8       		.byte	0xe8
 2442 0c39 01       		.byte	0x1
 2443 0c3a 01       		.byte	0x1
 2444 0c3b 00       		.byte	0
 2445              		.section	.debug_abbrev,"",%progbits
 2446              	.Ldebug_abbrev0:
 2447 0000 01       		.uleb128 0x1
 2448 0001 11       		.uleb128 0x11
 2449 0002 01       		.byte	0x1
 2450 0003 25       		.uleb128 0x25
 2451 0004 0E       		.uleb128 0xe
 2452 0005 13       		.uleb128 0x13
 2453 0006 0B       		.uleb128 0xb
 2454 0007 03       		.uleb128 0x3
 2455 0008 0E       		.uleb128 0xe
 2456 0009 55       		.uleb128 0x55
 2457 000a 06       		.uleb128 0x6
 2458 000b 11       		.uleb128 0x11
 2459 000c 01       		.uleb128 0x1
 2460 000d 52       		.uleb128 0x52
 2461 000e 01       		.uleb128 0x1
 2462 000f 10       		.uleb128 0x10
 2463 0010 06       		.uleb128 0x6
 2464 0011 00       		.byte	0
 2465 0012 00       		.byte	0
 2466 0013 02       		.uleb128 0x2
 2467 0014 24       		.uleb128 0x24
 2468 0015 00       		.byte	0
 2469 0016 0B       		.uleb128 0xb
 2470 0017 0B       		.uleb128 0xb
 2471 0018 3E       		.uleb128 0x3e
 2472 0019 0B       		.uleb128 0xb
 2473 001a 03       		.uleb128 0x3
 2474 001b 08       		.uleb128 0x8
 2475 001c 00       		.byte	0
 2476 001d 00       		.byte	0
 2477 001e 03       		.uleb128 0x3
 2478 001f 24       		.uleb128 0x24
 2479 0020 00       		.byte	0
 2480 0021 0B       		.uleb128 0xb
ARM GAS  /tmp/ccRGZgHL.s 			page 45


 2481 0022 0B       		.uleb128 0xb
 2482 0023 3E       		.uleb128 0x3e
 2483 0024 0B       		.uleb128 0xb
 2484 0025 03       		.uleb128 0x3
 2485 0026 0E       		.uleb128 0xe
 2486 0027 00       		.byte	0
 2487 0028 00       		.byte	0
 2488 0029 04       		.uleb128 0x4
 2489 002a 16       		.uleb128 0x16
 2490 002b 00       		.byte	0
 2491 002c 03       		.uleb128 0x3
 2492 002d 0E       		.uleb128 0xe
 2493 002e 3A       		.uleb128 0x3a
 2494 002f 0B       		.uleb128 0xb
 2495 0030 3B       		.uleb128 0x3b
 2496 0031 0B       		.uleb128 0xb
 2497 0032 49       		.uleb128 0x49
 2498 0033 13       		.uleb128 0x13
 2499 0034 00       		.byte	0
 2500 0035 00       		.byte	0
 2501 0036 05       		.uleb128 0x5
 2502 0037 13       		.uleb128 0x13
 2503 0038 01       		.byte	0x1
 2504 0039 03       		.uleb128 0x3
 2505 003a 0E       		.uleb128 0xe
 2506 003b 0B       		.uleb128 0xb
 2507 003c 0B       		.uleb128 0xb
 2508 003d 3A       		.uleb128 0x3a
 2509 003e 0B       		.uleb128 0xb
 2510 003f 3B       		.uleb128 0x3b
 2511 0040 0B       		.uleb128 0xb
 2512 0041 01       		.uleb128 0x1
 2513 0042 13       		.uleb128 0x13
 2514 0043 00       		.byte	0
 2515 0044 00       		.byte	0
 2516 0045 06       		.uleb128 0x6
 2517 0046 0D       		.uleb128 0xd
 2518 0047 00       		.byte	0
 2519 0048 03       		.uleb128 0x3
 2520 0049 0E       		.uleb128 0xe
 2521 004a 3A       		.uleb128 0x3a
 2522 004b 0B       		.uleb128 0xb
 2523 004c 3B       		.uleb128 0x3b
 2524 004d 0B       		.uleb128 0xb
 2525 004e 49       		.uleb128 0x49
 2526 004f 13       		.uleb128 0x13
 2527 0050 38       		.uleb128 0x38
 2528 0051 0A       		.uleb128 0xa
 2529 0052 00       		.byte	0
 2530 0053 00       		.byte	0
 2531 0054 07       		.uleb128 0x7
 2532 0055 0D       		.uleb128 0xd
 2533 0056 00       		.byte	0
 2534 0057 03       		.uleb128 0x3
 2535 0058 08       		.uleb128 0x8
 2536 0059 3A       		.uleb128 0x3a
 2537 005a 0B       		.uleb128 0xb
ARM GAS  /tmp/ccRGZgHL.s 			page 46


 2538 005b 3B       		.uleb128 0x3b
 2539 005c 0B       		.uleb128 0xb
 2540 005d 49       		.uleb128 0x49
 2541 005e 13       		.uleb128 0x13
 2542 005f 38       		.uleb128 0x38
 2543 0060 0A       		.uleb128 0xa
 2544 0061 00       		.byte	0
 2545 0062 00       		.byte	0
 2546 0063 08       		.uleb128 0x8
 2547 0064 13       		.uleb128 0x13
 2548 0065 01       		.byte	0x1
 2549 0066 0B       		.uleb128 0xb
 2550 0067 0B       		.uleb128 0xb
 2551 0068 3A       		.uleb128 0x3a
 2552 0069 0B       		.uleb128 0xb
 2553 006a 3B       		.uleb128 0x3b
 2554 006b 0B       		.uleb128 0xb
 2555 006c 01       		.uleb128 0x1
 2556 006d 13       		.uleb128 0x13
 2557 006e 00       		.byte	0
 2558 006f 00       		.byte	0
 2559 0070 09       		.uleb128 0x9
 2560 0071 0F       		.uleb128 0xf
 2561 0072 00       		.byte	0
 2562 0073 0B       		.uleb128 0xb
 2563 0074 0B       		.uleb128 0xb
 2564 0075 49       		.uleb128 0x49
 2565 0076 13       		.uleb128 0x13
 2566 0077 00       		.byte	0
 2567 0078 00       		.byte	0
 2568 0079 0A       		.uleb128 0xa
 2569 007a 0F       		.uleb128 0xf
 2570 007b 00       		.byte	0
 2571 007c 0B       		.uleb128 0xb
 2572 007d 0B       		.uleb128 0xb
 2573 007e 00       		.byte	0
 2574 007f 00       		.byte	0
 2575 0080 0B       		.uleb128 0xb
 2576 0081 0D       		.uleb128 0xd
 2577 0082 00       		.byte	0
 2578 0083 03       		.uleb128 0x3
 2579 0084 08       		.uleb128 0x8
 2580 0085 3A       		.uleb128 0x3a
 2581 0086 0B       		.uleb128 0xb
 2582 0087 3B       		.uleb128 0x3b
 2583 0088 05       		.uleb128 0x5
 2584 0089 49       		.uleb128 0x49
 2585 008a 13       		.uleb128 0x13
 2586 008b 38       		.uleb128 0x38
 2587 008c 0A       		.uleb128 0xa
 2588 008d 00       		.byte	0
 2589 008e 00       		.byte	0
 2590 008f 0C       		.uleb128 0xc
 2591 0090 13       		.uleb128 0x13
 2592 0091 01       		.byte	0x1
 2593 0092 03       		.uleb128 0x3
 2594 0093 0E       		.uleb128 0xe
ARM GAS  /tmp/ccRGZgHL.s 			page 47


 2595 0094 0B       		.uleb128 0xb
 2596 0095 0B       		.uleb128 0xb
 2597 0096 3A       		.uleb128 0x3a
 2598 0097 0B       		.uleb128 0xb
 2599 0098 3B       		.uleb128 0x3b
 2600 0099 05       		.uleb128 0x5
 2601 009a 01       		.uleb128 0x1
 2602 009b 13       		.uleb128 0x13
 2603 009c 00       		.byte	0
 2604 009d 00       		.byte	0
 2605 009e 0D       		.uleb128 0xd
 2606 009f 35       		.uleb128 0x35
 2607 00a0 00       		.byte	0
 2608 00a1 49       		.uleb128 0x49
 2609 00a2 13       		.uleb128 0x13
 2610 00a3 00       		.byte	0
 2611 00a4 00       		.byte	0
 2612 00a5 0E       		.uleb128 0xe
 2613 00a6 17       		.uleb128 0x17
 2614 00a7 01       		.byte	0x1
 2615 00a8 0B       		.uleb128 0xb
 2616 00a9 0B       		.uleb128 0xb
 2617 00aa 3A       		.uleb128 0x3a
 2618 00ab 0B       		.uleb128 0xb
 2619 00ac 3B       		.uleb128 0x3b
 2620 00ad 0B       		.uleb128 0xb
 2621 00ae 01       		.uleb128 0x1
 2622 00af 13       		.uleb128 0x13
 2623 00b0 00       		.byte	0
 2624 00b1 00       		.byte	0
 2625 00b2 0F       		.uleb128 0xf
 2626 00b3 0D       		.uleb128 0xd
 2627 00b4 00       		.byte	0
 2628 00b5 03       		.uleb128 0x3
 2629 00b6 0E       		.uleb128 0xe
 2630 00b7 3A       		.uleb128 0x3a
 2631 00b8 0B       		.uleb128 0xb
 2632 00b9 3B       		.uleb128 0x3b
 2633 00ba 0B       		.uleb128 0xb
 2634 00bb 49       		.uleb128 0x49
 2635 00bc 13       		.uleb128 0x13
 2636 00bd 00       		.byte	0
 2637 00be 00       		.byte	0
 2638 00bf 10       		.uleb128 0x10
 2639 00c0 26       		.uleb128 0x26
 2640 00c1 00       		.byte	0
 2641 00c2 49       		.uleb128 0x49
 2642 00c3 13       		.uleb128 0x13
 2643 00c4 00       		.byte	0
 2644 00c5 00       		.byte	0
 2645 00c6 11       		.uleb128 0x11
 2646 00c7 2E       		.uleb128 0x2e
 2647 00c8 01       		.byte	0x1
 2648 00c9 3F       		.uleb128 0x3f
 2649 00ca 0C       		.uleb128 0xc
 2650 00cb 03       		.uleb128 0x3
 2651 00cc 0E       		.uleb128 0xe
ARM GAS  /tmp/ccRGZgHL.s 			page 48


 2652 00cd 3A       		.uleb128 0x3a
 2653 00ce 0B       		.uleb128 0xb
 2654 00cf 3B       		.uleb128 0x3b
 2655 00d0 0B       		.uleb128 0xb
 2656 00d1 27       		.uleb128 0x27
 2657 00d2 0C       		.uleb128 0xc
 2658 00d3 11       		.uleb128 0x11
 2659 00d4 01       		.uleb128 0x1
 2660 00d5 12       		.uleb128 0x12
 2661 00d6 01       		.uleb128 0x1
 2662 00d7 40       		.uleb128 0x40
 2663 00d8 06       		.uleb128 0x6
 2664 00d9 9742     		.uleb128 0x2117
 2665 00db 0C       		.uleb128 0xc
 2666 00dc 01       		.uleb128 0x1
 2667 00dd 13       		.uleb128 0x13
 2668 00de 00       		.byte	0
 2669 00df 00       		.byte	0
 2670 00e0 12       		.uleb128 0x12
 2671 00e1 05       		.uleb128 0x5
 2672 00e2 00       		.byte	0
 2673 00e3 03       		.uleb128 0x3
 2674 00e4 08       		.uleb128 0x8
 2675 00e5 3A       		.uleb128 0x3a
 2676 00e6 0B       		.uleb128 0xb
 2677 00e7 3B       		.uleb128 0x3b
 2678 00e8 0B       		.uleb128 0xb
 2679 00e9 49       		.uleb128 0x49
 2680 00ea 13       		.uleb128 0x13
 2681 00eb 02       		.uleb128 0x2
 2682 00ec 06       		.uleb128 0x6
 2683 00ed 00       		.byte	0
 2684 00ee 00       		.byte	0
 2685 00ef 13       		.uleb128 0x13
 2686 00f0 898201   		.uleb128 0x4109
 2687 00f3 01       		.byte	0x1
 2688 00f4 11       		.uleb128 0x11
 2689 00f5 01       		.uleb128 0x1
 2690 00f6 31       		.uleb128 0x31
 2691 00f7 13       		.uleb128 0x13
 2692 00f8 01       		.uleb128 0x1
 2693 00f9 13       		.uleb128 0x13
 2694 00fa 00       		.byte	0
 2695 00fb 00       		.byte	0
 2696 00fc 14       		.uleb128 0x14
 2697 00fd 8A8201   		.uleb128 0x410a
 2698 0100 00       		.byte	0
 2699 0101 02       		.uleb128 0x2
 2700 0102 0A       		.uleb128 0xa
 2701 0103 9142     		.uleb128 0x2111
 2702 0105 0A       		.uleb128 0xa
 2703 0106 00       		.byte	0
 2704 0107 00       		.byte	0
 2705 0108 15       		.uleb128 0x15
 2706 0109 898201   		.uleb128 0x4109
 2707 010c 01       		.byte	0x1
 2708 010d 11       		.uleb128 0x11
ARM GAS  /tmp/ccRGZgHL.s 			page 49


 2709 010e 01       		.uleb128 0x1
 2710 010f 9542     		.uleb128 0x2115
 2711 0111 0C       		.uleb128 0xc
 2712 0112 31       		.uleb128 0x31
 2713 0113 13       		.uleb128 0x13
 2714 0114 01       		.uleb128 0x1
 2715 0115 13       		.uleb128 0x13
 2716 0116 00       		.byte	0
 2717 0117 00       		.byte	0
 2718 0118 16       		.uleb128 0x16
 2719 0119 898201   		.uleb128 0x4109
 2720 011c 01       		.byte	0x1
 2721 011d 11       		.uleb128 0x11
 2722 011e 01       		.uleb128 0x1
 2723 011f 31       		.uleb128 0x31
 2724 0120 13       		.uleb128 0x13
 2725 0121 00       		.byte	0
 2726 0122 00       		.byte	0
 2727 0123 17       		.uleb128 0x17
 2728 0124 0B       		.uleb128 0xb
 2729 0125 01       		.byte	0x1
 2730 0126 11       		.uleb128 0x11
 2731 0127 01       		.uleb128 0x1
 2732 0128 12       		.uleb128 0x12
 2733 0129 01       		.uleb128 0x1
 2734 012a 01       		.uleb128 0x1
 2735 012b 13       		.uleb128 0x13
 2736 012c 00       		.byte	0
 2737 012d 00       		.byte	0
 2738 012e 18       		.uleb128 0x18
 2739 012f 34       		.uleb128 0x34
 2740 0130 00       		.byte	0
 2741 0131 03       		.uleb128 0x3
 2742 0132 08       		.uleb128 0x8
 2743 0133 3A       		.uleb128 0x3a
 2744 0134 0B       		.uleb128 0xb
 2745 0135 3B       		.uleb128 0x3b
 2746 0136 0B       		.uleb128 0xb
 2747 0137 49       		.uleb128 0x49
 2748 0138 13       		.uleb128 0x13
 2749 0139 02       		.uleb128 0x2
 2750 013a 06       		.uleb128 0x6
 2751 013b 00       		.byte	0
 2752 013c 00       		.byte	0
 2753 013d 19       		.uleb128 0x19
 2754 013e 898201   		.uleb128 0x4109
 2755 0141 00       		.byte	0
 2756 0142 11       		.uleb128 0x11
 2757 0143 01       		.uleb128 0x1
 2758 0144 31       		.uleb128 0x31
 2759 0145 13       		.uleb128 0x13
 2760 0146 00       		.byte	0
 2761 0147 00       		.byte	0
 2762 0148 1A       		.uleb128 0x1a
 2763 0149 2E       		.uleb128 0x2e
 2764 014a 01       		.byte	0x1
 2765 014b 3F       		.uleb128 0x3f
ARM GAS  /tmp/ccRGZgHL.s 			page 50


 2766 014c 0C       		.uleb128 0xc
 2767 014d 03       		.uleb128 0x3
 2768 014e 0E       		.uleb128 0xe
 2769 014f 3A       		.uleb128 0x3a
 2770 0150 0B       		.uleb128 0xb
 2771 0151 3B       		.uleb128 0x3b
 2772 0152 0B       		.uleb128 0xb
 2773 0153 27       		.uleb128 0x27
 2774 0154 0C       		.uleb128 0xc
 2775 0155 49       		.uleb128 0x49
 2776 0156 13       		.uleb128 0x13
 2777 0157 11       		.uleb128 0x11
 2778 0158 01       		.uleb128 0x1
 2779 0159 12       		.uleb128 0x12
 2780 015a 01       		.uleb128 0x1
 2781 015b 40       		.uleb128 0x40
 2782 015c 06       		.uleb128 0x6
 2783 015d 9742     		.uleb128 0x2117
 2784 015f 0C       		.uleb128 0xc
 2785 0160 01       		.uleb128 0x1
 2786 0161 13       		.uleb128 0x13
 2787 0162 00       		.byte	0
 2788 0163 00       		.byte	0
 2789 0164 1B       		.uleb128 0x1b
 2790 0165 05       		.uleb128 0x5
 2791 0166 00       		.byte	0
 2792 0167 03       		.uleb128 0x3
 2793 0168 0E       		.uleb128 0xe
 2794 0169 3A       		.uleb128 0x3a
 2795 016a 0B       		.uleb128 0xb
 2796 016b 3B       		.uleb128 0x3b
 2797 016c 0B       		.uleb128 0xb
 2798 016d 49       		.uleb128 0x49
 2799 016e 13       		.uleb128 0x13
 2800 016f 02       		.uleb128 0x2
 2801 0170 06       		.uleb128 0x6
 2802 0171 00       		.byte	0
 2803 0172 00       		.byte	0
 2804 0173 1C       		.uleb128 0x1c
 2805 0174 34       		.uleb128 0x34
 2806 0175 00       		.byte	0
 2807 0176 03       		.uleb128 0x3
 2808 0177 0E       		.uleb128 0xe
 2809 0178 3A       		.uleb128 0x3a
 2810 0179 0B       		.uleb128 0xb
 2811 017a 3B       		.uleb128 0x3b
 2812 017b 0B       		.uleb128 0xb
 2813 017c 49       		.uleb128 0x49
 2814 017d 13       		.uleb128 0x13
 2815 017e 02       		.uleb128 0x2
 2816 017f 06       		.uleb128 0x6
 2817 0180 00       		.byte	0
 2818 0181 00       		.byte	0
 2819 0182 1D       		.uleb128 0x1d
 2820 0183 0B       		.uleb128 0xb
 2821 0184 01       		.byte	0x1
 2822 0185 55       		.uleb128 0x55
ARM GAS  /tmp/ccRGZgHL.s 			page 51


 2823 0186 06       		.uleb128 0x6
 2824 0187 01       		.uleb128 0x1
 2825 0188 13       		.uleb128 0x13
 2826 0189 00       		.byte	0
 2827 018a 00       		.byte	0
 2828 018b 1E       		.uleb128 0x1e
 2829 018c 2E       		.uleb128 0x2e
 2830 018d 01       		.byte	0x1
 2831 018e 3F       		.uleb128 0x3f
 2832 018f 0C       		.uleb128 0xc
 2833 0190 03       		.uleb128 0x3
 2834 0191 0E       		.uleb128 0xe
 2835 0192 3A       		.uleb128 0x3a
 2836 0193 0B       		.uleb128 0xb
 2837 0194 3B       		.uleb128 0x3b
 2838 0195 05       		.uleb128 0x5
 2839 0196 27       		.uleb128 0x27
 2840 0197 0C       		.uleb128 0xc
 2841 0198 49       		.uleb128 0x49
 2842 0199 13       		.uleb128 0x13
 2843 019a 11       		.uleb128 0x11
 2844 019b 01       		.uleb128 0x1
 2845 019c 12       		.uleb128 0x12
 2846 019d 01       		.uleb128 0x1
 2847 019e 40       		.uleb128 0x40
 2848 019f 06       		.uleb128 0x6
 2849 01a0 9742     		.uleb128 0x2117
 2850 01a2 0C       		.uleb128 0xc
 2851 01a3 01       		.uleb128 0x1
 2852 01a4 13       		.uleb128 0x13
 2853 01a5 00       		.byte	0
 2854 01a6 00       		.byte	0
 2855 01a7 1F       		.uleb128 0x1f
 2856 01a8 05       		.uleb128 0x5
 2857 01a9 00       		.byte	0
 2858 01aa 03       		.uleb128 0x3
 2859 01ab 08       		.uleb128 0x8
 2860 01ac 3A       		.uleb128 0x3a
 2861 01ad 0B       		.uleb128 0xb
 2862 01ae 3B       		.uleb128 0x3b
 2863 01af 05       		.uleb128 0x5
 2864 01b0 49       		.uleb128 0x49
 2865 01b1 13       		.uleb128 0x13
 2866 01b2 02       		.uleb128 0x2
 2867 01b3 06       		.uleb128 0x6
 2868 01b4 00       		.byte	0
 2869 01b5 00       		.byte	0
 2870 01b6 20       		.uleb128 0x20
 2871 01b7 05       		.uleb128 0x5
 2872 01b8 00       		.byte	0
 2873 01b9 03       		.uleb128 0x3
 2874 01ba 0E       		.uleb128 0xe
 2875 01bb 3A       		.uleb128 0x3a
 2876 01bc 0B       		.uleb128 0xb
 2877 01bd 3B       		.uleb128 0x3b
 2878 01be 05       		.uleb128 0x5
 2879 01bf 49       		.uleb128 0x49
ARM GAS  /tmp/ccRGZgHL.s 			page 52


 2880 01c0 13       		.uleb128 0x13
 2881 01c1 02       		.uleb128 0x2
 2882 01c2 06       		.uleb128 0x6
 2883 01c3 00       		.byte	0
 2884 01c4 00       		.byte	0
 2885 01c5 21       		.uleb128 0x21
 2886 01c6 34       		.uleb128 0x34
 2887 01c7 00       		.byte	0
 2888 01c8 03       		.uleb128 0x3
 2889 01c9 0E       		.uleb128 0xe
 2890 01ca 3A       		.uleb128 0x3a
 2891 01cb 0B       		.uleb128 0xb
 2892 01cc 3B       		.uleb128 0x3b
 2893 01cd 05       		.uleb128 0x5
 2894 01ce 49       		.uleb128 0x49
 2895 01cf 13       		.uleb128 0x13
 2896 01d0 02       		.uleb128 0x2
 2897 01d1 06       		.uleb128 0x6
 2898 01d2 00       		.byte	0
 2899 01d3 00       		.byte	0
 2900 01d4 22       		.uleb128 0x22
 2901 01d5 34       		.uleb128 0x34
 2902 01d6 00       		.byte	0
 2903 01d7 03       		.uleb128 0x3
 2904 01d8 08       		.uleb128 0x8
 2905 01d9 3A       		.uleb128 0x3a
 2906 01da 0B       		.uleb128 0xb
 2907 01db 3B       		.uleb128 0x3b
 2908 01dc 05       		.uleb128 0x5
 2909 01dd 49       		.uleb128 0x49
 2910 01de 13       		.uleb128 0x13
 2911 01df 02       		.uleb128 0x2
 2912 01e0 06       		.uleb128 0x6
 2913 01e1 00       		.byte	0
 2914 01e2 00       		.byte	0
 2915 01e3 23       		.uleb128 0x23
 2916 01e4 2E       		.uleb128 0x2e
 2917 01e5 01       		.byte	0x1
 2918 01e6 3F       		.uleb128 0x3f
 2919 01e7 0C       		.uleb128 0xc
 2920 01e8 03       		.uleb128 0x3
 2921 01e9 0E       		.uleb128 0xe
 2922 01ea 3A       		.uleb128 0x3a
 2923 01eb 0B       		.uleb128 0xb
 2924 01ec 3B       		.uleb128 0x3b
 2925 01ed 0B       		.uleb128 0xb
 2926 01ee 27       		.uleb128 0x27
 2927 01ef 0C       		.uleb128 0xc
 2928 01f0 3C       		.uleb128 0x3c
 2929 01f1 0C       		.uleb128 0xc
 2930 01f2 01       		.uleb128 0x1
 2931 01f3 13       		.uleb128 0x13
 2932 01f4 00       		.byte	0
 2933 01f5 00       		.byte	0
 2934 01f6 24       		.uleb128 0x24
 2935 01f7 05       		.uleb128 0x5
 2936 01f8 00       		.byte	0
ARM GAS  /tmp/ccRGZgHL.s 			page 53


 2937 01f9 49       		.uleb128 0x49
 2938 01fa 13       		.uleb128 0x13
 2939 01fb 00       		.byte	0
 2940 01fc 00       		.byte	0
 2941 01fd 25       		.uleb128 0x25
 2942 01fe 2E       		.uleb128 0x2e
 2943 01ff 00       		.byte	0
 2944 0200 3F       		.uleb128 0x3f
 2945 0201 0C       		.uleb128 0xc
 2946 0202 03       		.uleb128 0x3
 2947 0203 0E       		.uleb128 0xe
 2948 0204 3A       		.uleb128 0x3a
 2949 0205 0B       		.uleb128 0xb
 2950 0206 3B       		.uleb128 0x3b
 2951 0207 0B       		.uleb128 0xb
 2952 0208 27       		.uleb128 0x27
 2953 0209 0C       		.uleb128 0xc
 2954 020a 3C       		.uleb128 0x3c
 2955 020b 0C       		.uleb128 0xc
 2956 020c 00       		.byte	0
 2957 020d 00       		.byte	0
 2958 020e 26       		.uleb128 0x26
 2959 020f 2E       		.uleb128 0x2e
 2960 0210 01       		.byte	0x1
 2961 0211 3F       		.uleb128 0x3f
 2962 0212 0C       		.uleb128 0xc
 2963 0213 03       		.uleb128 0x3
 2964 0214 0E       		.uleb128 0xe
 2965 0215 3A       		.uleb128 0x3a
 2966 0216 0B       		.uleb128 0xb
 2967 0217 3B       		.uleb128 0x3b
 2968 0218 0B       		.uleb128 0xb
 2969 0219 27       		.uleb128 0x27
 2970 021a 0C       		.uleb128 0xc
 2971 021b 49       		.uleb128 0x49
 2972 021c 13       		.uleb128 0x13
 2973 021d 3C       		.uleb128 0x3c
 2974 021e 0C       		.uleb128 0xc
 2975 021f 01       		.uleb128 0x1
 2976 0220 13       		.uleb128 0x13
 2977 0221 00       		.byte	0
 2978 0222 00       		.byte	0
 2979 0223 00       		.byte	0
 2980              		.section	.debug_loc,"",%progbits
 2981              	.Ldebug_loc0:
 2982              	.LLST0:
 2983 0000 00000000 		.4byte	.LFB7
 2984 0004 02000000 		.4byte	.LCFI0
 2985 0008 0200     		.2byte	0x2
 2986 000a 7D       		.byte	0x7d
 2987 000b 00       		.sleb128 0
 2988 000c 02000000 		.4byte	.LCFI0
 2989 0010 40000000 		.4byte	.LFE7
 2990 0014 0200     		.2byte	0x2
 2991 0016 7D       		.byte	0x7d
 2992 0017 10       		.sleb128 16
 2993 0018 00000000 		.4byte	0
ARM GAS  /tmp/ccRGZgHL.s 			page 54


 2994 001c 00000000 		.4byte	0
 2995              	.LLST1:
 2996 0020 00000000 		.4byte	.LVL0
 2997 0024 10000000 		.4byte	.LVL1
 2998 0028 0100     		.2byte	0x1
 2999 002a 50       		.byte	0x50
 3000 002b 10000000 		.4byte	.LVL1
 3001 002f 34000000 		.4byte	.LVL3
 3002 0033 0100     		.2byte	0x1
 3003 0035 54       		.byte	0x54
 3004 0036 34000000 		.4byte	.LVL3
 3005 003a 36000000 		.4byte	.LVL4
 3006 003e 0100     		.2byte	0x1
 3007 0040 50       		.byte	0x50
 3008 0041 36000000 		.4byte	.LVL4
 3009 0045 40000000 		.4byte	.LFE7
 3010 0049 0100     		.2byte	0x1
 3011 004b 54       		.byte	0x54
 3012 004c 00000000 		.4byte	0
 3013 0050 00000000 		.4byte	0
 3014              	.LLST2:
 3015 0054 00000000 		.4byte	.LVL0
 3016 0058 10000000 		.4byte	.LVL1
 3017 005c 0100     		.2byte	0x1
 3018 005e 51       		.byte	0x51
 3019 005f 10000000 		.4byte	.LVL1
 3020 0063 34000000 		.4byte	.LVL3
 3021 0067 0100     		.2byte	0x1
 3022 0069 55       		.byte	0x55
 3023 006a 34000000 		.4byte	.LVL3
 3024 006e 39000000 		.4byte	.LVL5-1
 3025 0072 0100     		.2byte	0x1
 3026 0074 51       		.byte	0x51
 3027 0075 39000000 		.4byte	.LVL5-1
 3028 0079 40000000 		.4byte	.LFE7
 3029 007d 0100     		.2byte	0x1
 3030 007f 55       		.byte	0x55
 3031 0080 00000000 		.4byte	0
 3032 0084 00000000 		.4byte	0
 3033              	.LLST3:
 3034 0088 00000000 		.4byte	.LVL0
 3035 008c 10000000 		.4byte	.LVL1
 3036 0090 0100     		.2byte	0x1
 3037 0092 52       		.byte	0x52
 3038 0093 10000000 		.4byte	.LVL1
 3039 0097 34000000 		.4byte	.LVL3
 3040 009b 0100     		.2byte	0x1
 3041 009d 56       		.byte	0x56
 3042 009e 34000000 		.4byte	.LVL3
 3043 00a2 39000000 		.4byte	.LVL5-1
 3044 00a6 0100     		.2byte	0x1
 3045 00a8 52       		.byte	0x52
 3046 00a9 39000000 		.4byte	.LVL5-1
 3047 00ad 40000000 		.4byte	.LFE7
 3048 00b1 0100     		.2byte	0x1
 3049 00b3 56       		.byte	0x56
 3050 00b4 00000000 		.4byte	0
ARM GAS  /tmp/ccRGZgHL.s 			page 55


 3051 00b8 00000000 		.4byte	0
 3052              	.LLST4:
 3053 00bc 00000000 		.4byte	.LFB8
 3054 00c0 02000000 		.4byte	.LCFI1
 3055 00c4 0200     		.2byte	0x2
 3056 00c6 7D       		.byte	0x7d
 3057 00c7 00       		.sleb128 0
 3058 00c8 02000000 		.4byte	.LCFI1
 3059 00cc 4C000000 		.4byte	.LFE8
 3060 00d0 0200     		.2byte	0x2
 3061 00d2 7D       		.byte	0x7d
 3062 00d3 08       		.sleb128 8
 3063 00d4 00000000 		.4byte	0
 3064 00d8 00000000 		.4byte	0
 3065              	.LLST5:
 3066 00dc 00000000 		.4byte	.LVL6
 3067 00e0 06000000 		.4byte	.LVL7
 3068 00e4 0100     		.2byte	0x1
 3069 00e6 50       		.byte	0x50
 3070 00e7 06000000 		.4byte	.LVL7
 3071 00eb 3E000000 		.4byte	.LVL17
 3072 00ef 0100     		.2byte	0x1
 3073 00f1 54       		.byte	0x54
 3074 00f2 3E000000 		.4byte	.LVL17
 3075 00f6 40000000 		.4byte	.LVL18
 3076 00fa 0100     		.2byte	0x1
 3077 00fc 50       		.byte	0x50
 3078 00fd 40000000 		.4byte	.LVL18
 3079 0101 4C000000 		.4byte	.LFE8
 3080 0105 0100     		.2byte	0x1
 3081 0107 54       		.byte	0x54
 3082 0108 00000000 		.4byte	0
 3083 010c 00000000 		.4byte	0
 3084              	.LLST6:
 3085 0110 0C000000 		.4byte	.LVL9
 3086 0114 0F000000 		.4byte	.LVL10-1
 3087 0118 0100     		.2byte	0x1
 3088 011a 53       		.byte	0x53
 3089 011b 00000000 		.4byte	0
 3090 011f 00000000 		.4byte	0
 3091              	.LLST7:
 3092 0123 3C000000 		.4byte	.LVL16
 3093 0127 3E000000 		.4byte	.LVL17
 3094 012b 0100     		.2byte	0x1
 3095 012d 53       		.byte	0x53
 3096 012e 00000000 		.4byte	0
 3097 0132 00000000 		.4byte	0
 3098              	.LLST8:
 3099 0136 00000000 		.4byte	.LFB10
 3100 013a 02000000 		.4byte	.LCFI2
 3101 013e 0200     		.2byte	0x2
 3102 0140 7D       		.byte	0x7d
 3103 0141 00       		.sleb128 0
 3104 0142 02000000 		.4byte	.LCFI2
 3105 0146 4C000000 		.4byte	.LFE10
 3106 014a 0200     		.2byte	0x2
 3107 014c 7D       		.byte	0x7d
ARM GAS  /tmp/ccRGZgHL.s 			page 56


 3108 014d 10       		.sleb128 16
 3109 014e 00000000 		.4byte	0
 3110 0152 00000000 		.4byte	0
 3111              	.LLST9:
 3112 0156 00000000 		.4byte	.LVL20
 3113 015a 0B000000 		.4byte	.LVL21-1
 3114 015e 0100     		.2byte	0x1
 3115 0160 50       		.byte	0x50
 3116 0161 0B000000 		.4byte	.LVL21-1
 3117 0165 4C000000 		.4byte	.LFE10
 3118 0169 0100     		.2byte	0x1
 3119 016b 54       		.byte	0x54
 3120 016c 00000000 		.4byte	0
 3121 0170 00000000 		.4byte	0
 3122              	.LLST10:
 3123 0174 00000000 		.4byte	.LVL20
 3124 0178 0B000000 		.4byte	.LVL21-1
 3125 017c 0100     		.2byte	0x1
 3126 017e 51       		.byte	0x51
 3127 017f 0B000000 		.4byte	.LVL21-1
 3128 0183 4C000000 		.4byte	.LFE10
 3129 0187 0100     		.2byte	0x1
 3130 0189 56       		.byte	0x56
 3131 018a 00000000 		.4byte	0
 3132 018e 00000000 		.4byte	0
 3133              	.LLST11:
 3134 0192 00000000 		.4byte	.LVL20
 3135 0196 0B000000 		.4byte	.LVL21-1
 3136 019a 0100     		.2byte	0x1
 3137 019c 52       		.byte	0x52
 3138 019d 0B000000 		.4byte	.LVL21-1
 3139 01a1 1A000000 		.4byte	.LVL23
 3140 01a5 0100     		.2byte	0x1
 3141 01a7 55       		.byte	0x55
 3142 01a8 1A000000 		.4byte	.LVL23
 3143 01ac 40000000 		.4byte	.LVL27
 3144 01b0 0400     		.2byte	0x4
 3145 01b2 F3       		.byte	0xf3
 3146 01b3 01       		.uleb128 0x1
 3147 01b4 52       		.byte	0x52
 3148 01b5 9F       		.byte	0x9f
 3149 01b6 40000000 		.4byte	.LVL27
 3150 01ba 4C000000 		.4byte	.LFE10
 3151 01be 0100     		.2byte	0x1
 3152 01c0 55       		.byte	0x55
 3153 01c1 00000000 		.4byte	0
 3154 01c5 00000000 		.4byte	0
 3155              	.LLST12:
 3156 01c9 18000000 		.4byte	.LVL22
 3157 01cd 30000000 		.4byte	.LVL24
 3158 01d1 0100     		.2byte	0x1
 3159 01d3 50       		.byte	0x50
 3160 01d4 30000000 		.4byte	.LVL24
 3161 01d8 40000000 		.4byte	.LVL27
 3162 01dc 0100     		.2byte	0x1
 3163 01de 55       		.byte	0x55
 3164 01df 00000000 		.4byte	0
ARM GAS  /tmp/ccRGZgHL.s 			page 57


 3165 01e3 00000000 		.4byte	0
 3166              	.LLST13:
 3167 01e7 00000000 		.4byte	.LFB9
 3168 01eb 02000000 		.4byte	.LCFI3
 3169 01ef 0200     		.2byte	0x2
 3170 01f1 7D       		.byte	0x7d
 3171 01f2 00       		.sleb128 0
 3172 01f3 02000000 		.4byte	.LCFI3
 3173 01f7 2C000000 		.4byte	.LFE9
 3174 01fb 0200     		.2byte	0x2
 3175 01fd 7D       		.byte	0x7d
 3176 01fe 10       		.sleb128 16
 3177 01ff 00000000 		.4byte	0
 3178 0203 00000000 		.4byte	0
 3179              	.LLST14:
 3180 0207 00000000 		.4byte	.LVL29
 3181 020b 11000000 		.4byte	.LVL32-1
 3182 020f 0100     		.2byte	0x1
 3183 0211 50       		.byte	0x50
 3184 0212 11000000 		.4byte	.LVL32-1
 3185 0216 2C000000 		.4byte	.LFE9
 3186 021a 0100     		.2byte	0x1
 3187 021c 56       		.byte	0x56
 3188 021d 00000000 		.4byte	0
 3189 0221 00000000 		.4byte	0
 3190              	.LLST15:
 3191 0225 00000000 		.4byte	.LVL29
 3192 0229 11000000 		.4byte	.LVL32-1
 3193 022d 0100     		.2byte	0x1
 3194 022f 51       		.byte	0x51
 3195 0230 11000000 		.4byte	.LVL32-1
 3196 0234 2C000000 		.4byte	.LFE9
 3197 0238 0100     		.2byte	0x1
 3198 023a 55       		.byte	0x55
 3199 023b 00000000 		.4byte	0
 3200 023f 00000000 		.4byte	0
 3201              	.LLST16:
 3202 0243 00000000 		.4byte	.LVL29
 3203 0247 11000000 		.4byte	.LVL32-1
 3204 024b 0100     		.2byte	0x1
 3205 024d 52       		.byte	0x52
 3206 024e 11000000 		.4byte	.LVL32-1
 3207 0252 1E000000 		.4byte	.LVL34
 3208 0256 0100     		.2byte	0x1
 3209 0258 54       		.byte	0x54
 3210 0259 1E000000 		.4byte	.LVL34
 3211 025d 2C000000 		.4byte	.LFE9
 3212 0261 0400     		.2byte	0x4
 3213 0263 F3       		.byte	0xf3
 3214 0264 01       		.uleb128 0x1
 3215 0265 52       		.byte	0x52
 3216 0266 9F       		.byte	0x9f
 3217 0267 00000000 		.4byte	0
 3218 026b 00000000 		.4byte	0
 3219              	.LLST17:
 3220 026f 1E000000 		.4byte	.LVL34
 3221 0273 21000000 		.4byte	.LVL35-1
ARM GAS  /tmp/ccRGZgHL.s 			page 58


 3222 0277 0100     		.2byte	0x1
 3223 0279 50       		.byte	0x50
 3224 027a 21000000 		.4byte	.LVL35-1
 3225 027e 2C000000 		.4byte	.LFE9
 3226 0282 0100     		.2byte	0x1
 3227 0284 54       		.byte	0x54
 3228 0285 00000000 		.4byte	0
 3229 0289 00000000 		.4byte	0
 3230              	.LLST18:
 3231 028d 0E000000 		.4byte	.LVL31
 3232 0291 11000000 		.4byte	.LVL32-1
 3233 0295 0100     		.2byte	0x1
 3234 0297 53       		.byte	0x53
 3235 0298 00000000 		.4byte	0
 3236 029c 00000000 		.4byte	0
 3237              	.LLST19:
 3238 02a0 28000000 		.4byte	.LVL37
 3239 02a4 2C000000 		.4byte	.LFE9
 3240 02a8 0100     		.2byte	0x1
 3241 02aa 53       		.byte	0x53
 3242 02ab 00000000 		.4byte	0
 3243 02af 00000000 		.4byte	0
 3244              	.LLST20:
 3245 02b3 00000000 		.4byte	.LFB11
 3246 02b7 02000000 		.4byte	.LCFI4
 3247 02bb 0200     		.2byte	0x2
 3248 02bd 7D       		.byte	0x7d
 3249 02be 00       		.sleb128 0
 3250 02bf 02000000 		.4byte	.LCFI4
 3251 02c3 48000000 		.4byte	.LFE11
 3252 02c7 0200     		.2byte	0x2
 3253 02c9 7D       		.byte	0x7d
 3254 02ca 10       		.sleb128 16
 3255 02cb 00000000 		.4byte	0
 3256 02cf 00000000 		.4byte	0
 3257              	.LLST21:
 3258 02d3 00000000 		.4byte	.LVL38
 3259 02d7 09000000 		.4byte	.LVL39-1
 3260 02db 0100     		.2byte	0x1
 3261 02dd 50       		.byte	0x50
 3262 02de 09000000 		.4byte	.LVL39-1
 3263 02e2 48000000 		.4byte	.LFE11
 3264 02e6 0100     		.2byte	0x1
 3265 02e8 54       		.byte	0x54
 3266 02e9 00000000 		.4byte	0
 3267 02ed 00000000 		.4byte	0
 3268              	.LLST22:
 3269 02f1 00000000 		.4byte	.LVL38
 3270 02f5 09000000 		.4byte	.LVL39-1
 3271 02f9 0100     		.2byte	0x1
 3272 02fb 51       		.byte	0x51
 3273 02fc 09000000 		.4byte	.LVL39-1
 3274 0300 48000000 		.4byte	.LFE11
 3275 0304 0100     		.2byte	0x1
 3276 0306 55       		.byte	0x55
 3277 0307 00000000 		.4byte	0
 3278 030b 00000000 		.4byte	0
ARM GAS  /tmp/ccRGZgHL.s 			page 59


 3279              	.LLST23:
 3280 030f 00000000 		.4byte	.LFB13
 3281 0313 02000000 		.4byte	.LCFI5
 3282 0317 0200     		.2byte	0x2
 3283 0319 7D       		.byte	0x7d
 3284 031a 00       		.sleb128 0
 3285 031b 02000000 		.4byte	.LCFI5
 3286 031f 50000000 		.4byte	.LFE13
 3287 0323 0200     		.2byte	0x2
 3288 0325 7D       		.byte	0x7d
 3289 0326 10       		.sleb128 16
 3290 0327 00000000 		.4byte	0
 3291 032b 00000000 		.4byte	0
 3292              	.LLST24:
 3293 032f 00000000 		.4byte	.LVL42
 3294 0333 0B000000 		.4byte	.LVL43-1
 3295 0337 0100     		.2byte	0x1
 3296 0339 50       		.byte	0x50
 3297 033a 0B000000 		.4byte	.LVL43-1
 3298 033e 50000000 		.4byte	.LFE13
 3299 0342 0100     		.2byte	0x1
 3300 0344 54       		.byte	0x54
 3301 0345 00000000 		.4byte	0
 3302 0349 00000000 		.4byte	0
 3303              	.LLST25:
 3304 034d 00000000 		.4byte	.LVL42
 3305 0351 0B000000 		.4byte	.LVL43-1
 3306 0355 0100     		.2byte	0x1
 3307 0357 51       		.byte	0x51
 3308 0358 0B000000 		.4byte	.LVL43-1
 3309 035c 50000000 		.4byte	.LFE13
 3310 0360 0100     		.2byte	0x1
 3311 0362 56       		.byte	0x56
 3312 0363 00000000 		.4byte	0
 3313 0367 00000000 		.4byte	0
 3314              	.LLST26:
 3315 036b 00000000 		.4byte	.LVL42
 3316 036f 0B000000 		.4byte	.LVL43-1
 3317 0373 0100     		.2byte	0x1
 3318 0375 52       		.byte	0x52
 3319 0376 0B000000 		.4byte	.LVL43-1
 3320 037a 1A000000 		.4byte	.LVL45
 3321 037e 0100     		.2byte	0x1
 3322 0380 55       		.byte	0x55
 3323 0381 1A000000 		.4byte	.LVL45
 3324 0385 42000000 		.4byte	.LVL51
 3325 0389 0400     		.2byte	0x4
 3326 038b F3       		.byte	0xf3
 3327 038c 01       		.uleb128 0x1
 3328 038d 52       		.byte	0x52
 3329 038e 9F       		.byte	0x9f
 3330 038f 42000000 		.4byte	.LVL51
 3331 0393 50000000 		.4byte	.LFE13
 3332 0397 0100     		.2byte	0x1
 3333 0399 55       		.byte	0x55
 3334 039a 00000000 		.4byte	0
 3335 039e 00000000 		.4byte	0
ARM GAS  /tmp/ccRGZgHL.s 			page 60


 3336              	.LLST27:
 3337 03a2 18000000 		.4byte	.LVL44
 3338 03a6 28000000 		.4byte	.LVL46
 3339 03aa 0100     		.2byte	0x1
 3340 03ac 50       		.byte	0x50
 3341 03ad 28000000 		.4byte	.LVL46
 3342 03b1 3A000000 		.4byte	.LVL49
 3343 03b5 0100     		.2byte	0x1
 3344 03b7 55       		.byte	0x55
 3345 03b8 3A000000 		.4byte	.LVL49
 3346 03bc 3C000000 		.4byte	.LVL50
 3347 03c0 0100     		.2byte	0x1
 3348 03c2 50       		.byte	0x50
 3349 03c3 3C000000 		.4byte	.LVL50
 3350 03c7 42000000 		.4byte	.LVL51
 3351 03cb 0100     		.2byte	0x1
 3352 03cd 55       		.byte	0x55
 3353 03ce 00000000 		.4byte	0
 3354 03d2 00000000 		.4byte	0
 3355              	.LLST28:
 3356 03d6 00000000 		.4byte	.LFB12
 3357 03da 02000000 		.4byte	.LCFI6
 3358 03de 0200     		.2byte	0x2
 3359 03e0 7D       		.byte	0x7d
 3360 03e1 00       		.sleb128 0
 3361 03e2 02000000 		.4byte	.LCFI6
 3362 03e6 2C000000 		.4byte	.LFE12
 3363 03ea 0200     		.2byte	0x2
 3364 03ec 7D       		.byte	0x7d
 3365 03ed 10       		.sleb128 16
 3366 03ee 00000000 		.4byte	0
 3367 03f2 00000000 		.4byte	0
 3368              	.LLST29:
 3369 03f6 00000000 		.4byte	.LVL53
 3370 03fa 11000000 		.4byte	.LVL56-1
 3371 03fe 0100     		.2byte	0x1
 3372 0400 50       		.byte	0x50
 3373 0401 11000000 		.4byte	.LVL56-1
 3374 0405 2C000000 		.4byte	.LFE12
 3375 0409 0100     		.2byte	0x1
 3376 040b 56       		.byte	0x56
 3377 040c 00000000 		.4byte	0
 3378 0410 00000000 		.4byte	0
 3379              	.LLST30:
 3380 0414 00000000 		.4byte	.LVL53
 3381 0418 11000000 		.4byte	.LVL56-1
 3382 041c 0100     		.2byte	0x1
 3383 041e 51       		.byte	0x51
 3384 041f 11000000 		.4byte	.LVL56-1
 3385 0423 2C000000 		.4byte	.LFE12
 3386 0427 0100     		.2byte	0x1
 3387 0429 55       		.byte	0x55
 3388 042a 00000000 		.4byte	0
 3389 042e 00000000 		.4byte	0
 3390              	.LLST31:
 3391 0432 00000000 		.4byte	.LVL53
 3392 0436 11000000 		.4byte	.LVL56-1
ARM GAS  /tmp/ccRGZgHL.s 			page 61


 3393 043a 0100     		.2byte	0x1
 3394 043c 52       		.byte	0x52
 3395 043d 11000000 		.4byte	.LVL56-1
 3396 0441 1E000000 		.4byte	.LVL58
 3397 0445 0100     		.2byte	0x1
 3398 0447 54       		.byte	0x54
 3399 0448 1E000000 		.4byte	.LVL58
 3400 044c 2C000000 		.4byte	.LFE12
 3401 0450 0400     		.2byte	0x4
 3402 0452 F3       		.byte	0xf3
 3403 0453 01       		.uleb128 0x1
 3404 0454 52       		.byte	0x52
 3405 0455 9F       		.byte	0x9f
 3406 0456 00000000 		.4byte	0
 3407 045a 00000000 		.4byte	0
 3408              	.LLST32:
 3409 045e 1E000000 		.4byte	.LVL58
 3410 0462 21000000 		.4byte	.LVL59-1
 3411 0466 0100     		.2byte	0x1
 3412 0468 50       		.byte	0x50
 3413 0469 21000000 		.4byte	.LVL59-1
 3414 046d 2C000000 		.4byte	.LFE12
 3415 0471 0100     		.2byte	0x1
 3416 0473 54       		.byte	0x54
 3417 0474 00000000 		.4byte	0
 3418 0478 00000000 		.4byte	0
 3419              	.LLST33:
 3420 047c 0E000000 		.4byte	.LVL55
 3421 0480 11000000 		.4byte	.LVL56-1
 3422 0484 0100     		.2byte	0x1
 3423 0486 53       		.byte	0x53
 3424 0487 00000000 		.4byte	0
 3425 048b 00000000 		.4byte	0
 3426              	.LLST34:
 3427 048f 28000000 		.4byte	.LVL61
 3428 0493 2C000000 		.4byte	.LFE12
 3429 0497 0100     		.2byte	0x1
 3430 0499 53       		.byte	0x53
 3431 049a 00000000 		.4byte	0
 3432 049e 00000000 		.4byte	0
 3433              	.LLST35:
 3434 04a2 00000000 		.4byte	.LFB14
 3435 04a6 02000000 		.4byte	.LCFI7
 3436 04aa 0200     		.2byte	0x2
 3437 04ac 7D       		.byte	0x7d
 3438 04ad 00       		.sleb128 0
 3439 04ae 02000000 		.4byte	.LCFI7
 3440 04b2 48000000 		.4byte	.LFE14
 3441 04b6 0200     		.2byte	0x2
 3442 04b8 7D       		.byte	0x7d
 3443 04b9 10       		.sleb128 16
 3444 04ba 00000000 		.4byte	0
 3445 04be 00000000 		.4byte	0
 3446              	.LLST36:
 3447 04c2 00000000 		.4byte	.LVL62
 3448 04c6 09000000 		.4byte	.LVL63-1
 3449 04ca 0100     		.2byte	0x1
ARM GAS  /tmp/ccRGZgHL.s 			page 62


 3450 04cc 50       		.byte	0x50
 3451 04cd 09000000 		.4byte	.LVL63-1
 3452 04d1 48000000 		.4byte	.LFE14
 3453 04d5 0100     		.2byte	0x1
 3454 04d7 54       		.byte	0x54
 3455 04d8 00000000 		.4byte	0
 3456 04dc 00000000 		.4byte	0
 3457              	.LLST37:
 3458 04e0 00000000 		.4byte	.LVL62
 3459 04e4 09000000 		.4byte	.LVL63-1
 3460 04e8 0100     		.2byte	0x1
 3461 04ea 51       		.byte	0x51
 3462 04eb 09000000 		.4byte	.LVL63-1
 3463 04ef 48000000 		.4byte	.LFE14
 3464 04f3 0100     		.2byte	0x1
 3465 04f5 55       		.byte	0x55
 3466 04f6 00000000 		.4byte	0
 3467 04fa 00000000 		.4byte	0
 3468              	.LLST38:
 3469 04fe 00000000 		.4byte	.LFB16
 3470 0502 02000000 		.4byte	.LCFI8
 3471 0506 0200     		.2byte	0x2
 3472 0508 7D       		.byte	0x7d
 3473 0509 00       		.sleb128 0
 3474 050a 02000000 		.4byte	.LCFI8
 3475 050e 50000000 		.4byte	.LFE16
 3476 0512 0200     		.2byte	0x2
 3477 0514 7D       		.byte	0x7d
 3478 0515 10       		.sleb128 16
 3479 0516 00000000 		.4byte	0
 3480 051a 00000000 		.4byte	0
 3481              	.LLST39:
 3482 051e 00000000 		.4byte	.LVL66
 3483 0522 0B000000 		.4byte	.LVL67-1
 3484 0526 0100     		.2byte	0x1
 3485 0528 50       		.byte	0x50
 3486 0529 0B000000 		.4byte	.LVL67-1
 3487 052d 50000000 		.4byte	.LFE16
 3488 0531 0100     		.2byte	0x1
 3489 0533 54       		.byte	0x54
 3490 0534 00000000 		.4byte	0
 3491 0538 00000000 		.4byte	0
 3492              	.LLST40:
 3493 053c 00000000 		.4byte	.LVL66
 3494 0540 0B000000 		.4byte	.LVL67-1
 3495 0544 0100     		.2byte	0x1
 3496 0546 51       		.byte	0x51
 3497 0547 0B000000 		.4byte	.LVL67-1
 3498 054b 50000000 		.4byte	.LFE16
 3499 054f 0100     		.2byte	0x1
 3500 0551 56       		.byte	0x56
 3501 0552 00000000 		.4byte	0
 3502 0556 00000000 		.4byte	0
 3503              	.LLST41:
 3504 055a 00000000 		.4byte	.LVL66
 3505 055e 0B000000 		.4byte	.LVL67-1
 3506 0562 0100     		.2byte	0x1
ARM GAS  /tmp/ccRGZgHL.s 			page 63


 3507 0564 52       		.byte	0x52
 3508 0565 0B000000 		.4byte	.LVL67-1
 3509 0569 1C000000 		.4byte	.LVL69
 3510 056d 0100     		.2byte	0x1
 3511 056f 55       		.byte	0x55
 3512 0570 1C000000 		.4byte	.LVL69
 3513 0574 42000000 		.4byte	.LVL73
 3514 0578 0400     		.2byte	0x4
 3515 057a F3       		.byte	0xf3
 3516 057b 01       		.uleb128 0x1
 3517 057c 52       		.byte	0x52
 3518 057d 9F       		.byte	0x9f
 3519 057e 42000000 		.4byte	.LVL73
 3520 0582 50000000 		.4byte	.LFE16
 3521 0586 0100     		.2byte	0x1
 3522 0588 55       		.byte	0x55
 3523 0589 00000000 		.4byte	0
 3524 058d 00000000 		.4byte	0
 3525              	.LLST42:
 3526 0591 1A000000 		.4byte	.LVL68
 3527 0595 2A000000 		.4byte	.LVL70
 3528 0599 0100     		.2byte	0x1
 3529 059b 50       		.byte	0x50
 3530 059c 2A000000 		.4byte	.LVL70
 3531 05a0 42000000 		.4byte	.LVL73
 3532 05a4 0100     		.2byte	0x1
 3533 05a6 55       		.byte	0x55
 3534 05a7 00000000 		.4byte	0
 3535 05ab 00000000 		.4byte	0
 3536              	.LLST43:
 3537 05af 00000000 		.4byte	.LFB15
 3538 05b3 02000000 		.4byte	.LCFI9
 3539 05b7 0200     		.2byte	0x2
 3540 05b9 7D       		.byte	0x7d
 3541 05ba 00       		.sleb128 0
 3542 05bb 02000000 		.4byte	.LCFI9
 3543 05bf 2C000000 		.4byte	.LFE15
 3544 05c3 0200     		.2byte	0x2
 3545 05c5 7D       		.byte	0x7d
 3546 05c6 10       		.sleb128 16
 3547 05c7 00000000 		.4byte	0
 3548 05cb 00000000 		.4byte	0
 3549              	.LLST44:
 3550 05cf 00000000 		.4byte	.LVL75
 3551 05d3 11000000 		.4byte	.LVL78-1
 3552 05d7 0100     		.2byte	0x1
 3553 05d9 50       		.byte	0x50
 3554 05da 11000000 		.4byte	.LVL78-1
 3555 05de 2C000000 		.4byte	.LFE15
 3556 05e2 0100     		.2byte	0x1
 3557 05e4 56       		.byte	0x56
 3558 05e5 00000000 		.4byte	0
 3559 05e9 00000000 		.4byte	0
 3560              	.LLST45:
 3561 05ed 00000000 		.4byte	.LVL75
 3562 05f1 11000000 		.4byte	.LVL78-1
 3563 05f5 0100     		.2byte	0x1
ARM GAS  /tmp/ccRGZgHL.s 			page 64


 3564 05f7 51       		.byte	0x51
 3565 05f8 11000000 		.4byte	.LVL78-1
 3566 05fc 2C000000 		.4byte	.LFE15
 3567 0600 0100     		.2byte	0x1
 3568 0602 55       		.byte	0x55
 3569 0603 00000000 		.4byte	0
 3570 0607 00000000 		.4byte	0
 3571              	.LLST46:
 3572 060b 00000000 		.4byte	.LVL75
 3573 060f 11000000 		.4byte	.LVL78-1
 3574 0613 0100     		.2byte	0x1
 3575 0615 52       		.byte	0x52
 3576 0616 11000000 		.4byte	.LVL78-1
 3577 061a 1E000000 		.4byte	.LVL80
 3578 061e 0100     		.2byte	0x1
 3579 0620 54       		.byte	0x54
 3580 0621 1E000000 		.4byte	.LVL80
 3581 0625 2C000000 		.4byte	.LFE15
 3582 0629 0400     		.2byte	0x4
 3583 062b F3       		.byte	0xf3
 3584 062c 01       		.uleb128 0x1
 3585 062d 52       		.byte	0x52
 3586 062e 9F       		.byte	0x9f
 3587 062f 00000000 		.4byte	0
 3588 0633 00000000 		.4byte	0
 3589              	.LLST47:
 3590 0637 1E000000 		.4byte	.LVL80
 3591 063b 21000000 		.4byte	.LVL81-1
 3592 063f 0100     		.2byte	0x1
 3593 0641 50       		.byte	0x50
 3594 0642 21000000 		.4byte	.LVL81-1
 3595 0646 2C000000 		.4byte	.LFE15
 3596 064a 0100     		.2byte	0x1
 3597 064c 54       		.byte	0x54
 3598 064d 00000000 		.4byte	0
 3599 0651 00000000 		.4byte	0
 3600              	.LLST48:
 3601 0655 0E000000 		.4byte	.LVL77
 3602 0659 11000000 		.4byte	.LVL78-1
 3603 065d 0100     		.2byte	0x1
 3604 065f 53       		.byte	0x53
 3605 0660 00000000 		.4byte	0
 3606 0664 00000000 		.4byte	0
 3607              	.LLST49:
 3608 0668 28000000 		.4byte	.LVL83
 3609 066c 2C000000 		.4byte	.LFE15
 3610 0670 0100     		.2byte	0x1
 3611 0672 53       		.byte	0x53
 3612 0673 00000000 		.4byte	0
 3613 0677 00000000 		.4byte	0
 3614              	.LLST50:
 3615 067b 00000000 		.4byte	.LFB17
 3616 067f 02000000 		.4byte	.LCFI10
 3617 0683 0200     		.2byte	0x2
 3618 0685 7D       		.byte	0x7d
 3619 0686 00       		.sleb128 0
 3620 0687 02000000 		.4byte	.LCFI10
ARM GAS  /tmp/ccRGZgHL.s 			page 65


 3621 068b 4C000000 		.4byte	.LFE17
 3622 068f 0200     		.2byte	0x2
 3623 0691 7D       		.byte	0x7d
 3624 0692 10       		.sleb128 16
 3625 0693 00000000 		.4byte	0
 3626 0697 00000000 		.4byte	0
 3627              	.LLST51:
 3628 069b 00000000 		.4byte	.LVL84
 3629 069f 09000000 		.4byte	.LVL85-1
 3630 06a3 0100     		.2byte	0x1
 3631 06a5 50       		.byte	0x50
 3632 06a6 09000000 		.4byte	.LVL85-1
 3633 06aa 4C000000 		.4byte	.LFE17
 3634 06ae 0100     		.2byte	0x1
 3635 06b0 54       		.byte	0x54
 3636 06b1 00000000 		.4byte	0
 3637 06b5 00000000 		.4byte	0
 3638              	.LLST52:
 3639 06b9 00000000 		.4byte	.LVL84
 3640 06bd 09000000 		.4byte	.LVL85-1
 3641 06c1 0100     		.2byte	0x1
 3642 06c3 51       		.byte	0x51
 3643 06c4 09000000 		.4byte	.LVL85-1
 3644 06c8 4C000000 		.4byte	.LFE17
 3645 06cc 0100     		.2byte	0x1
 3646 06ce 55       		.byte	0x55
 3647 06cf 00000000 		.4byte	0
 3648 06d3 00000000 		.4byte	0
 3649              		.section	.debug_aranges,"",%progbits
 3650 0000 6C000000 		.4byte	0x6c
 3651 0004 0200     		.2byte	0x2
 3652 0006 00000000 		.4byte	.Ldebug_info0
 3653 000a 04       		.byte	0x4
 3654 000b 00       		.byte	0
 3655 000c 0000     		.2byte	0
 3656 000e 0000     		.2byte	0
 3657 0010 00000000 		.4byte	.LFB7
 3658 0014 40000000 		.4byte	.LFE7-.LFB7
 3659 0018 00000000 		.4byte	.LFB8
 3660 001c 4C000000 		.4byte	.LFE8-.LFB8
 3661 0020 00000000 		.4byte	.LFB10
 3662 0024 4C000000 		.4byte	.LFE10-.LFB10
 3663 0028 00000000 		.4byte	.LFB9
 3664 002c 2C000000 		.4byte	.LFE9-.LFB9
 3665 0030 00000000 		.4byte	.LFB11
 3666 0034 48000000 		.4byte	.LFE11-.LFB11
 3667 0038 00000000 		.4byte	.LFB13
 3668 003c 50000000 		.4byte	.LFE13-.LFB13
 3669 0040 00000000 		.4byte	.LFB12
 3670 0044 2C000000 		.4byte	.LFE12-.LFB12
 3671 0048 00000000 		.4byte	.LFB14
 3672 004c 48000000 		.4byte	.LFE14-.LFB14
 3673 0050 00000000 		.4byte	.LFB16
 3674 0054 50000000 		.4byte	.LFE16-.LFB16
 3675 0058 00000000 		.4byte	.LFB15
 3676 005c 2C000000 		.4byte	.LFE15-.LFB15
 3677 0060 00000000 		.4byte	.LFB17
ARM GAS  /tmp/ccRGZgHL.s 			page 66


 3678 0064 4C000000 		.4byte	.LFE17-.LFB17
 3679 0068 00000000 		.4byte	0
 3680 006c 00000000 		.4byte	0
 3681              		.section	.debug_ranges,"",%progbits
 3682              	.Ldebug_ranges0:
 3683 0000 02000000 		.4byte	.LBB4
 3684 0004 04000000 		.4byte	.LBE4
 3685 0008 0A000000 		.4byte	.LBB5
 3686 000c 0E000000 		.4byte	.LBE5
 3687 0010 00000000 		.4byte	0
 3688 0014 00000000 		.4byte	0
 3689 0018 02000000 		.4byte	.LBB7
 3690 001c 04000000 		.4byte	.LBE7
 3691 0020 0A000000 		.4byte	.LBB8
 3692 0024 0E000000 		.4byte	.LBE8
 3693 0028 00000000 		.4byte	0
 3694 002c 00000000 		.4byte	0
 3695 0030 02000000 		.4byte	.LBB10
 3696 0034 04000000 		.4byte	.LBE10
 3697 0038 0A000000 		.4byte	.LBB11
 3698 003c 0E000000 		.4byte	.LBE11
 3699 0040 00000000 		.4byte	0
 3700 0044 00000000 		.4byte	0
 3701 0048 00000000 		.4byte	.LFB7
 3702 004c 40000000 		.4byte	.LFE7
 3703 0050 00000000 		.4byte	.LFB8
 3704 0054 4C000000 		.4byte	.LFE8
 3705 0058 00000000 		.4byte	.LFB10
 3706 005c 4C000000 		.4byte	.LFE10
 3707 0060 00000000 		.4byte	.LFB9
 3708 0064 2C000000 		.4byte	.LFE9
 3709 0068 00000000 		.4byte	.LFB11
 3710 006c 48000000 		.4byte	.LFE11
 3711 0070 00000000 		.4byte	.LFB13
 3712 0074 50000000 		.4byte	.LFE13
 3713 0078 00000000 		.4byte	.LFB12
 3714 007c 2C000000 		.4byte	.LFE12
 3715 0080 00000000 		.4byte	.LFB14
 3716 0084 48000000 		.4byte	.LFE14
 3717 0088 00000000 		.4byte	.LFB16
 3718 008c 50000000 		.4byte	.LFE16
 3719 0090 00000000 		.4byte	.LFB15
 3720 0094 2C000000 		.4byte	.LFE15
 3721 0098 00000000 		.4byte	.LFB17
 3722 009c 4C000000 		.4byte	.LFE17
 3723 00a0 00000000 		.4byte	0
 3724 00a4 00000000 		.4byte	0
 3725              		.section	.debug_line,"",%progbits
 3726              	.Ldebug_line0:
 3727 0000 39030000 		.section	.debug_str,"MS",%progbits,1
 3727      0200AC01 
 3727      00000201 
 3727      FB0E0D00 
 3727      01010101 
 3728              	.LASF36:
 3729 0000 705F6D73 		.ascii	"p_msg\000"
 3729      6700
ARM GAS  /tmp/ccRGZgHL.s 			page 67


 3730              	.LASF87:
 3731 0006 63685365 		.ascii	"chSemSignalI\000"
 3731      6D536967 
 3731      6E616C49 
 3731      00
 3732              	.LASF81:
 3733 0013 63684462 		.ascii	"chDbgPanic\000"
 3733      6750616E 
 3733      696300
 3734              	.LASF62:
 3735 001e 7264796D 		.ascii	"rdymsg\000"
 3735      736700
 3736              	.LASF11:
 3737 0025 75696E74 		.ascii	"uint64_t\000"
 3737      36345F74 
 3737      00
 3738              	.LASF72:
 3739 002e 63684D42 		.ascii	"chMBPostI\000"
 3739      506F7374 
 3739      4900
 3740              	.LASF70:
 3741 0038 63684D42 		.ascii	"chMBPostS\000"
 3741      506F7374 
 3741      5300
 3742              	.LASF61:
 3743 0042 4D61696C 		.ascii	"Mailbox\000"
 3743      626F7800 
 3744              	.LASF75:
 3745 004a 63684D42 		.ascii	"chMBPostAheadI\000"
 3745      506F7374 
 3745      41686561 
 3745      644900
 3746              	.LASF12:
 3747 0059 6C6F6E67 		.ascii	"long long unsigned int\000"
 3747      206C6F6E 
 3747      6720756E 
 3747      7369676E 
 3747      65642069 
 3748              	.LASF63:
 3749 0070 65786974 		.ascii	"exitcode\000"
 3749      636F6465 
 3749      00
 3750              	.LASF73:
 3751 0079 63684D42 		.ascii	"chMBPostAheadS\000"
 3751      506F7374 
 3751      41686561 
 3751      645300
 3752              	.LASF57:
 3753 0088 6D625F77 		.ascii	"mb_wrptr\000"
 3753      72707472 
 3753      00
 3754              	.LASF24:
 3755 0091 705F7072 		.ascii	"p_prio\000"
 3755      696F00
 3756              	.LASF10:
 3757 0098 6C6F6E67 		.ascii	"long long int\000"
 3757      206C6F6E 
ARM GAS  /tmp/ccRGZgHL.s 			page 68


 3757      6720696E 
 3757      7400
 3758              	.LASF1:
 3759 00a6 7369676E 		.ascii	"signed char\000"
 3759      65642063 
 3759      68617200 
 3760              	.LASF40:
 3761 00b2 705F6D70 		.ascii	"p_mpool\000"
 3761      6F6F6C00 
 3762              	.LASF52:
 3763 00ba 6D5F7175 		.ascii	"m_queue\000"
 3763      65756500 
 3764              	.LASF7:
 3765 00c2 6C6F6E67 		.ascii	"long int\000"
 3765      20696E74 
 3765      00
 3766              	.LASF14:
 3767 00cb 74737461 		.ascii	"tstate_t\000"
 3767      74655F74 
 3767      00
 3768              	.LASF26:
 3769 00d4 705F6E65 		.ascii	"p_newer\000"
 3769      77657200 
 3770              	.LASF49:
 3771 00dc 735F7175 		.ascii	"s_queue\000"
 3771      65756500 
 3772              	.LASF84:
 3773 00e4 63685363 		.ascii	"chSchRescheduleS\000"
 3773      68526573 
 3773      63686564 
 3773      756C6553 
 3773      00
 3774              	.LASF43:
 3775 00f5 72656761 		.ascii	"regarm_t\000"
 3775      726D5F74 
 3775      00
 3776              	.LASF20:
 3777 00fe 636E745F 		.ascii	"cnt_t\000"
 3777      7400
 3778              	.LASF29:
 3779 0104 705F7374 		.ascii	"p_stklimit\000"
 3779      6B6C696D 
 3779      697400
 3780              	.LASF0:
 3781 010f 756E7369 		.ascii	"unsigned int\000"
 3781      676E6564 
 3781      20696E74 
 3781      00
 3782              	.LASF67:
 3783 011c 63684D42 		.ascii	"chMBInit\000"
 3783      496E6974 
 3783      00
 3784              	.LASF89:
 3785 0125 474E5520 		.ascii	"GNU C 4.7.3 20121207 (release) [ARM/embedded-4_7-br"
 3785      4320342E 
 3785      372E3320 
 3785      32303132 
ARM GAS  /tmp/ccRGZgHL.s 			page 69


 3785      31323037 
 3786 0158 616E6368 		.ascii	"anch revision 194305]\000"
 3786      20726576 
 3786      6973696F 
 3786      6E203139 
 3786      34333035 
 3787              	.LASF9:
 3788 016e 6C6F6E67 		.ascii	"long unsigned int\000"
 3788      20756E73 
 3788      69676E65 
 3788      6420696E 
 3788      7400
 3789              	.LASF90:
 3790 0180 2F686F6D 		.ascii	"/home/formica/chibios/chibios/os/kernel/src/chmboxe"
 3790      652F666F 
 3790      726D6963 
 3790      612F6368 
 3790      6962696F 
 3791 01b3 732E6300 		.ascii	"s.c\000"
 3792              	.LASF60:
 3793 01b7 6D625F65 		.ascii	"mb_emptysem\000"
 3793      6D707479 
 3793      73656D00 
 3794              	.LASF50:
 3795 01c3 735F636E 		.ascii	"s_cnt\000"
 3795      7400
 3796              	.LASF46:
 3797 01c9 636F6E74 		.ascii	"context\000"
 3797      65787400 
 3798              	.LASF4:
 3799 01d1 73686F72 		.ascii	"short unsigned int\000"
 3799      7420756E 
 3799      7369676E 
 3799      65642069 
 3799      6E7400
 3800              	.LASF79:
 3801 01e4 63684D42 		.ascii	"chMBFetchI\000"
 3801      46657463 
 3801      684900
 3802              	.LASF17:
 3803 01ef 6D73675F 		.ascii	"msg_t\000"
 3803      7400
 3804              	.LASF88:
 3805 01f5 63684462 		.ascii	"chDbgCheckClassI\000"
 3805      67436865 
 3805      636B436C 
 3805      61737349 
 3805      00
 3806              	.LASF76:
 3807 0206 63684D42 		.ascii	"chMBFetchS\000"
 3807      46657463 
 3807      685300
 3808              	.LASF13:
 3809 0211 746D6F64 		.ascii	"tmode_t\000"
 3809      655F7400 
 3810              	.LASF86:
 3811 0219 63684462 		.ascii	"chDbgCheckClassS\000"
ARM GAS  /tmp/ccRGZgHL.s 			page 70


 3811      67436865 
 3811      636B436C 
 3811      61737353 
 3811      00
 3812              	.LASF42:
 3813 022a 54687265 		.ascii	"ThreadsList\000"
 3813      6164734C 
 3813      69737400 
 3814              	.LASF18:
 3815 0236 6576656E 		.ascii	"eventmask_t\000"
 3815      746D6173 
 3815      6B5F7400 
 3816              	.LASF51:
 3817 0242 4D757465 		.ascii	"Mutex\000"
 3817      7800
 3818              	.LASF77:
 3819 0248 6D736770 		.ascii	"msgp\000"
 3819      00
 3820              	.LASF44:
 3821 024d 73746B61 		.ascii	"stkalign_t\000"
 3821      6C69676E 
 3821      5F7400
 3822              	.LASF85:
 3823 0258 6462675F 		.ascii	"dbg_check_unlock\000"
 3823      63686563 
 3823      6B5F756E 
 3823      6C6F636B 
 3823      00
 3824              	.LASF47:
 3825 0269 73697A65 		.ascii	"sizetype\000"
 3825      74797065 
 3825      00
 3826              	.LASF58:
 3827 0272 6D625F72 		.ascii	"mb_rdptr\000"
 3827      64707472 
 3827      00
 3828              	.LASF68:
 3829 027b 63684D42 		.ascii	"chMBReset\000"
 3829      52657365 
 3829      7400
 3830              	.LASF27:
 3831 0285 705F6F6C 		.ascii	"p_older\000"
 3831      64657200 
 3832              	.LASF41:
 3833 028d 54687265 		.ascii	"ThreadsQueue\000"
 3833      61647351 
 3833      75657565 
 3833      00
 3834              	.LASF55:
 3835 029a 6D625F62 		.ascii	"mb_buffer\000"
 3835      75666665 
 3835      7200
 3836              	.LASF69:
 3837 02a4 74696D65 		.ascii	"time\000"
 3837      00
 3838              	.LASF83:
 3839 02a9 6462675F 		.ascii	"dbg_check_lock\000"
ARM GAS  /tmp/ccRGZgHL.s 			page 71


 3839      63686563 
 3839      6B5F6C6F 
 3839      636B00
 3840              	.LASF15:
 3841 02b8 74726566 		.ascii	"trefs_t\000"
 3841      735F7400 
 3842              	.LASF23:
 3843 02c0 705F7072 		.ascii	"p_prev\000"
 3843      657600
 3844              	.LASF16:
 3845 02c7 74707269 		.ascii	"tprio_t\000"
 3845      6F5F7400 
 3846              	.LASF6:
 3847 02cf 696E7433 		.ascii	"int32_t\000"
 3847      325F7400 
 3848              	.LASF2:
 3849 02d7 756E7369 		.ascii	"unsigned char\000"
 3849      676E6564 
 3849      20636861 
 3849      7200
 3850              	.LASF56:
 3851 02e5 6D625F74 		.ascii	"mb_top\000"
 3851      6F7000
 3852              	.LASF38:
 3853 02ec 705F6D74 		.ascii	"p_mtxlist\000"
 3853      786C6973 
 3853      7400
 3854              	.LASF3:
 3855 02f6 73686F72 		.ascii	"short int\000"
 3855      7420696E 
 3855      7400
 3856              	.LASF30:
 3857 0300 705F7374 		.ascii	"p_state\000"
 3857      61746500 
 3858              	.LASF65:
 3859 0308 65776D61 		.ascii	"ewmask\000"
 3859      736B00
 3860              	.LASF22:
 3861 030f 705F6E65 		.ascii	"p_next\000"
 3861      787400
 3862              	.LASF31:
 3863 0316 705F666C 		.ascii	"p_flags\000"
 3863      61677300 
 3864              	.LASF71:
 3865 031e 63684D42 		.ascii	"chMBPost\000"
 3865      506F7374 
 3865      00
 3866              	.LASF21:
 3867 0327 54687265 		.ascii	"Thread\000"
 3867      616400
 3868              	.LASF37:
 3869 032e 705F6570 		.ascii	"p_epending\000"
 3869      656E6469 
 3869      6E6700
 3870              	.LASF8:
 3871 0339 75696E74 		.ascii	"uint32_t\000"
 3871      33325F74 
ARM GAS  /tmp/ccRGZgHL.s 			page 72


 3871      00
 3872              	.LASF66:
 3873 0342 63686172 		.ascii	"char\000"
 3873      00
 3874              	.LASF91:
 3875 0347 63685365 		.ascii	"chSemWaitTimeoutS\000"
 3875      6D576169 
 3875      7454696D 
 3875      656F7574 
 3875      5300
 3876              	.LASF54:
 3877 0359 6D5F6E65 		.ascii	"m_next\000"
 3877      787400
 3878              	.LASF19:
 3879 0360 73797374 		.ascii	"systime_t\000"
 3879      696D655F 
 3879      7400
 3880              	.LASF39:
 3881 036a 705F7265 		.ascii	"p_realprio\000"
 3881      616C7072 
 3881      696F00
 3882              	.LASF33:
 3883 0375 705F7469 		.ascii	"p_time\000"
 3883      6D6500
 3884              	.LASF74:
 3885 037c 63684D42 		.ascii	"chMBPostAhead\000"
 3885      506F7374 
 3885      41686561 
 3885      6400
 3886              	.LASF45:
 3887 038a 696E7463 		.ascii	"intctx\000"
 3887      747800
 3888              	.LASF35:
 3889 0391 705F6D73 		.ascii	"p_msgqueue\000"
 3889      67717565 
 3889      756500
 3890              	.LASF78:
 3891 039c 63684D42 		.ascii	"chMBFetch\000"
 3891      46657463 
 3891      6800
 3892              	.LASF48:
 3893 03a6 53656D61 		.ascii	"Semaphore\000"
 3893      70686F72 
 3893      6500
 3894              	.LASF59:
 3895 03b0 6D625F66 		.ascii	"mb_fullsem\000"
 3895      756C6C73 
 3895      656D00
 3896              	.LASF32:
 3897 03bb 705F7265 		.ascii	"p_refs\000"
 3897      667300
 3898              	.LASF82:
 3899 03c2 63685365 		.ascii	"chSemResetI\000"
 3899      6D526573 
 3899      65744900 
 3900              	.LASF5:
 3901 03ce 75696E74 		.ascii	"uint8_t\000"
ARM GAS  /tmp/ccRGZgHL.s 			page 73


 3901      385F7400 
 3902              	.LASF64:
 3903 03d6 77746F62 		.ascii	"wtobjp\000"
 3903      6A7000
 3904              	.LASF28:
 3905 03dd 705F6E61 		.ascii	"p_name\000"
 3905      6D6500
 3906              	.LASF53:
 3907 03e4 6D5F6F77 		.ascii	"m_owner\000"
 3907      6E657200 
 3908              	.LASF25:
 3909 03ec 705F6374 		.ascii	"p_ctx\000"
 3909      7800
 3910              	.LASF34:
 3911 03f2 705F7761 		.ascii	"p_waiting\000"
 3911      6974696E 
 3911      6700
 3912              	.LASF80:
 3913 03fc 63685365 		.ascii	"chSemInit\000"
 3913      6D496E69 
 3913      7400
 3914              		.ident	"GCC: (GNU Tools for ARM Embedded Processors) 4.7.3 20121207 (release) [ARM/embedded-4_7-br
ARM GAS  /tmp/ccRGZgHL.s 			page 74


DEFINED SYMBOLS
                            *ABS*:00000000 chmboxes.c
     /tmp/ccRGZgHL.s:19     .text.chMBInit:00000000 $t
     /tmp/ccRGZgHL.s:25     .text.chMBInit:00000000 chMBInit
     /tmp/ccRGZgHL.s:86     .text.chMBInit:0000003c $d
     /tmp/ccRGZgHL.s:91     .text.chMBReset:00000000 $t
     /tmp/ccRGZgHL.s:97     .text.chMBReset:00000000 chMBReset
     /tmp/ccRGZgHL.s:173    .text.chMBReset:00000048 $d
     /tmp/ccRGZgHL.s:178    .text.chMBPostS:00000000 $t
     /tmp/ccRGZgHL.s:184    .text.chMBPostS:00000000 chMBPostS
     /tmp/ccRGZgHL.s:256    .text.chMBPostS:00000048 $d
     /tmp/ccRGZgHL.s:261    .text.chMBPost:00000000 $t
     /tmp/ccRGZgHL.s:267    .text.chMBPost:00000000 chMBPost
     /tmp/ccRGZgHL.s:327    .text.chMBPostI:00000000 $t
     /tmp/ccRGZgHL.s:333    .text.chMBPostI:00000000 chMBPostI
     /tmp/ccRGZgHL.s:402    .text.chMBPostI:00000044 $d
     /tmp/ccRGZgHL.s:407    .text.chMBPostAheadS:00000000 $t
     /tmp/ccRGZgHL.s:413    .text.chMBPostAheadS:00000000 chMBPostAheadS
     /tmp/ccRGZgHL.s:487    .text.chMBPostAheadS:0000004c $d
     /tmp/ccRGZgHL.s:492    .text.chMBPostAhead:00000000 $t
     /tmp/ccRGZgHL.s:498    .text.chMBPostAhead:00000000 chMBPostAhead
     /tmp/ccRGZgHL.s:558    .text.chMBPostAheadI:00000000 $t
     /tmp/ccRGZgHL.s:564    .text.chMBPostAheadI:00000000 chMBPostAheadI
     /tmp/ccRGZgHL.s:633    .text.chMBPostAheadI:00000044 $d
     /tmp/ccRGZgHL.s:638    .text.chMBFetchS:00000000 $t
     /tmp/ccRGZgHL.s:644    .text.chMBFetchS:00000000 chMBFetchS
     /tmp/ccRGZgHL.s:717    .text.chMBFetchS:0000004c $d
     /tmp/ccRGZgHL.s:722    .text.chMBFetch:00000000 $t
     /tmp/ccRGZgHL.s:728    .text.chMBFetch:00000000 chMBFetch
     /tmp/ccRGZgHL.s:788    .text.chMBFetchI:00000000 $t
     /tmp/ccRGZgHL.s:794    .text.chMBFetchI:00000000 chMBFetchI
     /tmp/ccRGZgHL.s:866    .text.chMBFetchI:00000048 $d
     /tmp/ccRGZgHL.s:871    .rodata.str1.4:00000000 $d
                     .debug_frame:00000010 $d
     /tmp/ccRGZgHL.s:177    .text.chMBReset:0000004c $t
     /tmp/ccRGZgHL.s:260    .text.chMBPostS:0000004c $t
     /tmp/ccRGZgHL.s:406    .text.chMBPostI:00000048 $t
     /tmp/ccRGZgHL.s:637    .text.chMBPostAheadI:00000048 $t
     /tmp/ccRGZgHL.s:870    .text.chMBFetchI:0000004c $t

UNDEFINED SYMBOLS
chSemInit
chDbgPanic
dbg_check_lock
chSemResetI
chSchRescheduleS
dbg_check_unlock
chDbgCheckClassS
chSemWaitTimeoutS
chSemSignalI
chDbgCheckClassI
