ARM GAS  /tmp/ccRGZgHL.s 			page 1


   1              		.syntax unified
   2              		.cpu cortex-m3
   3              		.fpu softvfp
   4              		.eabi_attribute 20, 1
   5              		.eabi_attribute 21, 1
   6              		.eabi_attribute 23, 3
   7              		.eabi_attribute 24, 1
   8              		.eabi_attribute 25, 1
   9              		.eabi_attribute 26, 1
  10              		.eabi_attribute 30, 2
  11              		.eabi_attribute 34, 1
  12              		.eabi_attribute 18, 4
  13              		.thumb
  14              		.file	"chmboxes.c"
  15              		.text
  16              	.Ltext0:
  17              		.cfi_sections	.debug_frame
  18              		.section	.text.chMBInit,"ax",%progbits
  19              		.align	2
  20              		.p2align 4,,15
  21              		.global	chMBInit
  22              		.thumb
  23              		.thumb_func
  24              		.type	chMBInit, %function
  25              	chMBInit:
  26              	.LFB7:
  27              		.file 1 "/home/formica/chibios/chibios/os/kernel/src/chmboxes.c"
  28              		.loc 1 72 0
  29              		.cfi_startproc
  30              		@ args = 0, pretend = 0, frame = 0
  31              		@ frame_needed = 0, uses_anonymous_args = 0
  32              	.LVL0:
  33 0000 70B5     		push	{r4, r5, r6, lr}
  34              	.LCFI0:
  35              		.cfi_def_cfa_offset 16
  36              		.cfi_offset 4, -16
  37              		.cfi_offset 5, -12
  38              		.cfi_offset 6, -8
  39              		.cfi_offset 14, -4
  40              		.loc 1 74 0
  41 0002 0446     		mov	r4, r0
  42              		.loc 1 72 0
  43 0004 0D46     		mov	r5, r1
  44 0006 1646     		mov	r6, r2
  45              		.loc 1 74 0
  46 0008 A0B1     		cbz	r0, .L2
  47              		.loc 1 74 0 is_stmt 0 discriminator 2
  48 000a 99B1     		cbz	r1, .L2
  49              		.loc 1 74 0 discriminator 3
  50 000c 002A     		cmp	r2, #0
  51 000e 11DD     		ble	.L2
  52              	.LVL1:
  53              	.L3:
  54              		.loc 1 77 0 is_stmt 1
  55 0010 05EB8603 		add	r3, r5, r6, lsl #2
  56              		.loc 1 78 0
  57 0014 04F11C00 		add	r0, r4, #28
ARM GAS  /tmp/ccRGZgHL.s 			page 2


  58 0018 3146     		mov	r1, r6
  59              		.loc 1 76 0
  60 001a E560     		str	r5, [r4, #12]
  61 001c A560     		str	r5, [r4, #8]
  62 001e 2560     		str	r5, [r4, #0]
  63              		.loc 1 77 0
  64 0020 6360     		str	r3, [r4, #4]
  65              		.loc 1 78 0
  66 0022 FFF7FEFF 		bl	chSemInit
  67              	.LVL2:
  68              		.loc 1 79 0
  69 0026 04F11000 		add	r0, r4, #16
  70 002a 0021     		movs	r1, #0
  71              		.loc 1 80 0
  72 002c BDE87040 		pop	{r4, r5, r6, lr}
  73              		.loc 1 79 0
  74 0030 FFF7FEBF 		b	chSemInit
  75              	.LVL3:
  76              	.L2:
  77              		.loc 1 74 0 discriminator 1
  78 0034 0148     		ldr	r0, .L11
  79              	.LVL4:
  80 0036 FFF7FEFF 		bl	chDbgPanic
  81              	.LVL5:
  82 003a E9E7     		b	.L3
  83              	.L12:
  84              		.align	2
  85              	.L11:
  86 003c 00000000 		.word	.LC0
  87              		.cfi_endproc
  88              	.LFE7:
  89              		.size	chMBInit, .-chMBInit
  90              		.section	.text.chMBReset,"ax",%progbits
  91              		.align	2
  92              		.p2align 4,,15
  93              		.global	chMBReset
  94              		.thumb
  95              		.thumb_func
  96              		.type	chMBReset, %function
  97              	chMBReset:
  98              	.LFB8:
  99              		.loc 1 91 0
 100              		.cfi_startproc
 101              		@ args = 0, pretend = 0, frame = 0
 102              		@ frame_needed = 0, uses_anonymous_args = 0
 103              	.LVL6:
 104 0000 10B5     		push	{r4, lr}
 105              	.LCFI1:
 106              		.cfi_def_cfa_offset 8
 107              		.cfi_offset 4, -8
 108              		.cfi_offset 14, -4
 109              		.loc 1 93 0
 110 0002 0446     		mov	r4, r0
 111 0004 D8B1     		cbz	r0, .L15
 112              	.LVL7:
 113              	.L14:
 114              	.LBB2:
ARM GAS  /tmp/ccRGZgHL.s 			page 3


 115              		.loc 1 95 0
 116 0006 2023     		movs	r3, #32
 117              	.LVL8:
 118              	@ 95 "/home/formica/chibios/chibios/os/kernel/src/chmboxes.c" 1
 119 0008 83F31188 		msr     BASEPRI, r3
 120              	@ 0 "" 2
 121              	.LVL9:
 122              		.thumb
 123              	.LBE2:
 124 000c FFF7FEFF 		bl	dbg_check_lock
 125              	.LVL10:
 126              		.loc 1 96 0
 127 0010 2368     		ldr	r3, [r4, #0]
 128              		.loc 1 97 0
 129 0012 6168     		ldr	r1, [r4, #4]
 130              		.loc 1 96 0
 131 0014 E360     		str	r3, [r4, #12]
 132              		.loc 1 97 0
 133 0016 CA1A     		subs	r2, r1, r3
 134 0018 9110     		asrs	r1, r2, #2
 135              		.loc 1 96 0
 136 001a A360     		str	r3, [r4, #8]
 137              		.loc 1 97 0
 138 001c 04F11C00 		add	r0, r4, #28
 139 0020 FFF7FEFF 		bl	chSemResetI
 140              	.LVL11:
 141              		.loc 1 98 0
 142 0024 04F11000 		add	r0, r4, #16
 143 0028 0021     		movs	r1, #0
 144 002a FFF7FEFF 		bl	chSemResetI
 145              	.LVL12:
 146              		.loc 1 99 0
 147 002e FFF7FEFF 		bl	chSchRescheduleS
 148              	.LVL13:
 149              		.loc 1 100 0
 150 0032 FFF7FEFF 		bl	dbg_check_unlock
 151              	.LVL14:
 152              	.LBB3:
 153 0036 0023     		movs	r3, #0
 154              	.LVL15:
 155              	@ 100 "/home/formica/chibios/chibios/os/kernel/src/chmboxes.c" 1
 156 0038 83F31188 		msr     BASEPRI, r3
 157              	@ 0 "" 2
 158              	.LVL16:
 159              		.thumb
 160 003c 10BD     		pop	{r4, pc}
 161              	.LVL17:
 162              	.L15:
 163              	.LBE3:
 164              		.loc 1 93 0 discriminator 1
 165 003e 0248     		ldr	r0, .L16
 166              	.LVL18:
 167 0040 FFF7FEFF 		bl	chDbgPanic
 168              	.LVL19:
 169 0044 DFE7     		b	.L14
 170              	.L17:
 171 0046 00BF     		.align	2
ARM GAS  /tmp/ccRGZgHL.s 			page 4


 172              	.L16:
 173 0048 10000000 		.word	.LC1
 174              		.cfi_endproc
 175              	.LFE8:
 176              		.size	chMBReset, .-chMBReset
 177 004c AFF30080 		.section	.text.chMBPostS,"ax",%progbits
 178              		.align	2
 179              		.p2align 4,,15
 180              		.global	chMBPostS
 181              		.thumb
 182              		.thumb_func
 183              		.type	chMBPostS, %function
 184              	chMBPostS:
 185              	.LFB10:
 186              		.loc 1 150 0
 187              		.cfi_startproc
 188              		@ args = 0, pretend = 0, frame = 0
 189              		@ frame_needed = 0, uses_anonymous_args = 0
 190              	.LVL20:
 191 0000 70B5     		push	{r4, r5, r6, lr}
 192              	.LCFI2:
 193              		.cfi_def_cfa_offset 16
 194              		.cfi_offset 4, -16
 195              		.cfi_offset 5, -12
 196              		.cfi_offset 6, -8
 197              		.cfi_offset 14, -4
 198              		.loc 1 150 0
 199 0002 0446     		mov	r4, r0
 200 0004 0E46     		mov	r6, r1
 201 0006 1546     		mov	r5, r2
 202              		.loc 1 153 0
 203 0008 FFF7FEFF 		bl	chDbgCheckClassS
 204              	.LVL21:
 205              		.loc 1 154 0
 206 000c C4B1     		cbz	r4, .L22
 207              	.L19:
 208              		.loc 1 156 0
 209 000e 2946     		mov	r1, r5
 210 0010 04F11C00 		add	r0, r4, #28
 211 0014 FFF7FEFF 		bl	chSemWaitTimeoutS
 212              	.LVL22:
 213              		.loc 1 157 0
 214 0018 0546     		mov	r5, r0
 215              	.LVL23:
 216 001a 78B9     		cbnz	r0, .L20
 217              		.loc 1 158 0
 218 001c A368     		ldr	r3, [r4, #8]
 219              		.loc 1 159 0
 220 001e 6268     		ldr	r2, [r4, #4]
 221              		.loc 1 158 0
 222 0020 43F8046B 		str	r6, [r3], #4
 223              		.loc 1 159 0
 224 0024 9342     		cmp	r3, r2
 225              		.loc 1 158 0
 226 0026 A360     		str	r3, [r4, #8]
 227              		.loc 1 160 0
 228 0028 28BF     		it	cs
ARM GAS  /tmp/ccRGZgHL.s 			page 5


 229 002a 2368     		ldrcs	r3, [r4, #0]
 230              		.loc 1 161 0
 231 002c 04F11000 		add	r0, r4, #16
 232              	.LVL24:
 233              		.loc 1 160 0
 234 0030 28BF     		it	cs
 235 0032 A360     		strcs	r3, [r4, #8]
 236              		.loc 1 161 0
 237 0034 FFF7FEFF 		bl	chSemSignalI
 238              	.LVL25:
 239              		.loc 1 162 0
 240 0038 FFF7FEFF 		bl	chSchRescheduleS
 241              	.LVL26:
 242              	.L20:
 243              		.loc 1 165 0
 244 003c 2846     		mov	r0, r5
 245 003e 70BD     		pop	{r4, r5, r6, pc}
 246              	.LVL27:
 247              	.L22:
 248              		.loc 1 154 0 discriminator 1
 249 0040 0148     		ldr	r0, .L23
 250 0042 FFF7FEFF 		bl	chDbgPanic
 251              	.LVL28:
 252 0046 E2E7     		b	.L19
 253              	.L24:
 254              		.align	2
 255              	.L23:
 256 0048 20000000 		.word	.LC2
 257              		.cfi_endproc
 258              	.LFE10:
 259              		.size	chMBPostS, .-chMBPostS
 260 004c AFF30080 		.section	.text.chMBPost,"ax",%progbits
 261              		.align	2
 262              		.p2align 4,,15
 263              		.global	chMBPost
 264              		.thumb
 265              		.thumb_func
 266              		.type	chMBPost, %function
 267              	chMBPost:
 268              	.LFB9:
 269              		.loc 1 122 0
 270              		.cfi_startproc
 271              		@ args = 0, pretend = 0, frame = 0
 272              		@ frame_needed = 0, uses_anonymous_args = 0
 273              	.LVL29:
 274 0000 70B5     		push	{r4, r5, r6, lr}
 275              	.LCFI3:
 276              		.cfi_def_cfa_offset 16
 277              		.cfi_offset 4, -16
 278              		.cfi_offset 5, -12
 279              		.cfi_offset 6, -8
 280              		.cfi_offset 14, -4
 281              	.LBB4:
 282              		.loc 1 125 0
 283 0002 2023     		movs	r3, #32
 284              	.LVL30:
 285              	.LBE4:
ARM GAS  /tmp/ccRGZgHL.s 			page 6


 286              		.loc 1 122 0
 287 0004 0646     		mov	r6, r0
 288 0006 0D46     		mov	r5, r1
 289 0008 1446     		mov	r4, r2
 290              	.LBB5:
 291              		.loc 1 125 0
 292              	@ 125 "/home/formica/chibios/chibios/os/kernel/src/chmboxes.c" 1
 293 000a 83F31188 		msr     BASEPRI, r3
 294              	@ 0 "" 2
 295              	.LVL31:
 296              		.thumb
 297              	.LBE5:
 298 000e FFF7FEFF 		bl	dbg_check_lock
 299              	.LVL32:
 300              		.loc 1 126 0
 301 0012 2246     		mov	r2, r4
 302 0014 2946     		mov	r1, r5
 303 0016 3046     		mov	r0, r6
 304 0018 FFF7FEFF 		bl	chMBPostS
 305              	.LVL33:
 306 001c 0446     		mov	r4, r0
 307              	.LVL34:
 308              		.loc 1 127 0
 309 001e FFF7FEFF 		bl	dbg_check_unlock
 310              	.LVL35:
 311              	.LBB6:
 312 0022 0023     		movs	r3, #0
 313              	.LVL36:
 314              	@ 127 "/home/formica/chibios/chibios/os/kernel/src/chmboxes.c" 1
 315 0024 83F31188 		msr     BASEPRI, r3
 316              	@ 0 "" 2
 317              	.LVL37:
 318              		.thumb
 319              	.LBE6:
 320              		.loc 1 129 0
 321 0028 2046     		mov	r0, r4
 322 002a 70BD     		pop	{r4, r5, r6, pc}
 323              		.cfi_endproc
 324              	.LFE9:
 325              		.size	chMBPost, .-chMBPost
 326 002c AFF30080 		.section	.text.chMBPostI,"ax",%progbits
 327              		.align	2
 328              		.p2align 4,,15
 329              		.global	chMBPostI
 330              		.thumb
 331              		.thumb_func
 332              		.type	chMBPostI, %function
 333              	chMBPostI:
 334              	.LFB11:
 335              		.loc 1 181 0
 336              		.cfi_startproc
 337              		@ args = 0, pretend = 0, frame = 0
 338              		@ frame_needed = 0, uses_anonymous_args = 0
 339              	.LVL38:
 340 0000 38B5     		push	{r3, r4, r5, lr}
 341              	.LCFI4:
 342              		.cfi_def_cfa_offset 16
ARM GAS  /tmp/ccRGZgHL.s 			page 7


 343              		.cfi_offset 3, -16
 344              		.cfi_offset 4, -12
 345              		.cfi_offset 5, -8
 346              		.cfi_offset 14, -4
 347              		.loc 1 181 0
 348 0002 0446     		mov	r4, r0
 349 0004 0D46     		mov	r5, r1
 350              		.loc 1 183 0
 351 0006 FFF7FEFF 		bl	chDbgCheckClassI
 352              	.LVL39:
 353              		.loc 1 184 0
 354 000a A4B1     		cbz	r4, .L31
 355              	.L27:
 356              		.loc 1 186 0
 357 000c 626A     		ldr	r2, [r4, #36]
 358 000e 002A     		cmp	r2, #0
 359 0010 15DD     		ble	.L30
 360              		.loc 1 189 0
 361 0012 A368     		ldr	r3, [r4, #8]
 362              		.loc 1 188 0
 363 0014 501E     		subs	r0, r2, #1
 364              		.loc 1 190 0
 365 0016 6168     		ldr	r1, [r4, #4]
 366              		.loc 1 188 0
 367 0018 6062     		str	r0, [r4, #36]
 368              		.loc 1 189 0
 369 001a 43F8045B 		str	r5, [r3], #4
 370              		.loc 1 190 0
 371 001e 8B42     		cmp	r3, r1
 372              		.loc 1 189 0
 373 0020 A360     		str	r3, [r4, #8]
 374              		.loc 1 191 0
 375 0022 28BF     		it	cs
 376 0024 2368     		ldrcs	r3, [r4, #0]
 377              		.loc 1 192 0
 378 0026 04F11000 		add	r0, r4, #16
 379              		.loc 1 191 0
 380 002a 28BF     		it	cs
 381 002c A360     		strcs	r3, [r4, #8]
 382              		.loc 1 192 0
 383 002e FFF7FEFF 		bl	chSemSignalI
 384              	.LVL40:
 385              		.loc 1 193 0
 386 0032 0020     		movs	r0, #0
 387 0034 38BD     		pop	{r3, r4, r5, pc}
 388              	.L31:
 389              		.loc 1 184 0 discriminator 1
 390 0036 0348     		ldr	r0, .L32
 391 0038 FFF7FEFF 		bl	chDbgPanic
 392              	.LVL41:
 393 003c E6E7     		b	.L27
 394              	.L30:
 395              		.loc 1 187 0
 396 003e 4FF0FF30 		mov	r0, #-1
 397              		.loc 1 194 0
 398 0042 38BD     		pop	{r3, r4, r5, pc}
 399              	.L33:
ARM GAS  /tmp/ccRGZgHL.s 			page 8


 400              		.align	2
 401              	.L32:
 402 0044 30000000 		.word	.LC3
 403              		.cfi_endproc
 404              	.LFE11:
 405              		.size	chMBPostI, .-chMBPostI
 406 0048 AFF30080 		.section	.text.chMBPostAheadS,"ax",%progbits
 406      AFF30080 
 407              		.align	2
 408              		.p2align 4,,15
 409              		.global	chMBPostAheadS
 410              		.thumb
 411              		.thumb_func
 412              		.type	chMBPostAheadS, %function
 413              	chMBPostAheadS:
 414              	.LFB13:
 415              		.loc 1 243 0
 416              		.cfi_startproc
 417              		@ args = 0, pretend = 0, frame = 0
 418              		@ frame_needed = 0, uses_anonymous_args = 0
 419              	.LVL42:
 420 0000 70B5     		push	{r4, r5, r6, lr}
 421              	.LCFI5:
 422              		.cfi_def_cfa_offset 16
 423              		.cfi_offset 4, -16
 424              		.cfi_offset 5, -12
 425              		.cfi_offset 6, -8
 426              		.cfi_offset 14, -4
 427              		.loc 1 243 0
 428 0002 0446     		mov	r4, r0
 429 0004 0E46     		mov	r6, r1
 430 0006 1546     		mov	r5, r2
 431              		.loc 1 246 0
 432 0008 FFF7FEFF 		bl	chDbgCheckClassS
 433              	.LVL43:
 434              		.loc 1 247 0
 435 000c CCB1     		cbz	r4, .L38
 436              	.L35:
 437              		.loc 1 249 0
 438 000e 2946     		mov	r1, r5
 439 0010 04F11C00 		add	r0, r4, #28
 440 0014 FFF7FEFF 		bl	chSemWaitTimeoutS
 441              	.LVL44:
 442              		.loc 1 250 0
 443 0018 0546     		mov	r5, r0
 444              	.LVL45:
 445 001a 60B9     		cbnz	r0, .L36
 446              		.loc 1 251 0
 447 001c E368     		ldr	r3, [r4, #12]
 448 001e 2268     		ldr	r2, [r4, #0]
 449 0020 191F     		subs	r1, r3, #4
 450 0022 9142     		cmp	r1, r2
 451 0024 E160     		str	r1, [r4, #12]
 452 0026 08D3     		bcc	.L39
 453              	.LVL46:
 454              	.L37:
 455              		.loc 1 254 0
ARM GAS  /tmp/ccRGZgHL.s 			page 9


 456 0028 04F11000 		add	r0, r4, #16
 457              		.loc 1 253 0
 458 002c 0E60     		str	r6, [r1, #0]
 459              		.loc 1 254 0
 460 002e FFF7FEFF 		bl	chSemSignalI
 461              	.LVL47:
 462              		.loc 1 255 0
 463 0032 FFF7FEFF 		bl	chSchRescheduleS
 464              	.LVL48:
 465              	.L36:
 466              		.loc 1 258 0
 467 0036 2846     		mov	r0, r5
 468 0038 70BD     		pop	{r4, r5, r6, pc}
 469              	.LVL49:
 470              	.L39:
 471              		.loc 1 252 0
 472 003a 6068     		ldr	r0, [r4, #4]
 473              	.LVL50:
 474 003c 011F     		subs	r1, r0, #4
 475 003e E160     		str	r1, [r4, #12]
 476 0040 F2E7     		b	.L37
 477              	.LVL51:
 478              	.L38:
 479              		.loc 1 247 0 discriminator 1
 480 0042 0248     		ldr	r0, .L40
 481 0044 FFF7FEFF 		bl	chDbgPanic
 482              	.LVL52:
 483 0048 E1E7     		b	.L35
 484              	.L41:
 485 004a 00BF     		.align	2
 486              	.L40:
 487 004c 40000000 		.word	.LC4
 488              		.cfi_endproc
 489              	.LFE13:
 490              		.size	chMBPostAheadS, .-chMBPostAheadS
 491              		.section	.text.chMBPostAhead,"ax",%progbits
 492              		.align	2
 493              		.p2align 4,,15
 494              		.global	chMBPostAhead
 495              		.thumb
 496              		.thumb_func
 497              		.type	chMBPostAhead, %function
 498              	chMBPostAhead:
 499              	.LFB12:
 500              		.loc 1 215 0
 501              		.cfi_startproc
 502              		@ args = 0, pretend = 0, frame = 0
 503              		@ frame_needed = 0, uses_anonymous_args = 0
 504              	.LVL53:
 505 0000 70B5     		push	{r4, r5, r6, lr}
 506              	.LCFI6:
 507              		.cfi_def_cfa_offset 16
 508              		.cfi_offset 4, -16
 509              		.cfi_offset 5, -12
 510              		.cfi_offset 6, -8
 511              		.cfi_offset 14, -4
 512              	.LBB7:
ARM GAS  /tmp/ccRGZgHL.s 			page 10


 513              		.loc 1 218 0
 514 0002 2023     		movs	r3, #32
 515              	.LVL54:
 516              	.LBE7:
 517              		.loc 1 215 0
 518 0004 0646     		mov	r6, r0
 519 0006 0D46     		mov	r5, r1
 520 0008 1446     		mov	r4, r2
 521              	.LBB8:
 522              		.loc 1 218 0
 523              	@ 218 "/home/formica/chibios/chibios/os/kernel/src/chmboxes.c" 1
 524 000a 83F31188 		msr     BASEPRI, r3
 525              	@ 0 "" 2
 526              	.LVL55:
 527              		.thumb
 528              	.LBE8:
 529 000e FFF7FEFF 		bl	dbg_check_lock
 530              	.LVL56:
 531              		.loc 1 219 0
 532 0012 2246     		mov	r2, r4
 533 0014 2946     		mov	r1, r5
 534 0016 3046     		mov	r0, r6
 535 0018 FFF7FEFF 		bl	chMBPostAheadS
 536              	.LVL57:
 537 001c 0446     		mov	r4, r0
 538              	.LVL58:
 539              		.loc 1 220 0
 540 001e FFF7FEFF 		bl	dbg_check_unlock
 541              	.LVL59:
 542              	.LBB9:
 543 0022 0023     		movs	r3, #0
 544              	.LVL60:
 545              	@ 220 "/home/formica/chibios/chibios/os/kernel/src/chmboxes.c" 1
 546 0024 83F31188 		msr     BASEPRI, r3
 547              	@ 0 "" 2
 548              	.LVL61:
 549              		.thumb
 550              	.LBE9:
 551              		.loc 1 222 0
 552 0028 2046     		mov	r0, r4
 553 002a 70BD     		pop	{r4, r5, r6, pc}
 554              		.cfi_endproc
 555              	.LFE12:
 556              		.size	chMBPostAhead, .-chMBPostAhead
 557 002c AFF30080 		.section	.text.chMBPostAheadI,"ax",%progbits
 558              		.align	2
 559              		.p2align 4,,15
 560              		.global	chMBPostAheadI
 561              		.thumb
 562              		.thumb_func
 563              		.type	chMBPostAheadI, %function
 564              	chMBPostAheadI:
 565              	.LFB14:
 566              		.loc 1 274 0
 567              		.cfi_startproc
 568              		@ args = 0, pretend = 0, frame = 0
 569              		@ frame_needed = 0, uses_anonymous_args = 0
ARM GAS  /tmp/ccRGZgHL.s 			page 11


 570              	.LVL62:
 571 0000 38B5     		push	{r3, r4, r5, lr}
 572              	.LCFI7:
 573              		.cfi_def_cfa_offset 16
 574              		.cfi_offset 3, -16
 575              		.cfi_offset 4, -12
 576              		.cfi_offset 5, -8
 577              		.cfi_offset 14, -4
 578              		.loc 1 274 0
 579 0002 0446     		mov	r4, r0
 580 0004 0D46     		mov	r5, r1
 581              		.loc 1 276 0
 582 0006 FFF7FEFF 		bl	chDbgCheckClassI
 583              	.LVL63:
 584              		.loc 1 277 0
 585 000a A4B1     		cbz	r4, .L48
 586              	.L44:
 587              		.loc 1 279 0
 588 000c 626A     		ldr	r2, [r4, #36]
 589 000e 002A     		cmp	r2, #0
 590 0010 15DD     		ble	.L47
 591              		.loc 1 282 0
 592 0012 E368     		ldr	r3, [r4, #12]
 593 0014 2168     		ldr	r1, [r4, #0]
 594 0016 043B     		subs	r3, r3, #4
 595              		.loc 1 281 0
 596 0018 501E     		subs	r0, r2, #1
 597              		.loc 1 282 0
 598 001a 8B42     		cmp	r3, r1
 599              		.loc 1 281 0
 600 001c 6062     		str	r0, [r4, #36]
 601              		.loc 1 282 0
 602 001e E360     		str	r3, [r4, #12]
 603 0020 02D2     		bcs	.L46
 604              		.loc 1 283 0
 605 0022 6268     		ldr	r2, [r4, #4]
 606 0024 131F     		subs	r3, r2, #4
 607 0026 E360     		str	r3, [r4, #12]
 608              	.L46:
 609              		.loc 1 285 0
 610 0028 04F11000 		add	r0, r4, #16
 611              		.loc 1 284 0
 612 002c 1D60     		str	r5, [r3, #0]
 613              		.loc 1 285 0
 614 002e FFF7FEFF 		bl	chSemSignalI
 615              	.LVL64:
 616              		.loc 1 286 0
 617 0032 0020     		movs	r0, #0
 618 0034 38BD     		pop	{r3, r4, r5, pc}
 619              	.L48:
 620              		.loc 1 277 0 discriminator 1
 621 0036 0348     		ldr	r0, .L49
 622 0038 FFF7FEFF 		bl	chDbgPanic
 623              	.LVL65:
 624 003c E6E7     		b	.L44
 625              	.L47:
 626              		.loc 1 280 0
ARM GAS  /tmp/ccRGZgHL.s 			page 12


 627 003e 4FF0FF30 		mov	r0, #-1
 628              		.loc 1 287 0
 629 0042 38BD     		pop	{r3, r4, r5, pc}
 630              	.L50:
 631              		.align	2
 632              	.L49:
 633 0044 54000000 		.word	.LC5
 634              		.cfi_endproc
 635              	.LFE14:
 636              		.size	chMBPostAheadI, .-chMBPostAheadI
 637 0048 AFF30080 		.section	.text.chMBFetchS,"ax",%progbits
 637      AFF30080 
 638              		.align	2
 639              		.p2align 4,,15
 640              		.global	chMBFetchS
 641              		.thumb
 642              		.thumb_func
 643              		.type	chMBFetchS, %function
 644              	chMBFetchS:
 645              	.LFB16:
 646              		.loc 1 336 0
 647              		.cfi_startproc
 648              		@ args = 0, pretend = 0, frame = 0
 649              		@ frame_needed = 0, uses_anonymous_args = 0
 650              	.LVL66:
 651 0000 70B5     		push	{r4, r5, r6, lr}
 652              	.LCFI8:
 653              		.cfi_def_cfa_offset 16
 654              		.cfi_offset 4, -16
 655              		.cfi_offset 5, -12
 656              		.cfi_offset 6, -8
 657              		.cfi_offset 14, -4
 658              		.loc 1 336 0
 659 0002 0446     		mov	r4, r0
 660 0004 0E46     		mov	r6, r1
 661 0006 1546     		mov	r5, r2
 662              		.loc 1 339 0
 663 0008 FFF7FEFF 		bl	chDbgCheckClassS
 664              	.LVL67:
 665              		.loc 1 340 0
 666 000c CCB1     		cbz	r4, .L52
 667              		.loc 1 340 0 is_stmt 0 discriminator 2
 668 000e C6B1     		cbz	r6, .L52
 669              	.L53:
 670              		.loc 1 342 0 is_stmt 1
 671 0010 2946     		mov	r1, r5
 672 0012 04F11000 		add	r0, r4, #16
 673 0016 FFF7FEFF 		bl	chSemWaitTimeoutS
 674              	.LVL68:
 675              		.loc 1 343 0
 676 001a 0546     		mov	r5, r0
 677              	.LVL69:
 678 001c 78B9     		cbnz	r0, .L54
 679              		.loc 1 344 0
 680 001e E368     		ldr	r3, [r4, #12]
 681              		.loc 1 345 0
 682 0020 6268     		ldr	r2, [r4, #4]
ARM GAS  /tmp/ccRGZgHL.s 			page 13


 683              		.loc 1 344 0
 684 0022 53F8041B 		ldr	r1, [r3], #4
 685              		.loc 1 347 0
 686 0026 04F11C00 		add	r0, r4, #28
 687              	.LVL70:
 688              		.loc 1 345 0
 689 002a 9342     		cmp	r3, r2
 690              		.loc 1 344 0
 691 002c 3160     		str	r1, [r6, #0]
 692 002e E360     		str	r3, [r4, #12]
 693              		.loc 1 346 0
 694 0030 24BF     		itt	cs
 695 0032 2368     		ldrcs	r3, [r4, #0]
 696 0034 E360     		strcs	r3, [r4, #12]
 697              		.loc 1 347 0
 698 0036 FFF7FEFF 		bl	chSemSignalI
 699              	.LVL71:
 700              		.loc 1 348 0
 701 003a FFF7FEFF 		bl	chSchRescheduleS
 702              	.LVL72:
 703              	.L54:
 704              		.loc 1 351 0
 705 003e 2846     		mov	r0, r5
 706 0040 70BD     		pop	{r4, r5, r6, pc}
 707              	.LVL73:
 708              	.L52:
 709              		.loc 1 340 0 discriminator 1
 710 0042 0248     		ldr	r0, .L59
 711 0044 FFF7FEFF 		bl	chDbgPanic
 712              	.LVL74:
 713 0048 E2E7     		b	.L53
 714              	.L60:
 715 004a 00BF     		.align	2
 716              	.L59:
 717 004c 68000000 		.word	.LC6
 718              		.cfi_endproc
 719              	.LFE16:
 720              		.size	chMBFetchS, .-chMBFetchS
 721              		.section	.text.chMBFetch,"ax",%progbits
 722              		.align	2
 723              		.p2align 4,,15
 724              		.global	chMBFetch
 725              		.thumb
 726              		.thumb_func
 727              		.type	chMBFetch, %function
 728              	chMBFetch:
 729              	.LFB15:
 730              		.loc 1 308 0
 731              		.cfi_startproc
 732              		@ args = 0, pretend = 0, frame = 0
 733              		@ frame_needed = 0, uses_anonymous_args = 0
 734              	.LVL75:
 735 0000 70B5     		push	{r4, r5, r6, lr}
 736              	.LCFI9:
 737              		.cfi_def_cfa_offset 16
 738              		.cfi_offset 4, -16
 739              		.cfi_offset 5, -12
ARM GAS  /tmp/ccRGZgHL.s 			page 14


 740              		.cfi_offset 6, -8
 741              		.cfi_offset 14, -4
 742              	.LBB10:
 743              		.loc 1 311 0
 744 0002 2023     		movs	r3, #32
 745              	.LVL76:
 746              	.LBE10:
 747              		.loc 1 308 0
 748 0004 0646     		mov	r6, r0
 749 0006 0D46     		mov	r5, r1
 750 0008 1446     		mov	r4, r2
 751              	.LBB11:
 752              		.loc 1 311 0
 753              	@ 311 "/home/formica/chibios/chibios/os/kernel/src/chmboxes.c" 1
 754 000a 83F31188 		msr     BASEPRI, r3
 755              	@ 0 "" 2
 756              	.LVL77:
 757              		.thumb
 758              	.LBE11:
 759 000e FFF7FEFF 		bl	dbg_check_lock
 760              	.LVL78:
 761              		.loc 1 312 0
 762 0012 2246     		mov	r2, r4
 763 0014 2946     		mov	r1, r5
 764 0016 3046     		mov	r0, r6
 765 0018 FFF7FEFF 		bl	chMBFetchS
 766              	.LVL79:
 767 001c 0446     		mov	r4, r0
 768              	.LVL80:
 769              		.loc 1 313 0
 770 001e FFF7FEFF 		bl	dbg_check_unlock
 771              	.LVL81:
 772              	.LBB12:
 773 0022 0023     		movs	r3, #0
 774              	.LVL82:
 775              	@ 313 "/home/formica/chibios/chibios/os/kernel/src/chmboxes.c" 1
 776 0024 83F31188 		msr     BASEPRI, r3
 777              	@ 0 "" 2
 778              	.LVL83:
 779              		.thumb
 780              	.LBE12:
 781              		.loc 1 315 0
 782 0028 2046     		mov	r0, r4
 783 002a 70BD     		pop	{r4, r5, r6, pc}
 784              		.cfi_endproc
 785              	.LFE15:
 786              		.size	chMBFetch, .-chMBFetch
 787 002c AFF30080 		.section	.text.chMBFetchI,"ax",%progbits
 788              		.align	2
 789              		.p2align 4,,15
 790              		.global	chMBFetchI
 791              		.thumb
 792              		.thumb_func
 793              		.type	chMBFetchI, %function
 794              	chMBFetchI:
 795              	.LFB17:
 796              		.loc 1 367 0
ARM GAS  /tmp/ccRGZgHL.s 			page 15


 797              		.cfi_startproc
 798              		@ args = 0, pretend = 0, frame = 0
 799              		@ frame_needed = 0, uses_anonymous_args = 0
 800              	.LVL84:
 801 0000 38B5     		push	{r3, r4, r5, lr}
 802              	.LCFI10:
 803              		.cfi_def_cfa_offset 16
 804              		.cfi_offset 3, -16
 805              		.cfi_offset 4, -12
 806              		.cfi_offset 5, -8
 807              		.cfi_offset 14, -4
 808              		.loc 1 367 0
 809 0002 0446     		mov	r4, r0
 810 0004 0D46     		mov	r5, r1
 811              		.loc 1 369 0
 812 0006 FFF7FEFF 		bl	chDbgCheckClassI
 813              	.LVL85:
 814              		.loc 1 370 0
 815 000a B4B1     		cbz	r4, .L63
 816              		.loc 1 370 0 is_stmt 0 discriminator 2
 817 000c ADB1     		cbz	r5, .L63
 818              	.L64:
 819              		.loc 1 372 0 is_stmt 1
 820 000e A269     		ldr	r2, [r4, #24]
 821 0010 002A     		cmp	r2, #0
 822 0012 16DD     		ble	.L67
 823              		.loc 1 375 0
 824 0014 E368     		ldr	r3, [r4, #12]
 825              		.loc 1 374 0
 826 0016 501E     		subs	r0, r2, #1
 827 0018 A061     		str	r0, [r4, #24]
 828              		.loc 1 375 0
 829 001a 53F8041B 		ldr	r1, [r3], #4
 830              		.loc 1 376 0
 831 001e 6268     		ldr	r2, [r4, #4]
 832              		.loc 1 375 0
 833 0020 2960     		str	r1, [r5, #0]
 834              		.loc 1 376 0
 835 0022 9342     		cmp	r3, r2
 836              		.loc 1 375 0
 837 0024 E360     		str	r3, [r4, #12]
 838              		.loc 1 377 0
 839 0026 28BF     		it	cs
 840 0028 2368     		ldrcs	r3, [r4, #0]
 841              		.loc 1 378 0
 842 002a 04F11C00 		add	r0, r4, #28
 843              		.loc 1 377 0
 844 002e 28BF     		it	cs
 845 0030 E360     		strcs	r3, [r4, #12]
 846              		.loc 1 378 0
 847 0032 FFF7FEFF 		bl	chSemSignalI
 848              	.LVL86:
 849              		.loc 1 379 0
 850 0036 0020     		movs	r0, #0
 851 0038 38BD     		pop	{r3, r4, r5, pc}
 852              	.L63:
 853              		.loc 1 370 0 discriminator 1
ARM GAS  /tmp/ccRGZgHL.s 			page 16


 854 003a 0348     		ldr	r0, .L71
 855 003c FFF7FEFF 		bl	chDbgPanic
 856              	.LVL87:
 857 0040 E5E7     		b	.L64
 858              	.L67:
 859              		.loc 1 373 0
 860 0042 4FF0FF30 		mov	r0, #-1
 861              		.loc 1 380 0
 862 0046 38BD     		pop	{r3, r4, r5, pc}
 863              	.L72:
 864              		.align	2
 865              	.L71:
 866 0048 78000000 		.word	.LC7
 867              		.cfi_endproc
 868              	.LFE17:
 869              		.size	chMBFetchI, .-chMBFetchI
 870 004c AFF30080 		.section	.rodata.str1.4,"aMS",%progbits,1
 871              		.align	2
 872              	.LC0:
 873 0000 2263684D 		.ascii	"\"chMBInit\"()\000"
 873      42496E69 
 873      74222829 
 873      00
 874 000d 000000   		.space	3
 875              	.LC1:
 876 0010 2263684D 		.ascii	"\"chMBReset\"()\000"
 876      42526573 
 876      65742228 
 876      2900
 877 001e 0000     		.space	2
 878              	.LC2:
 879 0020 2263684D 		.ascii	"\"chMBPostS\"()\000"
 879      42506F73 
 879      74532228 
 879      2900
 880 002e 0000     		.space	2
 881              	.LC3:
 882 0030 2263684D 		.ascii	"\"chMBPostI\"()\000"
 882      42506F73 
 882      74492228 
 882      2900
 883 003e 0000     		.space	2
 884              	.LC4:
 885 0040 2263684D 		.ascii	"\"chMBPostAheadS\"()\000"
 885      42506F73 
 885      74416865 
 885      61645322 
 885      282900
 886 0053 00       		.space	1
 887              	.LC5:
 888 0054 2263684D 		.ascii	"\"chMBPostAheadI\"()\000"
 888      42506F73 
 888      74416865 
 888      61644922 
 888      282900
 889 0067 00       		.space	1
 890              	.LC6:
ARM GAS  /tmp/ccRGZgHL.s 			page 17


 891 0068 2263684D 		.ascii	"\"chMBFetchS\"()\000"
 891      42466574 
 891      63685322 
 891      282900
 892 0077 00       		.space	1
 893              	.LC7:
 894 0078 2263684D 		.ascii	"\"chMBFetchI\"()\000"
 894      42466574 
 894      63684922 
 894      282900
 895 0087 00       		.text
 896              	.Letext0:
 897              		.file 2 "/home/formica/toolchains/gcc-arm-none-eabi-4_7-2012q4/bin/../lib/gcc/arm-none-eabi/4.7.3/
 898              		.file 3 "/home/formica/chibios/chibios/os/ports/GCC/ARMCMx/chtypes.h"
 899              		.file 4 "/home/formica/chibios/chibios/os/kernel/include/chlists.h"
 900              		.file 5 "/home/formica/chibios/chibios/os/kernel/include/chthreads.h"
 901              		.file 6 "/home/formica/chibios/chibios/os/ports/GCC/ARMCMx/chcore_v7m.h"
 902              		.file 7 "/home/formica/chibios/chibios/os/kernel/include/chsem.h"
 903              		.file 8 "/home/formica/chibios/chibios/os/kernel/include/chmtx.h"
 904              		.file 9 "/home/formica/chibios/chibios/os/kernel/include/chmboxes.h"
 905              		.file 10 "/home/formica/chibios/chibios/os/kernel/include/chdebug.h"
 906              		.file 11 "/home/formica/chibios/chibios/os/kernel/include/chschd.h"