ARM GAS  /tmp/ccdKN3B2.s 			page 1


   1              		.syntax unified
   2              		.cpu cortex-m3
   3              		.fpu softvfp
   4              		.eabi_attribute 20, 1
   5              		.eabi_attribute 21, 1
   6              		.eabi_attribute 23, 3
   7              		.eabi_attribute 24, 1
   8              		.eabi_attribute 25, 1
   9              		.eabi_attribute 26, 1
  10              		.eabi_attribute 30, 2
  11              		.eabi_attribute 34, 1
  12              		.eabi_attribute 18, 4
  13              		.thumb
  14              		.file	"chmemcore.c"
  15              		.text
  16              	.Ltext0:
  17              		.cfi_sections	.debug_frame
  18              		.section	.text._core_init,"ax",%progbits
  19              		.align	2
  20              		.p2align 4,,15
  21              		.global	_core_init
  22              		.thumb
  23              		.thumb_func
  24              		.type	_core_init, %function
  25              	_core_init:
  26              	.LFB7:
  27              		.file 1 "/home/formica/chibios/chibios/os/kernel/src/chmemcore.c"
  28              		.loc 1 66 0
  29              		.cfi_startproc
  30              		@ args = 0, pretend = 0, frame = 0
  31              		@ frame_needed = 0, uses_anonymous_args = 0
  32              		@ link register save eliminated.
  33              		.loc 1 71 0
  34 0000 40F20001 		movw	r1, #:lower16:__heap_end__
  35              		.loc 1 70 0
  36 0004 0848     		ldr	r0, .L2
  37 0006 40F20002 		movw	r2, #:lower16:.LANCHOR0
  38              		.loc 1 71 0
  39 000a 40F20003 		movw	r3, #:lower16:.LANCHOR1
  40 000e C0F20001 		movt	r1, #:upper16:__heap_end__
  41              		.loc 1 70 0
  42 0012 C0F20002 		movt	r2, #:upper16:.LANCHOR0
  43 0016 20F00700 		bic	r0, r0, #7
  44              		.loc 1 71 0
  45 001a C0F20003 		movt	r3, #:upper16:.LANCHOR1
  46 001e 21F00701 		bic	r1, r1, #7
  47              		.loc 1 70 0
  48 0022 1060     		str	r0, [r2, #0]
  49              		.loc 1 71 0
  50 0024 1960     		str	r1, [r3, #0]
  51 0026 7047     		bx	lr
  52              	.L3:
  53              		.align	2
  54              	.L2:
  55 0028 07000000 		.word	__heap_base__+7
  56              		.cfi_endproc
  57              	.LFE7:
ARM GAS  /tmp/ccdKN3B2.s 			page 2


  58              		.size	_core_init, .-_core_init
  59 002c AFF30080 		.section	.text.chCoreAllocI,"ax",%progbits
  60              		.align	2
  61              		.p2align 4,,15
  62              		.global	chCoreAllocI
  63              		.thumb
  64              		.thumb_func
  65              		.type	chCoreAllocI, %function
  66              	chCoreAllocI:
  67              	.LFB9:
  68              		.loc 1 112 0
  69              		.cfi_startproc
  70              		@ args = 0, pretend = 0, frame = 0
  71              		@ frame_needed = 0, uses_anonymous_args = 0
  72              	.LVL0:
  73 0000 10B5     		push	{r4, lr}
  74              	.LCFI0:
  75              		.cfi_def_cfa_offset 8
  76              		.cfi_offset 4, -8
  77              		.cfi_offset 14, -4
  78              		.loc 1 112 0
  79 0002 0446     		mov	r4, r0
  80              		.loc 1 115 0
  81 0004 FFF7FEFF 		bl	chDbgCheckClassI
  82              	.LVL1:
  83              		.loc 1 118 0
  84 0008 074A     		ldr	r2, .L7
  85 000a 0849     		ldr	r1, .L7+4
  86 000c 1368     		ldr	r3, [r2, #0]
  87 000e 0968     		ldr	r1, [r1, #0]
  88              		.loc 1 117 0
  89 0010 E01D     		adds	r0, r4, #7
  90 0012 20F00700 		bic	r0, r0, #7
  91              	.LVL2:
  92              		.loc 1 118 0
  93 0016 C91A     		subs	r1, r1, r3
  94 0018 8842     		cmp	r0, r1
  95              	.LVL3:
  96              		.loc 1 121 0
  97 001a 9ABF     		itte	ls
  98 001c 1818     		addls	r0, r3, r0
  99              	.LVL4:
 100 001e 1060     		strls	r0, [r2, #0]
 101              		.loc 1 119 0
 102 0020 0023     		movhi	r3, #0
 103              	.LVL5:
 104              		.loc 1 123 0
 105 0022 1846     		mov	r0, r3
 106 0024 10BD     		pop	{r4, pc}
 107              	.L8:
 108 0026 00BF     		.align	2
 109              	.L7:
 110 0028 00000000 		.word	.LANCHOR0
 111 002c 00000000 		.word	.LANCHOR1
 112              		.cfi_endproc
 113              	.LFE9:
 114              		.size	chCoreAllocI, .-chCoreAllocI
ARM GAS  /tmp/ccdKN3B2.s 			page 3


 115              		.section	.text.chCoreAlloc,"ax",%progbits
 116              		.align	2
 117              		.p2align 4,,15
 118              		.global	chCoreAlloc
 119              		.thumb
 120              		.thumb_func
 121              		.type	chCoreAlloc, %function
 122              	chCoreAlloc:
 123              	.LFB8:
 124              		.loc 1 91 0
 125              		.cfi_startproc
 126              		@ args = 0, pretend = 0, frame = 0
 127              		@ frame_needed = 0, uses_anonymous_args = 0
 128              	.LVL6:
 129 0000 10B5     		push	{r4, lr}
 130              	.LCFI1:
 131              		.cfi_def_cfa_offset 8
 132              		.cfi_offset 4, -8
 133              		.cfi_offset 14, -4
 134              	.LBB2:
 135              		.loc 1 94 0
 136 0002 2023     		movs	r3, #32
 137              	.LVL7:
 138              	.LBE2:
 139              		.loc 1 91 0
 140 0004 0446     		mov	r4, r0
 141              	.LBB3:
 142              		.loc 1 94 0
 143              	@ 94 "/home/formica/chibios/chibios/os/kernel/src/chmemcore.c" 1
 144 0006 83F31188 		msr     BASEPRI, r3
 145              	@ 0 "" 2
 146              	.LVL8:
 147              		.thumb
 148              	.LBE3:
 149 000a FFF7FEFF 		bl	dbg_check_lock
 150              	.LVL9:
 151              		.loc 1 95 0
 152 000e 2046     		mov	r0, r4
 153 0010 FFF7FEFF 		bl	chCoreAllocI
 154              	.LVL10:
 155 0014 0446     		mov	r4, r0
 156              	.LVL11:
 157              		.loc 1 96 0
 158 0016 FFF7FEFF 		bl	dbg_check_unlock
 159              	.LVL12:
 160              	.LBB4:
 161 001a 0023     		movs	r3, #0
 162              	.LVL13:
 163              	@ 96 "/home/formica/chibios/chibios/os/kernel/src/chmemcore.c" 1
 164 001c 83F31188 		msr     BASEPRI, r3
 165              	@ 0 "" 2
 166              	.LVL14:
 167              		.thumb
 168              	.LBE4:
 169              		.loc 1 98 0
 170 0020 2046     		mov	r0, r4
 171 0022 10BD     		pop	{r4, pc}
ARM GAS  /tmp/ccdKN3B2.s 			page 4


 172              		.cfi_endproc
 173              	.LFE8:
 174              		.size	chCoreAlloc, .-chCoreAlloc
 175 0024 AFF30080 		.section	.text.chCoreStatus,"ax",%progbits
 175      AFF30080 
 175      AFF30080 
 176              		.align	2
 177              		.p2align 4,,15
 178              		.global	chCoreStatus
 179              		.thumb
 180              		.thumb_func
 181              		.type	chCoreStatus, %function
 182              	chCoreStatus:
 183              	.LFB10:
 184              		.loc 1 132 0
 185              		.cfi_startproc
 186              		@ args = 0, pretend = 0, frame = 0
 187              		@ frame_needed = 0, uses_anonymous_args = 0
 188              		@ link register save eliminated.
 189              		.loc 1 134 0
 190 0000 40F20002 		movw	r2, #:lower16:.LANCHOR1
 191 0004 40F20003 		movw	r3, #:lower16:.LANCHOR0
 192 0008 C0F20002 		movt	r2, #:upper16:.LANCHOR1
 193 000c C0F20003 		movt	r3, #:upper16:.LANCHOR0
 194 0010 1068     		ldr	r0, [r2, #0]
 195 0012 1968     		ldr	r1, [r3, #0]
 196              		.loc 1 135 0
 197 0014 401A     		subs	r0, r0, r1
 198 0016 7047     		bx	lr
 199              		.cfi_endproc
 200              	.LFE10:
 201              		.size	chCoreStatus, .-chCoreStatus
 202 0018 AFF30080 		.section	.bss.endmem,"aw",%nobits
 202      AFF30080 
 203              		.align	2
 204              		.set	.LANCHOR1,. + 0
 205              		.type	endmem, %object
 206              		.size	endmem, 4
 207              	endmem:
 208 0000 00000000 		.space	4
 209              		.section	.bss.nextmem,"aw",%nobits
 210              		.align	2
 211              		.set	.LANCHOR0,. + 0
 212              		.type	nextmem, %object
 213              		.size	nextmem, 4
 214              	nextmem:
 215 0000 00000000 		.space	4
 216              		.text
 217              	.Letext0:
 218              		.file 2 "/home/formica/toolchains/gcc-arm-none-eabi-4_7-2012q4/bin/../lib/gcc/arm-none-eabi/4.7.3/
 219              		.file 3 "/home/formica/toolchains/gcc-arm-none-eabi-4_7-2012q4/bin/../lib/gcc/arm-none-eabi/4.7.3/
 220              		.file 4 "/home/formica/chibios/chibios/os/kernel/include/chdebug.h"