ARM GAS  /tmp/cczdHGtc.s 			page 1


   1              		.syntax unified
   2              		.cpu cortex-m3
   3              		.fpu softvfp
   4              		.eabi_attribute 20, 1
   5              		.eabi_attribute 21, 1
   6              		.eabi_attribute 23, 3
   7              		.eabi_attribute 24, 1
   8              		.eabi_attribute 25, 1
   9              		.eabi_attribute 26, 1
  10              		.eabi_attribute 30, 2
  11              		.eabi_attribute 34, 1
  12              		.eabi_attribute 18, 4
  13              		.thumb
  14              		.file	"chmempools.c"
  15              		.text
  16              	.Ltext0:
  17              		.cfi_sections	.debug_frame
  18              		.section	.text.chPoolInit,"ax",%progbits
  19              		.align	2
  20              		.p2align 4,,15
  21              		.global	chPoolInit
  22              		.thumb
  23              		.thumb_func
  24              		.type	chPoolInit, %function
  25              	chPoolInit:
  26              	.LFB7:
  27              		.file 1 "/home/formica/chibios/chibios/os/kernel/src/chmempools.c"
  28              		.loc 1 61 0
  29              		.cfi_startproc
  30              		@ args = 0, pretend = 0, frame = 0
  31              		@ frame_needed = 0, uses_anonymous_args = 0
  32              	.LVL0:
  33 0000 70B5     		push	{r4, r5, r6, lr}
  34              	.LCFI0:
  35              		.cfi_def_cfa_offset 16
  36              		.cfi_offset 4, -16
  37              		.cfi_offset 5, -12
  38              		.cfi_offset 6, -8
  39              		.cfi_offset 14, -4
  40              		.loc 1 63 0
  41 0002 0446     		mov	r4, r0
  42              		.loc 1 61 0
  43 0004 0D46     		mov	r5, r1
  44 0006 1646     		mov	r6, r2
  45              		.loc 1 63 0
  46 0008 08B1     		cbz	r0, .L2
  47              		.loc 1 63 0 is_stmt 0 discriminator 2
  48 000a 0329     		cmp	r1, #3
  49 000c 02D8     		bhi	.L3
  50              	.L2:
  51              		.loc 1 63 0 discriminator 1
  52 000e 0548     		ldr	r0, .L8
  53              	.LVL1:
  54 0010 FFF7FEFF 		bl	chDbgPanic
  55              	.LVL2:
  56              	.L3:
  57              		.loc 1 66 0 is_stmt 1
ARM GAS  /tmp/cczdHGtc.s 			page 2


  58 0014 E81D     		adds	r0, r5, #7
  59 0016 20F00705 		bic	r5, r0, #7
  60              	.LVL3:
  61              		.loc 1 65 0
  62 001a 0023     		movs	r3, #0
  63              		.loc 1 67 0
  64 001c 84E86800 		stmia	r4, {r3, r5, r6}
  65 0020 70BD     		pop	{r4, r5, r6, pc}
  66              	.L9:
  67 0022 00BF     		.align	2
  68              	.L8:
  69 0024 00000000 		.word	.LC0
  70              		.cfi_endproc
  71              	.LFE7:
  72              		.size	chPoolInit, .-chPoolInit
  73 0028 AFF30080 		.section	.text.chPoolAllocI,"ax",%progbits
  73      AFF30080 
  74              		.align	2
  75              		.p2align 4,,15
  76              		.global	chPoolAllocI
  77              		.thumb
  78              		.thumb_func
  79              		.type	chPoolAllocI, %function
  80              	chPoolAllocI:
  81              	.LFB8:
  82              		.loc 1 79 0
  83              		.cfi_startproc
  84              		@ args = 0, pretend = 0, frame = 0
  85              		@ frame_needed = 0, uses_anonymous_args = 0
  86              	.LVL4:
  87 0000 10B5     		push	{r4, lr}
  88              	.LCFI1:
  89              		.cfi_def_cfa_offset 8
  90              		.cfi_offset 4, -8
  91              		.cfi_offset 14, -4
  92              		.loc 1 79 0
  93 0002 0446     		mov	r4, r0
  94              		.loc 1 82 0
  95 0004 FFF7FEFF 		bl	chDbgCheckClassI
  96              	.LVL5:
  97              		.loc 1 83 0
  98 0008 4CB1     		cbz	r4, .L17
  99              	.L11:
 100              		.loc 1 85 0
 101 000a 2068     		ldr	r0, [r4, #0]
 102              	.LVL6:
 103 000c 10B1     		cbz	r0, .L12
 104              		.loc 1 86 0
 105 000e 0168     		ldr	r1, [r0, #0]
 106 0010 2160     		str	r1, [r4, #0]
 107 0012 10BD     		pop	{r4, pc}
 108              	.L12:
 109              		.loc 1 87 0
 110 0014 A368     		ldr	r3, [r4, #8]
 111 0016 0BB1     		cbz	r3, .L13
 112              		.loc 1 88 0
 113 0018 6068     		ldr	r0, [r4, #4]
ARM GAS  /tmp/cczdHGtc.s 			page 3


 114              	.LVL7:
 115 001a 9847     		blx	r3
 116              	.LVL8:
 117              	.L13:
 118              		.loc 1 90 0
 119 001c 10BD     		pop	{r4, pc}
 120              	.LVL9:
 121              	.L17:
 122              		.loc 1 83 0 discriminator 1
 123 001e 0248     		ldr	r0, .L18
 124 0020 FFF7FEFF 		bl	chDbgPanic
 125              	.LVL10:
 126 0024 F1E7     		b	.L11
 127              	.L19:
 128 0026 00BF     		.align	2
 129              	.L18:
 130 0028 10000000 		.word	.LC1
 131              		.cfi_endproc
 132              	.LFE8:
 133              		.size	chPoolAllocI, .-chPoolAllocI
 134 002c AFF30080 		.section	.text.chPoolAlloc,"ax",%progbits
 135              		.align	2
 136              		.p2align 4,,15
 137              		.global	chPoolAlloc
 138              		.thumb
 139              		.thumb_func
 140              		.type	chPoolAlloc, %function
 141              	chPoolAlloc:
 142              	.LFB9:
 143              		.loc 1 101 0
 144              		.cfi_startproc
 145              		@ args = 0, pretend = 0, frame = 0
 146              		@ frame_needed = 0, uses_anonymous_args = 0
 147              	.LVL11:
 148 0000 10B5     		push	{r4, lr}
 149              	.LCFI2:
 150              		.cfi_def_cfa_offset 8
 151              		.cfi_offset 4, -8
 152              		.cfi_offset 14, -4
 153              	.LBB2:
 154              		.loc 1 104 0
 155 0002 2023     		movs	r3, #32
 156              	.LVL12:
 157              	.LBE2:
 158              		.loc 1 101 0
 159 0004 0446     		mov	r4, r0
 160              	.LBB3:
 161              		.loc 1 104 0
 162              	@ 104 "/home/formica/chibios/chibios/os/kernel/src/chmempools.c" 1
 163 0006 83F31188 		msr     BASEPRI, r3
 164              	@ 0 "" 2
 165              	.LVL13:
 166              		.thumb
 167              	.LBE3:
 168 000a FFF7FEFF 		bl	dbg_check_lock
 169              	.LVL14:
 170              		.loc 1 105 0
ARM GAS  /tmp/cczdHGtc.s 			page 4


 171 000e 2046     		mov	r0, r4
 172 0010 FFF7FEFF 		bl	chPoolAllocI
 173              	.LVL15:
 174 0014 0446     		mov	r4, r0
 175              	.LVL16:
 176              		.loc 1 106 0
 177 0016 FFF7FEFF 		bl	dbg_check_unlock
 178              	.LVL17:
 179              	.LBB4:
 180 001a 0023     		movs	r3, #0
 181              	.LVL18:
 182              	@ 106 "/home/formica/chibios/chibios/os/kernel/src/chmempools.c" 1
 183 001c 83F31188 		msr     BASEPRI, r3
 184              	@ 0 "" 2
 185              	.LVL19:
 186              		.thumb
 187              	.LBE4:
 188              		.loc 1 108 0
 189 0020 2046     		mov	r0, r4
 190 0022 10BD     		pop	{r4, pc}
 191              		.cfi_endproc
 192              	.LFE9:
 193              		.size	chPoolAlloc, .-chPoolAlloc
 194 0024 AFF30080 		.section	.text.chPoolFreeI,"ax",%progbits
 194      AFF30080 
 194      AFF30080 
 195              		.align	2
 196              		.p2align 4,,15
 197              		.global	chPoolFreeI
 198              		.thumb
 199              		.thumb_func
 200              		.type	chPoolFreeI, %function
 201              	chPoolFreeI:
 202              	.LFB10:
 203              		.loc 1 122 0
 204              		.cfi_startproc
 205              		@ args = 0, pretend = 0, frame = 0
 206              		@ frame_needed = 0, uses_anonymous_args = 0
 207              	.LVL20:
 208 0000 38B5     		push	{r3, r4, r5, lr}
 209              	.LCFI3:
 210              		.cfi_def_cfa_offset 16
 211              		.cfi_offset 3, -16
 212              		.cfi_offset 4, -12
 213              		.cfi_offset 5, -8
 214              		.cfi_offset 14, -4
 215              		.loc 1 122 0
 216 0002 0546     		mov	r5, r0
 217 0004 0C46     		mov	r4, r1
 218              	.LVL21:
 219              		.loc 1 125 0
 220 0006 FFF7FEFF 		bl	chDbgCheckClassI
 221              	.LVL22:
 222              		.loc 1 126 0
 223 000a 15B1     		cbz	r5, .L22
 224              		.loc 1 126 0 is_stmt 0 discriminator 2
 225 000c 0CB1     		cbz	r4, .L22
ARM GAS  /tmp/cczdHGtc.s 			page 5


 226              		.loc 1 126 0 discriminator 3
 227 000e 6307     		lsls	r3, r4, #29
 228 0010 02D0     		beq	.L23
 229              	.L22:
 230              		.loc 1 126 0 discriminator 1
 231 0012 0348     		ldr	r0, .L33
 232 0014 FFF7FEFF 		bl	chDbgPanic
 233              	.LVL23:
 234              	.L23:
 235              		.loc 1 129 0 is_stmt 1
 236 0018 2B68     		ldr	r3, [r5, #0]
 237 001a 2360     		str	r3, [r4, #0]
 238              		.loc 1 130 0
 239 001c 2C60     		str	r4, [r5, #0]
 240 001e 38BD     		pop	{r3, r4, r5, pc}
 241              	.L34:
 242              		.align	2
 243              	.L33:
 244 0020 24000000 		.word	.LC2
 245              		.cfi_endproc
 246              	.LFE10:
 247              		.size	chPoolFreeI, .-chPoolFreeI
 248 0024 AFF30080 		.section	.text.chPoolFree,"ax",%progbits
 248      AFF30080 
 248      AFF30080 
 249              		.align	2
 250              		.p2align 4,,15
 251              		.global	chPoolFree
 252              		.thumb
 253              		.thumb_func
 254              		.type	chPoolFree, %function
 255              	chPoolFree:
 256              	.LFB11:
 257              		.loc 1 145 0
 258              		.cfi_startproc
 259              		@ args = 0, pretend = 0, frame = 0
 260              		@ frame_needed = 0, uses_anonymous_args = 0
 261              	.LVL24:
 262 0000 38B5     		push	{r3, r4, r5, lr}
 263              	.LCFI4:
 264              		.cfi_def_cfa_offset 16
 265              		.cfi_offset 3, -16
 266              		.cfi_offset 4, -12
 267              		.cfi_offset 5, -8
 268              		.cfi_offset 14, -4
 269              		.loc 1 145 0
 270 0002 0546     		mov	r5, r0
 271 0004 0C46     		mov	r4, r1
 272              	.LBB5:
 273              		.loc 1 147 0
 274 0006 2023     		movs	r3, #32
 275              	.LVL25:
 276              	@ 147 "/home/formica/chibios/chibios/os/kernel/src/chmempools.c" 1
 277 0008 83F31188 		msr     BASEPRI, r3
 278              	@ 0 "" 2
 279              	.LVL26:
 280              		.thumb
ARM GAS  /tmp/cczdHGtc.s 			page 6


 281              	.LBE5:
 282 000c FFF7FEFF 		bl	dbg_check_lock
 283              	.LVL27:
 284              		.loc 1 148 0
 285 0010 2846     		mov	r0, r5
 286 0012 2146     		mov	r1, r4
 287 0014 FFF7FEFF 		bl	chPoolFreeI
 288              	.LVL28:
 289              		.loc 1 149 0
 290 0018 FFF7FEFF 		bl	dbg_check_unlock
 291              	.LVL29:
 292              	.LBB6:
 293 001c 0023     		movs	r3, #0
 294              	.LVL30:
 295              	@ 149 "/home/formica/chibios/chibios/os/kernel/src/chmempools.c" 1
 296 001e 83F31188 		msr     BASEPRI, r3
 297              	@ 0 "" 2
 298              	.LVL31:
 299              		.thumb
 300 0022 38BD     		pop	{r3, r4, r5, pc}
 301              	.LBE6:
 302              		.cfi_endproc
 303              	.LFE11:
 304              		.size	chPoolFree, .-chPoolFree
 305 0024 AFF30080 		.section	.rodata.str1.4,"aMS",%progbits,1
 305      AFF30080 
 305      AFF30080 
 306              		.align	2
 307              	.LC0:
 308 0000 22636850 		.ascii	"\"chPoolInit\"()\000"
 308      6F6F6C49 
 308      6E697422 
 308      282900
 309 000f 00       		.space	1
 310              	.LC1:
 311 0010 22636850 		.ascii	"\"chPoolAllocI\"()\000"
 311      6F6F6C41 
 311      6C6C6F63 
 311      49222829 
 311      00
 312 0021 000000   		.space	3
 313              	.LC2:
 314 0024 22636850 		.ascii	"\"chPoolFreeI\"()\000"
 314      6F6F6C46 
 314      72656549 
 314      22282900 
 315              		.text
 316              	.Letext0:
 317              		.file 2 "/home/formica/toolchains/gcc-arm-none-eabi-4_7-2012q4/bin/../lib/gcc/arm-none-eabi/4.7.3/
 318              		.file 3 "/home/formica/toolchains/gcc-arm-none-eabi-4_7-2012q4/bin/../lib/gcc/arm-none-eabi/4.7.3/
 319              		.file 4 "/home/formica/chibios/chibios/os/kernel/include/chmemcore.h"
 320              		.file 5 "/home/formica/chibios/chibios/os/kernel/include/chmempools.h"
 321              		.file 6 "/home/formica/chibios/chibios/os/kernel/include/chdebug.h"