ARM GAS  /tmp/ccPFvVan.s 			page 1


   1              		.syntax unified
   2              		.cpu cortex-m3
   3              		.fpu softvfp
   4              		.eabi_attribute 20, 1
   5              		.eabi_attribute 21, 1
   6              		.eabi_attribute 23, 3
   7              		.eabi_attribute 24, 1
   8              		.eabi_attribute 25, 1
   9              		.eabi_attribute 26, 1
  10              		.eabi_attribute 30, 2
  11              		.eabi_attribute 34, 1
  12              		.eabi_attribute 18, 4
  13              		.thumb
  14              		.file	"chmtx.c"
  15              		.text
  16              	.Ltext0:
  17              		.cfi_sections	.debug_frame
  18              		.section	.text.chMtxInit,"ax",%progbits
  19              		.align	2
  20              		.p2align 4,,15
  21              		.global	chMtxInit
  22              		.thumb
  23              		.thumb_func
  24              		.type	chMtxInit, %function
  25              	chMtxInit:
  26              	.LFB7:
  27              		.file 1 "/home/formica/chibios/chibios/os/kernel/src/chmtx.c"
  28              		.loc 1 86 0
  29              		.cfi_startproc
  30              		@ args = 0, pretend = 0, frame = 0
  31              		@ frame_needed = 0, uses_anonymous_args = 0
  32              	.LVL0:
  33 0000 10B5     		push	{r4, lr}
  34              	.LCFI0:
  35              		.cfi_def_cfa_offset 8
  36              		.cfi_offset 4, -8
  37              		.cfi_offset 14, -4
  38              		.loc 1 88 0
  39 0002 0446     		mov	r4, r0
  40 0004 20B1     		cbz	r0, .L4
  41              	.LVL1:
  42              	.L2:
  43              		.loc 1 91 0
  44 0006 0023     		movs	r3, #0
  45              		.loc 1 90 0
  46 0008 6460     		str	r4, [r4, #4]
  47 000a 2460     		str	r4, [r4, #0]
  48              		.loc 1 91 0
  49 000c A360     		str	r3, [r4, #8]
  50 000e 10BD     		pop	{r4, pc}
  51              	.LVL2:
  52              	.L4:
  53              		.loc 1 88 0 discriminator 1
  54 0010 0148     		ldr	r0, .L5
  55              	.LVL3:
  56 0012 FFF7FEFF 		bl	chDbgPanic
  57              	.LVL4:
ARM GAS  /tmp/ccPFvVan.s 			page 2


  58 0016 F6E7     		b	.L2
  59              	.L6:
  60              		.align	2
  61              	.L5:
  62 0018 00000000 		.word	.LC0
  63              		.cfi_endproc
  64              	.LFE7:
  65              		.size	chMtxInit, .-chMtxInit
  66 001c AFF30080 		.section	.text.chMtxLockS,"ax",%progbits
  67              		.align	2
  68              		.p2align 4,,15
  69              		.global	chMtxLockS
  70              		.thumb
  71              		.thumb_func
  72              		.type	chMtxLockS, %function
  73              	chMtxLockS:
  74              	.LFB9:
  75              		.loc 1 121 0
  76              		.cfi_startproc
  77              		@ args = 0, pretend = 0, frame = 0
  78              		@ frame_needed = 0, uses_anonymous_args = 0
  79              	.LVL5:
  80 0000 F8B5     		push	{r3, r4, r5, r6, r7, lr}
  81              	.LCFI1:
  82              		.cfi_def_cfa_offset 24
  83              		.cfi_offset 3, -24
  84              		.cfi_offset 4, -20
  85              		.cfi_offset 5, -16
  86              		.cfi_offset 6, -12
  87              		.cfi_offset 7, -8
  88              		.cfi_offset 14, -4
  89              		.loc 1 122 0
  90 0002 3B4B     		ldr	r3, .L36
  91              		.loc 1 121 0
  92 0004 0546     		mov	r5, r0
  93              		.loc 1 122 0
  94 0006 DC69     		ldr	r4, [r3, #28]
  95              	.LVL6:
  96              		.loc 1 124 0
  97 0008 FFF7FEFF 		bl	chDbgCheckClassS
  98              	.LVL7:
  99              		.loc 1 125 0
 100 000c 002D     		cmp	r5, #0
 101 000e 6BD0     		beq	.L34
 102              	.L8:
 103              		.loc 1 128 0
 104 0010 A868     		ldr	r0, [r5, #8]
 105 0012 0028     		cmp	r0, #0
 106 0014 36D0     		beq	.L9
 107              	.LVL8:
 108              	.LBB29:
 109              		.loc 1 135 0 discriminator 1
 110 0016 A268     		ldr	r2, [r4, #8]
 111 0018 8168     		ldr	r1, [r0, #8]
 112 001a 9142     		cmp	r1, r2
 113 001c 08D2     		bcs	.L11
 114              	.L29:
ARM GAS  /tmp/ccPFvVan.s 			page 3


 115              		.loc 1 139 0
 116 001e 90F82030 		ldrb	r3, [r0, #32]	@ zero_extendqisi2
 117              		.loc 1 137 0
 118 0022 8260     		str	r2, [r0, #8]
 119              		.loc 1 139 0
 120 0024 042B     		cmp	r3, #4
 121 0026 45D0     		beq	.L13
 122 0028 052B     		cmp	r3, #5
 123 002a 30D0     		beq	.L14
 124 002c 002B     		cmp	r3, #0
 125 002e 1ED0     		beq	.L12
 126              	.LVL9:
 127              	.L11:
 128              		.file 2 "/home/formica/chibios/chibios/os/kernel/include/chinline.h"
 129              		.loc 2 43 0
 130 0030 2846     		mov	r0, r5
 131              	.LVL10:
 132              	.L26:
 133              	.LBB30:
 134              	.LBB31:
 135              		.loc 2 45 0
 136 0032 0068     		ldr	r0, [r0, #0]
 137              	.LVL11:
 138              		.loc 2 46 0
 139 0034 8542     		cmp	r5, r0
 140 0036 03D0     		beq	.L27
 141 0038 8168     		ldr	r1, [r0, #8]
 142 003a A268     		ldr	r2, [r4, #8]
 143 003c 9142     		cmp	r1, r2
 144 003e F8D2     		bcs	.L26
 145              	.L27:
 146              		.loc 2 48 0
 147 0040 4368     		ldr	r3, [r0, #4]
 148              		.loc 2 47 0
 149 0042 2060     		str	r0, [r4, #0]
 150              		.loc 2 48 0
 151 0044 6360     		str	r3, [r4, #4]
 152              		.loc 2 49 0
 153 0046 1C60     		str	r4, [r3, #0]
 154 0048 4460     		str	r4, [r0, #4]
 155              	.LBE31:
 156              	.LBE30:
 157              		.loc 1 174 0
 158 004a A562     		str	r5, [r4, #40]
 159              		.loc 1 175 0
 160 004c 0420     		movs	r0, #4
 161              	.LVL12:
 162 004e FFF7FEFF 		bl	chSchGoSleepS
 163              	.LVL13:
 164              		.loc 1 178 0
 165 0052 A868     		ldr	r0, [r5, #8]
 166 0054 A042     		cmp	r0, r4
 167 0056 02D0     		beq	.L25
 168              		.loc 1 178 0 is_stmt 0 discriminator 1
 169 0058 2648     		ldr	r0, .L36+4
 170 005a FFF7FEFF 		bl	chDbgPanic
 171              	.LVL14:
ARM GAS  /tmp/ccPFvVan.s 			page 4


 172              	.L25:
 173              		.loc 1 179 0 is_stmt 1
 174 005e 216C     		ldr	r1, [r4, #64]
 175 0060 A942     		cmp	r1, r5
 176 0062 13D0     		beq	.L7
 177              		.loc 1 179 0 is_stmt 0 discriminator 1
 178 0064 2448     		ldr	r0, .L36+8
 179              	.LBE29:
 180              		.loc 1 187 0 is_stmt 1 discriminator 1
 181 0066 BDE8F840 		pop	{r3, r4, r5, r6, r7, lr}
 182              	.LBB54:
 183              		.loc 1 179 0 discriminator 1
 184 006a FFF7FEBF 		b	chDbgPanic
 185              	.LVL15:
 186              	.L12:
 187              	.LBB32:
 188              	.LBB33:
 189              		.loc 2 75 0
 190 006e 90E80C00 		ldmia	r0, {r2, r3}
 191 0072 1A60     		str	r2, [r3, #0]
 192              		.loc 2 76 0
 193 0074 0268     		ldr	r2, [r0, #0]
 194              	.LBE33:
 195              	.LBE32:
 196              		.loc 1 164 0
 197 0076 0121     		movs	r1, #1
 198 0078 80F82010 		strb	r1, [r0, #32]
 199              	.LVL16:
 200              	.LBB35:
 201              	.LBB34:
 202              		.loc 2 76 0
 203 007c 5360     		str	r3, [r2, #4]
 204              	.LBE34:
 205              	.LBE35:
 206              		.loc 1 167 0
 207 007e FFF7FEFF 		bl	chSchReadyI
 208              	.LVL17:
 209              		.loc 1 168 0
 210 0082 D5E7     		b	.L11
 211              	.L9:
 212              	.LBE54:
 213              		.loc 1 184 0
 214 0084 206C     		ldr	r0, [r4, #64]
 215              		.loc 1 183 0
 216 0086 AC60     		str	r4, [r5, #8]
 217              		.loc 1 184 0
 218 0088 E860     		str	r0, [r5, #12]
 219              		.loc 1 185 0
 220 008a 2564     		str	r5, [r4, #64]
 221              	.L7:
 222 008c F8BD     		pop	{r3, r4, r5, r6, r7, pc}
 223              	.LVL18:
 224              	.L14:
 225              	.LBB55:
 226              	.LBB36:
 227              	.LBB37:
 228              		.loc 2 75 0
ARM GAS  /tmp/ccPFvVan.s 			page 5


 229 008e 4168     		ldr	r1, [r0, #4]
 230 0090 0768     		ldr	r7, [r0, #0]
 231              	.LBE37:
 232              	.LBE36:
 233              		.loc 1 158 0
 234 0092 866A     		ldr	r6, [r0, #40]
 235              	.LVL19:
 236              	.LBB40:
 237              	.LBB38:
 238              		.loc 2 75 0
 239 0094 0F60     		str	r7, [r1, #0]
 240              		.loc 2 76 0
 241 0096 0768     		ldr	r7, [r0, #0]
 242              	.LBE38:
 243              	.LBE40:
 244              		.loc 2 43 0
 245 0098 3346     		mov	r3, r6
 246              	.LBB41:
 247              	.LBB39:
 248              		.loc 2 76 0
 249 009a 7960     		str	r1, [r7, #4]
 250              	.LVL20:
 251              	.L21:
 252              	.LBE39:
 253              	.LBE41:
 254              	.LBB42:
 255              	.LBB43:
 256              		.loc 2 45 0
 257 009c 1B68     		ldr	r3, [r3, #0]
 258              	.LVL21:
 259              		.loc 2 46 0
 260 009e 9E42     		cmp	r6, r3
 261 00a0 02D0     		beq	.L22
 262 00a2 9968     		ldr	r1, [r3, #8]
 263 00a4 9142     		cmp	r1, r2
 264 00a6 F9D2     		bcs	.L21
 265              	.L22:
 266              		.loc 2 48 0
 267 00a8 5A68     		ldr	r2, [r3, #4]
 268              		.loc 2 47 0
 269 00aa 0360     		str	r3, [r0, #0]
 270              		.loc 2 48 0
 271 00ac 4260     		str	r2, [r0, #4]
 272              		.loc 2 49 0
 273 00ae 1060     		str	r0, [r2, #0]
 274 00b0 5860     		str	r0, [r3, #4]
 275 00b2 BDE7     		b	.L11
 276              	.LVL22:
 277              	.L13:
 278              	.LBE43:
 279              	.LBE42:
 280              	.LBB44:
 281              	.LBB45:
 282              		.loc 2 75 0
 283 00b4 4168     		ldr	r1, [r0, #4]
 284 00b6 0768     		ldr	r7, [r0, #0]
 285              	.LBE45:
ARM GAS  /tmp/ccPFvVan.s 			page 6


 286              	.LBE44:
 287              		.loc 1 142 0
 288 00b8 866A     		ldr	r6, [r0, #40]
 289              	.LVL23:
 290              	.LBB48:
 291              	.LBB46:
 292              		.loc 2 75 0
 293 00ba 0F60     		str	r7, [r1, #0]
 294              		.loc 2 76 0
 295 00bc 0768     		ldr	r7, [r0, #0]
 296              	.LBE46:
 297              	.LBE48:
 298              		.loc 1 142 0
 299 00be 3346     		mov	r3, r6
 300              	.LBB49:
 301              	.LBB47:
 302              		.loc 2 76 0
 303 00c0 7960     		str	r1, [r7, #4]
 304              	.LVL24:
 305              	.L18:
 306              	.LBE47:
 307              	.LBE49:
 308              	.LBB50:
 309              	.LBB51:
 310              		.loc 2 45 0
 311 00c2 1B68     		ldr	r3, [r3, #0]
 312              	.LVL25:
 313              		.loc 2 46 0
 314 00c4 9E42     		cmp	r6, r3
 315 00c6 0DD0     		beq	.L35
 316 00c8 9968     		ldr	r1, [r3, #8]
 317 00ca 9142     		cmp	r1, r2
 318 00cc F9D2     		bcs	.L18
 319              	.LVL26:
 320              	.L19:
 321              		.loc 2 48 0
 322 00ce 5A68     		ldr	r2, [r3, #4]
 323              		.loc 2 47 0
 324 00d0 0360     		str	r3, [r0, #0]
 325              		.loc 2 48 0
 326 00d2 4260     		str	r2, [r0, #4]
 327              		.loc 2 49 0
 328 00d4 1060     		str	r0, [r2, #0]
 329 00d6 5860     		str	r0, [r3, #4]
 330              	.LBE51:
 331              	.LBE50:
 332              		.loc 1 143 0
 333 00d8 B068     		ldr	r0, [r6, #8]
 334              	.LVL27:
 335              		.loc 1 135 0
 336 00da A268     		ldr	r2, [r4, #8]
 337 00dc 8368     		ldr	r3, [r0, #8]
 338              	.LVL28:
 339 00de 9342     		cmp	r3, r2
 340 00e0 9DD3     		bcc	.L29
 341 00e2 A5E7     		b	.L11
 342              	.LVL29:
ARM GAS  /tmp/ccPFvVan.s 			page 7


 343              	.L35:
 344              	.LBB53:
 345              	.LBB52:
 346              		.loc 2 46 0
 347 00e4 3346     		mov	r3, r6
 348              	.LVL30:
 349 00e6 F2E7     		b	.L19
 350              	.LVL31:
 351              	.L34:
 352              	.LBE52:
 353              	.LBE53:
 354              	.LBE55:
 355              		.loc 1 125 0 discriminator 1
 356 00e8 0448     		ldr	r0, .L36+12
 357 00ea FFF7FEFF 		bl	chDbgPanic
 358              	.LVL32:
 359 00ee 8FE7     		b	.L8
 360              	.L37:
 361              		.align	2
 362              	.L36:
 363 00f0 00000000 		.word	rlist
 364 00f4 20000000 		.word	.LC2
 365 00f8 34000000 		.word	.LC3
 366 00fc 10000000 		.word	.LC1
 367              		.cfi_endproc
 368              	.LFE9:
 369              		.size	chMtxLockS, .-chMtxLockS
 370              		.section	.text.chMtxLock,"ax",%progbits
 371              		.align	2
 372              		.p2align 4,,15
 373              		.global	chMtxLock
 374              		.thumb
 375              		.thumb_func
 376              		.type	chMtxLock, %function
 377              	chMtxLock:
 378              	.LFB8:
 379              		.loc 1 103 0
 380              		.cfi_startproc
 381              		@ args = 0, pretend = 0, frame = 0
 382              		@ frame_needed = 0, uses_anonymous_args = 0
 383              	.LVL33:
 384 0000 10B5     		push	{r4, lr}
 385              	.LCFI2:
 386              		.cfi_def_cfa_offset 8
 387              		.cfi_offset 4, -8
 388              		.cfi_offset 14, -4
 389              	.LBB56:
 390              		.loc 1 105 0
 391 0002 2023     		movs	r3, #32
 392              	.LVL34:
 393              	.LBE56:
 394              		.loc 1 103 0
 395 0004 0446     		mov	r4, r0
 396              	.LBB57:
 397              		.loc 1 105 0
 398              	@ 105 "/home/formica/chibios/chibios/os/kernel/src/chmtx.c" 1
 399 0006 83F31188 		msr     BASEPRI, r3
ARM GAS  /tmp/ccPFvVan.s 			page 8


 400              	@ 0 "" 2
 401              	.LVL35:
 402              		.thumb
 403              	.LBE57:
 404 000a FFF7FEFF 		bl	dbg_check_lock
 405              	.LVL36:
 406              		.loc 1 107 0
 407 000e 2046     		mov	r0, r4
 408 0010 FFF7FEFF 		bl	chMtxLockS
 409              	.LVL37:
 410              		.loc 1 109 0
 411 0014 FFF7FEFF 		bl	dbg_check_unlock
 412              	.LVL38:
 413              	.LBB58:
 414 0018 0023     		movs	r3, #0
 415              	.LVL39:
 416              	@ 109 "/home/formica/chibios/chibios/os/kernel/src/chmtx.c" 1
 417 001a 83F31188 		msr     BASEPRI, r3
 418              	@ 0 "" 2
 419              	.LVL40:
 420              		.thumb
 421 001e 10BD     		pop	{r4, pc}
 422              	.LBE58:
 423              		.cfi_endproc
 424              	.LFE8:
 425              		.size	chMtxLock, .-chMtxLock
 426              		.section	.text.chMtxTryLockS,"ax",%progbits
 427              		.align	2
 428              		.p2align 4,,15
 429              		.global	chMtxTryLockS
 430              		.thumb
 431              		.thumb_func
 432              		.type	chMtxTryLockS, %function
 433              	chMtxTryLockS:
 434              	.LFB11:
 435              		.loc 1 234 0
 436              		.cfi_startproc
 437              		@ args = 0, pretend = 0, frame = 0
 438              		@ frame_needed = 0, uses_anonymous_args = 0
 439              	.LVL41:
 440 0000 10B5     		push	{r4, lr}
 441              	.LCFI3:
 442              		.cfi_def_cfa_offset 8
 443              		.cfi_offset 4, -8
 444              		.cfi_offset 14, -4
 445              		.loc 1 234 0
 446 0002 0446     		mov	r4, r0
 447              		.loc 1 236 0
 448 0004 FFF7FEFF 		bl	chDbgCheckClassS
 449              	.LVL42:
 450              		.loc 1 237 0
 451 0008 5CB1     		cbz	r4, .L43
 452              	.L40:
 453              		.loc 1 239 0
 454 000a A368     		ldr	r3, [r4, #8]
 455 000c 0BB1     		cbz	r3, .L44
 456              		.loc 1 240 0
ARM GAS  /tmp/ccPFvVan.s 			page 9


 457 000e 0020     		movs	r0, #0
 458              		.loc 1 245 0
 459 0010 10BD     		pop	{r4, pc}
 460              	.L44:
 461              		.loc 1 241 0
 462 0012 0649     		ldr	r1, .L45
 463              		.loc 1 244 0
 464 0014 0120     		movs	r0, #1
 465              		.loc 1 241 0
 466 0016 CB69     		ldr	r3, [r1, #28]
 467              		.loc 1 242 0
 468 0018 1A6C     		ldr	r2, [r3, #64]
 469              		.loc 1 241 0
 470 001a A360     		str	r3, [r4, #8]
 471              		.loc 1 242 0
 472 001c E260     		str	r2, [r4, #12]
 473              		.loc 1 243 0
 474 001e 1C64     		str	r4, [r3, #64]
 475              		.loc 1 244 0
 476 0020 10BD     		pop	{r4, pc}
 477              	.L43:
 478              		.loc 1 237 0 discriminator 1
 479 0022 0348     		ldr	r0, .L45+4
 480 0024 FFF7FEFF 		bl	chDbgPanic
 481              	.LVL43:
 482 0028 EFE7     		b	.L40
 483              	.L46:
 484 002a 00BF     		.align	2
 485              	.L45:
 486 002c 00000000 		.word	rlist
 487 0030 48000000 		.word	.LC4
 488              		.cfi_endproc
 489              	.LFE11:
 490              		.size	chMtxTryLockS, .-chMtxTryLockS
 491 0034 AFF30080 		.section	.text.chMtxTryLock,"ax",%progbits
 491      AFF30080 
 491      AFF30080 
 492              		.align	2
 493              		.p2align 4,,15
 494              		.global	chMtxTryLock
 495              		.thumb
 496              		.thumb_func
 497              		.type	chMtxTryLock, %function
 498              	chMtxTryLock:
 499              	.LFB10:
 500              		.loc 1 206 0
 501              		.cfi_startproc
 502              		@ args = 0, pretend = 0, frame = 0
 503              		@ frame_needed = 0, uses_anonymous_args = 0
 504              	.LVL44:
 505 0000 10B5     		push	{r4, lr}
 506              	.LCFI4:
 507              		.cfi_def_cfa_offset 8
 508              		.cfi_offset 4, -8
 509              		.cfi_offset 14, -4
 510              	.LBB59:
 511              		.loc 1 209 0
ARM GAS  /tmp/ccPFvVan.s 			page 10


 512 0002 2023     		movs	r3, #32
 513              	.LVL45:
 514              	.LBE59:
 515              		.loc 1 206 0
 516 0004 0446     		mov	r4, r0
 517              	.LBB60:
 518              		.loc 1 209 0
 519              	@ 209 "/home/formica/chibios/chibios/os/kernel/src/chmtx.c" 1
 520 0006 83F31188 		msr     BASEPRI, r3
 521              	@ 0 "" 2
 522              	.LVL46:
 523              		.thumb
 524              	.LBE60:
 525 000a FFF7FEFF 		bl	dbg_check_lock
 526              	.LVL47:
 527              		.loc 1 211 0
 528 000e 2046     		mov	r0, r4
 529 0010 FFF7FEFF 		bl	chMtxTryLockS
 530              	.LVL48:
 531 0014 0446     		mov	r4, r0
 532              	.LVL49:
 533              		.loc 1 213 0
 534 0016 FFF7FEFF 		bl	dbg_check_unlock
 535              	.LVL50:
 536              	.LBB61:
 537 001a 0023     		movs	r3, #0
 538              	.LVL51:
 539              	@ 213 "/home/formica/chibios/chibios/os/kernel/src/chmtx.c" 1
 540 001c 83F31188 		msr     BASEPRI, r3
 541              	@ 0 "" 2
 542              	.LVL52:
 543              		.thumb
 544              	.LBE61:
 545              		.loc 1 215 0
 546 0020 2046     		mov	r0, r4
 547 0022 10BD     		pop	{r4, pc}
 548              		.cfi_endproc
 549              	.LFE10:
 550              		.size	chMtxTryLock, .-chMtxTryLock
 551 0024 AFF30080 		.section	.text.chMtxUnlock,"ax",%progbits
 551      AFF30080 
 551      AFF30080 
 552              		.align	2
 553              		.p2align 4,,15
 554              		.global	chMtxUnlock
 555              		.thumb
 556              		.thumb_func
 557              		.type	chMtxUnlock, %function
 558              	chMtxUnlock:
 559              	.LFB12:
 560              		.loc 1 257 0
 561              		.cfi_startproc
 562              		@ args = 0, pretend = 0, frame = 0
 563              		@ frame_needed = 0, uses_anonymous_args = 0
 564              		.loc 1 258 0
 565 0000 1E4A     		ldr	r2, .L62
 566              		.loc 1 257 0
ARM GAS  /tmp/ccPFvVan.s 			page 11


 567 0002 70B5     		push	{r4, r5, r6, lr}
 568              	.LCFI5:
 569              		.cfi_def_cfa_offset 16
 570              		.cfi_offset 4, -16
 571              		.cfi_offset 5, -12
 572              		.cfi_offset 6, -8
 573              		.cfi_offset 14, -4
 574              	.LBB62:
 575              		.loc 1 261 0
 576 0004 2023     		movs	r3, #32
 577              	.LVL53:
 578              	.LBE62:
 579              		.loc 1 258 0
 580 0006 D569     		ldr	r5, [r2, #28]
 581              	.LVL54:
 582              	.LBB63:
 583              		.loc 1 261 0
 584              	@ 261 "/home/formica/chibios/chibios/os/kernel/src/chmtx.c" 1
 585 0008 83F31188 		msr     BASEPRI, r3
 586              	@ 0 "" 2
 587              	.LVL55:
 588              		.thumb
 589              	.LBE63:
 590 000c FFF7FEFF 		bl	dbg_check_lock
 591              	.LVL56:
 592              		.loc 1 262 0
 593 0010 2C6C     		ldr	r4, [r5, #64]
 594 0012 002C     		cmp	r4, #0
 595 0014 2DD0     		beq	.L61
 596              	.L49:
 597              		.loc 1 265 0
 598 0016 A368     		ldr	r3, [r4, #8]
 599 0018 AB42     		cmp	r3, r5
 600 001a 03D0     		beq	.L50
 601              		.loc 1 265 0 is_stmt 0 discriminator 1
 602 001c 1848     		ldr	r0, .L62+4
 603 001e FFF7FEFF 		bl	chDbgPanic
 604              	.LVL57:
 605 0022 2C6C     		ldr	r4, [r5, #64]
 606              	.L50:
 607              	.LVL58:
 608              		.loc 1 273 0 is_stmt 1
 609 0024 2668     		ldr	r6, [r4, #0]
 610              		.loc 1 271 0
 611 0026 E368     		ldr	r3, [r4, #12]
 612              		.loc 1 273 0
 613 0028 A642     		cmp	r6, r4
 614              		.loc 1 271 0
 615 002a 2B64     		str	r3, [r5, #64]
 616              		.loc 1 273 0
 617 002c 1ED0     		beq	.L51
 618              	.LBB64:
 619              		.loc 1 278 0
 620 002e 696C     		ldr	r1, [r5, #68]
 621              	.LVL59:
 622              		.loc 1 280 0
 623 0030 4BB1     		cbz	r3, .L52
ARM GAS  /tmp/ccPFvVan.s 			page 12


 624              	.L58:
 625              		.loc 1 284 0
 626 0032 1A68     		ldr	r2, [r3, #0]
 627 0034 9A42     		cmp	r2, r3
 628 0036 03D0     		beq	.L53
 629              		.loc 1 284 0 is_stmt 0 discriminator 1
 630 0038 9068     		ldr	r0, [r2, #8]
 631 003a 8142     		cmp	r1, r0
 632 003c 38BF     		it	cc
 633 003e 0146     		movcc	r1, r0
 634              	.LVL60:
 635              	.L53:
 636              		.loc 1 286 0 is_stmt 1
 637 0040 DB68     		ldr	r3, [r3, #12]
 638              	.LVL61:
 639              		.loc 1 280 0
 640 0042 002B     		cmp	r3, #0
 641 0044 F5D1     		bne	.L58
 642              	.L52:
 643              	.LBB65:
 644              	.LBB66:
 645              		.loc 2 62 0
 646 0046 3368     		ldr	r3, [r6, #0]
 647              	.LVL62:
 648              	.LBE66:
 649              	.LBE65:
 650              		.loc 1 295 0
 651 0048 326C     		ldr	r2, [r6, #64]
 652              		.loc 1 290 0
 653 004a A960     		str	r1, [r5, #8]
 654              	.LVL63:
 655              		.loc 1 297 0
 656 004c 3046     		mov	r0, r6
 657              	.LBB69:
 658              	.LBB67:
 659              		.loc 2 62 0
 660 004e 2360     		str	r3, [r4, #0]
 661              	.LBE67:
 662              	.LBE69:
 663              		.loc 1 297 0
 664 0050 0021     		movs	r1, #0
 665              	.LVL64:
 666              	.LBB70:
 667              	.LBB68:
 668              		.loc 2 62 0
 669 0052 5C60     		str	r4, [r3, #4]
 670              	.LBE68:
 671              	.LBE70:
 672              		.loc 1 294 0
 673 0054 A660     		str	r6, [r4, #8]
 674              		.loc 1 295 0
 675 0056 E260     		str	r2, [r4, #12]
 676              		.loc 1 296 0
 677 0058 3464     		str	r4, [r6, #64]
 678              		.loc 1 297 0
 679 005a FFF7FEFF 		bl	chSchWakeupS
 680              	.LVL65:
ARM GAS  /tmp/ccPFvVan.s 			page 13


 681              	.L55:
 682              	.LBE64:
 683              		.loc 1 301 0
 684 005e FFF7FEFF 		bl	dbg_check_unlock
 685              	.LVL66:
 686              	.LBB71:
 687 0062 0023     		movs	r3, #0
 688              	.LVL67:
 689              	@ 301 "/home/formica/chibios/chibios/os/kernel/src/chmtx.c" 1
 690 0064 83F31188 		msr     BASEPRI, r3
 691              	@ 0 "" 2
 692              	.LVL68:
 693              		.thumb
 694              	.LBE71:
 695              		.loc 1 303 0
 696 0068 2046     		mov	r0, r4
 697 006a 70BD     		pop	{r4, r5, r6, pc}
 698              	.LVL69:
 699              	.L51:
 700              		.loc 1 300 0
 701 006c 0020     		movs	r0, #0
 702 006e A060     		str	r0, [r4, #8]
 703 0070 F5E7     		b	.L55
 704              	.LVL70:
 705              	.L61:
 706              		.loc 1 262 0 discriminator 1
 707 0072 0448     		ldr	r0, .L62+8
 708 0074 FFF7FEFF 		bl	chDbgPanic
 709              	.LVL71:
 710 0078 2C6C     		ldr	r4, [r5, #64]
 711 007a CCE7     		b	.L49
 712              	.L63:
 713              		.align	2
 714              	.L62:
 715 007c 00000000 		.word	rlist
 716 0080 70000000 		.word	.LC6
 717 0084 5C000000 		.word	.LC5
 718              		.cfi_endproc
 719              	.LFE12:
 720              		.size	chMtxUnlock, .-chMtxUnlock
 721 0088 AFF30080 		.section	.text.chMtxUnlockS,"ax",%progbits
 721      AFF30080 
 722              		.align	2
 723              		.p2align 4,,15
 724              		.global	chMtxUnlockS
 725              		.thumb
 726              		.thumb_func
 727              		.type	chMtxUnlockS, %function
 728              	chMtxUnlockS:
 729              	.LFB13:
 730              		.loc 1 317 0
 731              		.cfi_startproc
 732              		@ args = 0, pretend = 0, frame = 0
 733              		@ frame_needed = 0, uses_anonymous_args = 0
 734              		.loc 1 318 0
 735 0000 1A4B     		ldr	r3, .L78
 736              		.loc 1 317 0
ARM GAS  /tmp/ccPFvVan.s 			page 14


 737 0002 70B5     		push	{r4, r5, r6, lr}
 738              	.LCFI6:
 739              		.cfi_def_cfa_offset 16
 740              		.cfi_offset 4, -16
 741              		.cfi_offset 5, -12
 742              		.cfi_offset 6, -8
 743              		.cfi_offset 14, -4
 744              		.loc 1 318 0
 745 0004 DD69     		ldr	r5, [r3, #28]
 746              	.LVL72:
 747              		.loc 1 321 0
 748 0006 FFF7FEFF 		bl	chDbgCheckClassS
 749              	.LVL73:
 750              		.loc 1 322 0
 751 000a 2C6C     		ldr	r4, [r5, #64]
 752 000c 002C     		cmp	r4, #0
 753 000e 28D0     		beq	.L77
 754              	.L65:
 755              		.loc 1 325 0
 756 0010 A068     		ldr	r0, [r4, #8]
 757 0012 A842     		cmp	r0, r5
 758 0014 03D0     		beq	.L66
 759              		.loc 1 325 0 is_stmt 0 discriminator 1
 760 0016 1648     		ldr	r0, .L78+4
 761 0018 FFF7FEFF 		bl	chDbgPanic
 762              	.LVL74:
 763 001c 2C6C     		ldr	r4, [r5, #64]
 764              	.L66:
 765              	.LVL75:
 766              		.loc 1 334 0 is_stmt 1
 767 001e 2668     		ldr	r6, [r4, #0]
 768              		.loc 1 332 0
 769 0020 E368     		ldr	r3, [r4, #12]
 770              		.loc 1 334 0
 771 0022 A642     		cmp	r6, r4
 772              		.loc 1 332 0
 773 0024 2B64     		str	r3, [r5, #64]
 774              		.loc 1 334 0
 775 0026 18D0     		beq	.L67
 776              	.LBB72:
 777              		.loc 1 339 0
 778 0028 686C     		ldr	r0, [r5, #68]
 779              	.LVL76:
 780              		.loc 1 341 0
 781 002a 4BB1     		cbz	r3, .L68
 782              	.L74:
 783              		.loc 1 345 0
 784 002c 1A68     		ldr	r2, [r3, #0]
 785 002e 9A42     		cmp	r2, r3
 786 0030 03D0     		beq	.L69
 787              		.loc 1 345 0 is_stmt 0 discriminator 1
 788 0032 9168     		ldr	r1, [r2, #8]
 789 0034 8842     		cmp	r0, r1
 790 0036 38BF     		it	cc
 791 0038 0846     		movcc	r0, r1
 792              	.LVL77:
 793              	.L69:
ARM GAS  /tmp/ccPFvVan.s 			page 15


 794              		.loc 1 347 0 is_stmt 1
 795 003a DB68     		ldr	r3, [r3, #12]
 796              	.LVL78:
 797              		.loc 1 341 0
 798 003c 002B     		cmp	r3, #0
 799 003e F5D1     		bne	.L74
 800              	.L68:
 801              	.LBB73:
 802              	.LBB74:
 803              		.loc 2 62 0
 804 0040 3168     		ldr	r1, [r6, #0]
 805              	.LBE74:
 806              	.LBE73:
 807              		.loc 1 354 0
 808 0042 326C     		ldr	r2, [r6, #64]
 809              		.loc 1 349 0
 810 0044 A860     		str	r0, [r5, #8]
 811              	.LVL79:
 812              	.LBB77:
 813              	.LBB75:
 814              		.loc 2 62 0
 815 0046 2160     		str	r1, [r4, #0]
 816              	.LBE75:
 817              	.LBE77:
 818              		.loc 1 356 0
 819 0048 3046     		mov	r0, r6
 820              	.LVL80:
 821              	.LBB78:
 822              	.LBB76:
 823              		.loc 2 62 0
 824 004a 4C60     		str	r4, [r1, #4]
 825              	.LBE76:
 826              	.LBE78:
 827              		.loc 1 353 0
 828 004c A660     		str	r6, [r4, #8]
 829              		.loc 1 354 0
 830 004e E260     		str	r2, [r4, #12]
 831              		.loc 1 355 0
 832 0050 3464     		str	r4, [r6, #64]
 833              		.loc 1 356 0
 834 0052 FFF7FEFF 		bl	chSchReadyI
 835              	.LVL81:
 836              	.LBE72:
 837              		.loc 1 361 0
 838 0056 2046     		mov	r0, r4
 839 0058 70BD     		pop	{r4, r5, r6, pc}
 840              	.LVL82:
 841              	.L67:
 842              		.loc 1 359 0
 843 005a 0021     		movs	r1, #0
 844 005c A160     		str	r1, [r4, #8]
 845              		.loc 1 361 0
 846 005e 2046     		mov	r0, r4
 847 0060 70BD     		pop	{r4, r5, r6, pc}
 848              	.LVL83:
 849              	.L77:
 850              		.loc 1 322 0 discriminator 1
ARM GAS  /tmp/ccPFvVan.s 			page 16


 851 0062 0448     		ldr	r0, .L78+8
 852 0064 FFF7FEFF 		bl	chDbgPanic
 853              	.LVL84:
 854 0068 2C6C     		ldr	r4, [r5, #64]
 855 006a D1E7     		b	.L65
 856              	.L79:
 857              		.align	2
 858              	.L78:
 859 006c 00000000 		.word	rlist
 860 0070 98000000 		.word	.LC8
 861 0074 84000000 		.word	.LC7
 862              		.cfi_endproc
 863              	.LFE13:
 864              		.size	chMtxUnlockS, .-chMtxUnlockS
 865 0078 AFF30080 		.section	.text.chMtxUnlockAll,"ax",%progbits
 865      AFF30080 
 866              		.align	2
 867              		.p2align 4,,15
 868              		.global	chMtxUnlockAll
 869              		.thumb
 870              		.thumb_func
 871              		.type	chMtxUnlockAll, %function
 872              	chMtxUnlockAll:
 873              	.LFB14:
 874              		.loc 1 374 0
 875              		.cfi_startproc
 876              		@ args = 0, pretend = 0, frame = 0
 877              		@ frame_needed = 0, uses_anonymous_args = 0
 878              		.loc 1 375 0
 879 0000 154A     		ldr	r2, .L92
 880              		.loc 1 374 0
 881 0002 70B5     		push	{r4, r5, r6, lr}
 882              	.LCFI7:
 883              		.cfi_def_cfa_offset 16
 884              		.cfi_offset 4, -16
 885              		.cfi_offset 5, -12
 886              		.cfi_offset 6, -8
 887              		.cfi_offset 14, -4
 888              	.LBB79:
 889              		.loc 1 377 0
 890 0004 2023     		movs	r3, #32
 891              	.LVL85:
 892              	.LBE79:
 893              		.loc 1 375 0
 894 0006 D469     		ldr	r4, [r2, #28]
 895              	.LVL86:
 896              	.LBB80:
 897              		.loc 1 377 0
 898              	@ 377 "/home/formica/chibios/chibios/os/kernel/src/chmtx.c" 1
 899 0008 83F31188 		msr     BASEPRI, r3
 900              	@ 0 "" 2
 901              	.LVL87:
 902              		.thumb
 903              	.LBE80:
 904 000c FFF7FEFF 		bl	dbg_check_lock
 905              	.LVL88:
 906              		.loc 1 378 0
ARM GAS  /tmp/ccPFvVan.s 			page 17


 907 0010 236C     		ldr	r3, [r4, #64]
 908 0012 D3B1     		cbz	r3, .L81
 909              	.LBB81:
 910              		.loc 1 390 0
 911 0014 0026     		movs	r6, #0
 912 0016 0AE0     		b	.L87
 913              	.LVL89:
 914              	.L91:
 915              	.LBB82:
 916              	.LBB83:
 917              	.LBB84:
 918              		.loc 2 62 0
 919 0018 1168     		ldr	r1, [r2, #0]
 920              	.LBE84:
 921              	.LBE83:
 922              		.loc 1 385 0
 923 001a 156C     		ldr	r5, [r2, #64]
 924              	.LBB86:
 925              	.LBB85:
 926              		.loc 2 62 0
 927 001c 1960     		str	r1, [r3, #0]
 928 001e 4B60     		str	r3, [r1, #4]
 929              	.LBE85:
 930              	.LBE86:
 931              		.loc 1 384 0
 932 0020 9A60     		str	r2, [r3, #8]
 933              		.loc 1 385 0
 934 0022 DD60     		str	r5, [r3, #12]
 935              		.loc 1 386 0
 936 0024 1364     		str	r3, [r2, #64]
 937              		.loc 1 387 0
 938 0026 FFF7FEFF 		bl	chSchReadyI
 939              	.LVL90:
 940              	.LBE82:
 941              	.LBE81:
 942              		.loc 1 391 0
 943 002a 236C     		ldr	r3, [r4, #64]
 944 002c 4BB1     		cbz	r3, .L90
 945              	.L87:
 946              	.LVL91:
 947              	.LBB88:
 948              		.loc 1 382 0
 949 002e 1A68     		ldr	r2, [r3, #0]
 950              	.LVL92:
 951              		.loc 1 381 0
 952 0030 D968     		ldr	r1, [r3, #12]
 953              		.loc 1 382 0
 954 0032 9A42     		cmp	r2, r3
 955              	.LBB87:
 956              		.loc 1 387 0
 957 0034 1046     		mov	r0, r2
 958              	.LBE87:
 959              		.loc 1 381 0
 960 0036 2164     		str	r1, [r4, #64]
 961              		.loc 1 382 0
 962 0038 EED1     		bne	.L91
 963              		.loc 1 390 0
ARM GAS  /tmp/ccPFvVan.s 			page 18


 964 003a 9E60     		str	r6, [r3, #8]
 965              	.LBE88:
 966              		.loc 1 391 0
 967 003c 236C     		ldr	r3, [r4, #64]
 968              	.LVL93:
 969 003e 002B     		cmp	r3, #0
 970 0040 F5D1     		bne	.L87
 971              	.LVL94:
 972              	.L90:
 973              		.loc 1 392 0
 974 0042 606C     		ldr	r0, [r4, #68]
 975 0044 A060     		str	r0, [r4, #8]
 976              		.loc 1 393 0
 977 0046 FFF7FEFF 		bl	chSchRescheduleS
 978              	.LVL95:
 979              	.L81:
 980              		.loc 1 395 0
 981 004a FFF7FEFF 		bl	dbg_check_unlock
 982              	.LVL96:
 983              	.LBB89:
 984 004e 0023     		movs	r3, #0
 985              	.LVL97:
 986              	@ 395 "/home/formica/chibios/chibios/os/kernel/src/chmtx.c" 1
 987 0050 83F31188 		msr     BASEPRI, r3
 988              	@ 0 "" 2
 989              	.LVL98:
 990              		.thumb
 991 0054 70BD     		pop	{r4, r5, r6, pc}
 992              	.L93:
 993 0056 00BF     		.align	2
 994              	.L92:
 995 0058 00000000 		.word	rlist
 996              	.LBE89:
 997              		.cfi_endproc
 998              	.LFE14:
 999              		.size	chMtxUnlockAll, .-chMtxUnlockAll
 1000 005c AFF30080 		.section	.rodata.str1.4,"aMS",%progbits,1
 1001              		.align	2
 1002              	.LC0:
 1003 0000 2263684D 		.ascii	"\"chMtxInit\"()\000"
 1003      7478496E 
 1003      69742228 
 1003      2900
 1004 000e 0000     		.space	2
 1005              	.LC1:
 1006 0010 2263684D 		.ascii	"\"chMtxLockS\"()\000"
 1006      74784C6F 
 1006      636B5322 
 1006      282900
 1007 001f 00       		.space	1
 1008              	.LC2:
 1009 0020 63684D74 		.ascii	"chMtxLockS(), #1\000"
 1009      784C6F63 
 1009      6B532829 
 1009      2C202331 
 1009      00
 1010 0031 000000   		.space	3
ARM GAS  /tmp/ccPFvVan.s 			page 19


 1011              	.LC3:
 1012 0034 63684D74 		.ascii	"chMtxLockS(), #2\000"
 1012      784C6F63 
 1012      6B532829 
 1012      2C202332 
 1012      00
 1013 0045 000000   		.space	3
 1014              	.LC4:
 1015 0048 2263684D 		.ascii	"\"chMtxTryLockS\"()\000"
 1015      74785472 
 1015      794C6F63 
 1015      6B532228 
 1015      2900
 1016 005a 0000     		.space	2
 1017              	.LC5:
 1018 005c 63684D74 		.ascii	"chMtxUnlock(), #1\000"
 1018      78556E6C 
 1018      6F636B28 
 1018      292C2023 
 1018      3100
 1019 006e 0000     		.space	2
 1020              	.LC6:
 1021 0070 63684D74 		.ascii	"chMtxUnlock(), #2\000"
 1021      78556E6C 
 1021      6F636B28 
 1021      292C2023 
 1021      3200
 1022 0082 0000     		.space	2
 1023              	.LC7:
 1024 0084 63684D74 		.ascii	"chMtxUnlockS(), #1\000"
 1024      78556E6C 
 1024      6F636B53 
 1024      28292C20 
 1024      233100
 1025 0097 00       		.space	1
 1026              	.LC8:
 1027 0098 63684D74 		.ascii	"chMtxUnlockS(), #2\000"
 1027      78556E6C 
 1027      6F636B53 
 1027      28292C20 
 1027      233200
 1028 00ab 00       		.text
 1029              	.Letext0:
 1030              		.file 3 "/home/formica/toolchains/gcc-arm-none-eabi-4_7-2012q4/bin/../lib/gcc/arm-none-eabi/4.7.3/
 1031              		.file 4 "/home/formica/chibios/chibios/os/ports/GCC/ARMCMx/chtypes.h"
 1032              		.file 5 "/home/formica/chibios/chibios/os/kernel/include/chlists.h"
 1033              		.file 6 "/home/formica/chibios/chibios/os/kernel/include/chthreads.h"
 1034              		.file 7 "/home/formica/chibios/chibios/os/ports/GCC/ARMCMx/chcore_v7m.h"
 1035              		.file 8 "/home/formica/chibios/chibios/os/kernel/include/chschd.h"
 1036              		.file 9 "/home/formica/chibios/chibios/os/kernel/include/chmtx.h"
 1037              		.file 10 "/home/formica/chibios/chibios/os/kernel/include/chdebug.h"