ARM GAS  /tmp/ccULfhYZ.s 			page 1


   1              		.syntax unified
   2              		.cpu cortex-m3
   3              		.fpu softvfp
   4              		.eabi_attribute 20, 1
   5              		.eabi_attribute 21, 1
   6              		.eabi_attribute 23, 3
   7              		.eabi_attribute 24, 1
   8              		.eabi_attribute 25, 1
   9              		.eabi_attribute 26, 1
  10              		.eabi_attribute 30, 2
  11              		.eabi_attribute 34, 1
  12              		.eabi_attribute 18, 4
  13              		.thumb
  14              		.file	"chprintf.c"
  15              		.text
  16              	.Ltext0:
  17              		.cfi_sections	.debug_frame
  18              		.section	.text.ltoa,"ax",%progbits
  19              		.align	2
  20              		.p2align 4,,15
  21              		.thumb
  22              		.thumb_func
  23              		.type	ltoa, %function
  24              	ltoa:
  25              	.LFB7:
  26              		.file 1 "/home/formica/chibios/chibios/os/various/chprintf.c"
  27              		.loc 1 42 0
  28              		.cfi_startproc
  29              		@ args = 0, pretend = 0, frame = 0
  30              		@ frame_needed = 0, uses_anonymous_args = 0
  31              		@ link register save eliminated.
  32              	.LVL0:
  33 0000 F0B4     		push	{r4, r5, r6, r7}
  34              	.LCFI0:
  35              		.cfi_def_cfa_offset 16
  36              		.cfi_offset 4, -16
  37              		.cfi_offset 5, -12
  38              		.cfi_offset 6, -8
  39              		.cfi_offset 7, -4
  40              		.loc 1 42 0
  41 0002 0646     		mov	r6, r0
  42              		.loc 1 46 0
  43 0004 00F10B07 		add	r7, r0, #11
  44              	.LVL1:
  45              		.loc 1 42 0
  46 0008 00F10A04 		add	r4, r0, #10
  47              	.LVL2:
  48              	.L3:
  49              		.loc 1 48 0
  50 000c B1FBF2F5 		udiv	r5, r1, r2
  51 0010 02FB1511 		mls	r1, r2, r5, r1
  52              	.LVL3:
  53              		.loc 1 49 0
  54 0014 01F13003 		add	r3, r1, #48
  55              	.LVL4:
  56              		.loc 1 50 0
  57 0018 392B     		cmp	r3, #57
ARM GAS  /tmp/ccULfhYZ.s 			page 2


  58              		.loc 1 51 0
  59 001a C8BF     		it	gt
  60 001c 01F13703 		addgt	r3, r1, #55
  61              	.LVL5:
  62              		.loc 1 52 0
  63 0020 DBB2     		uxtb	r3, r3
  64              	.LVL6:
  65 0022 2046     		mov	r0, r4
  66              	.LVL7:
  67              		.loc 1 53 0
  68 0024 2946     		mov	r1, r5
  69              	.LVL8:
  70              		.loc 1 52 0
  71 0026 04F80139 		strb	r3, [r4], #-1
  72              		.loc 1 53 0
  73 002a 002D     		cmp	r5, #0
  74 002c EED1     		bne	.L3
  75              	.LVL9:
  76              		.loc 1 55 0
  77 002e 3A1A     		subs	r2, r7, r0
  78              	.LVL10:
  79 0030 0146     		mov	r1, r0
  80              		.loc 1 42 0
  81 0032 B018     		adds	r0, r6, r2
  82              	.LVL11:
  83 0034 F243     		mvns	r2, r6
  84              	.LVL12:
  85 0036 8218     		adds	r2, r0, r2
  86 0038 D207     		lsls	r2, r2, #31
  87 003a 0AD5     		bpl	.L5
  88              	.LVL13:
  89              		.loc 1 57 0
  90 003c 06F8013B 		strb	r3, [r6], #1
  91              	.LVL14:
  92 0040 11F8013F 		ldrb	r3, [r1, #1]!	@ zero_extendqisi2
  93 0044 05E0     		b	.L5
  94              	.L15:
  95 0046 11F8013F 		ldrb	r3, [r1, #1]!	@ zero_extendqisi2
  96              	.LVL15:
  97 004a 7370     		strb	r3, [r6, #1]
  98 004c 11F8013F 		ldrb	r3, [r1, #1]!	@ zero_extendqisi2
  99 0050 561C     		adds	r6, r2, #1
 100              	.LVL16:
 101              	.L5:
 102              		.loc 1 57 0 is_stmt 0 discriminator 1
 103 0052 3246     		mov	r2, r6
 104 0054 02F8013B 		strb	r3, [r2], #1
 105              		.loc 1 58 0 is_stmt 1 discriminator 1
 106 0058 8242     		cmp	r2, r0
 107 005a F4D1     		bne	.L15
 108              		.loc 1 61 0
 109 005c F0BC     		pop	{r4, r5, r6, r7}
 110 005e 7047     		bx	lr
 111              		.cfi_endproc
 112              	.LFE7:
 113              		.size	ltoa, .-ltoa
 114              		.section	.text.chprintf,"ax",%progbits
ARM GAS  /tmp/ccULfhYZ.s 			page 3


 115              		.align	2
 116              		.p2align 4,,15
 117              		.global	chprintf
 118              		.thumb
 119              		.thumb_func
 120              		.type	chprintf, %function
 121              	chprintf:
 122              	.LFB8:
 123              		.loc 1 86 0
 124              		.cfi_startproc
 125              		@ args = 4, pretend = 12, frame = 24
 126              		@ frame_needed = 0, uses_anonymous_args = 1
 127              	.LVL17:
 128 0000 0EB4     		push	{r1, r2, r3}
 129              	.LCFI1:
 130              		.cfi_def_cfa_offset 12
 131              		.cfi_offset 1, -12
 132              		.cfi_offset 2, -8
 133              		.cfi_offset 3, -4
 134 0002 2DE9F04F 		push	{r4, r5, r6, r7, r8, r9, sl, fp, lr}
 135              	.LCFI2:
 136              		.cfi_def_cfa_offset 48
 137              		.cfi_offset 4, -48
 138              		.cfi_offset 5, -44
 139              		.cfi_offset 6, -40
 140              		.cfi_offset 7, -36
 141              		.cfi_offset 8, -32
 142              		.cfi_offset 9, -28
 143              		.cfi_offset 10, -24
 144              		.cfi_offset 11, -20
 145              		.cfi_offset 14, -16
 146 0006 86B0     		sub	sp, sp, #24
 147              	.LCFI3:
 148              		.cfi_def_cfa_offset 72
 149              		.loc 1 86 0
 150 0008 0FAB     		add	r3, sp, #60
 151              		.loc 1 197 0
 152 000a 0DF10D0C 		add	ip, sp, #13
 153              		.loc 1 86 0
 154 000e 53F8044B 		ldr	r4, [r3], #4
 155              		.loc 1 105 0
 156 0012 0DF10C0B 		add	fp, sp, #12
 157              		.loc 1 86 0
 158 0016 0546     		mov	r5, r0
 159 0018 CBEB0C00 		rsb	r0, fp, ip
 160              	.LVL18:
 161              		.loc 1 197 0
 162 001c CDF800C0 		str	ip, [sp, #0]
 163              		.loc 1 94 0
 164 0020 0293     		str	r3, [sp, #8]
 165 0022 0190     		str	r0, [sp, #4]
 166              	.LVL19:
 167              	.L108:
 168              		.loc 1 96 0
 169 0024 2646     		mov	r6, r4
 170 0026 16F8011B 		ldrb	r1, [r6], #1	@ zero_extendqisi2
 171              	.LVL20:
ARM GAS  /tmp/ccULfhYZ.s 			page 4


 172              		.loc 1 97 0
 173 002a 69B1     		cbz	r1, .L107
 174              	.LVL21:
 175              	.L124:
 176              		.loc 1 101 0
 177 002c 2529     		cmp	r1, #37
 178 002e 10D0     		beq	.L19
 179              		.loc 1 102 0
 180 0030 2C68     		ldr	r4, [r5, #0]
 181 0032 2846     		mov	r0, r5
 182 0034 2369     		ldr	r3, [r4, #16]
 183              		.loc 1 96 0
 184 0036 3446     		mov	r4, r6
 185              		.loc 1 102 0
 186 0038 4FF0FF32 		mov	r2, #-1
 187              		.loc 1 96 0
 188 003c 2646     		mov	r6, r4
 189              	.LVL22:
 190              		.loc 1 102 0
 191 003e 9847     		blx	r3
 192              	.LVL23:
 193              		.loc 1 96 0
 194 0040 16F8011B 		ldrb	r1, [r6], #1	@ zero_extendqisi2
 195              	.LVL24:
 196              		.loc 1 97 0
 197 0044 0029     		cmp	r1, #0
 198 0046 F1D1     		bne	.L124
 199              	.LVL25:
 200              	.L107:
 201              		.loc 1 222 0
 202 0048 06B0     		add	sp, sp, #24
 203 004a BDE8F04F 		pop	{r4, r5, r6, r7, r8, r9, sl, fp, lr}
 204 004e 03B0     		add	sp, sp, #12
 205 0050 7047     		bx	lr
 206              	.L19:
 207              	.LVL26:
 208              		.loc 1 108 0
 209 0052 6378     		ldrb	r3, [r4, #1]	@ zero_extendqisi2
 210 0054 2D2B     		cmp	r3, #45
 211 0056 00F08E81 		beq	.L125
 212              		.loc 1 107 0
 213 005a 4FF00008 		mov	r8, #0
 214              	.LVL27:
 215              	.L21:
 216              		.loc 1 113 0
 217 005e 2E2B     		cmp	r3, #46
 218 0060 00F08581 		beq	.L126
 219              		.loc 1 112 0
 220 0064 2027     		movs	r7, #32
 221              	.LVL28:
 222              	.L22:
 223              		.loc 1 115 0
 224 0066 3446     		mov	r4, r6
 225 0068 0299     		ldr	r1, [sp, #8]
 226              		.loc 1 117 0
 227 006a 0026     		movs	r6, #0
 228              	.LVL29:
ARM GAS  /tmp/ccULfhYZ.s 			page 5


 229 006c 06E0     		b	.L25
 230              	.LVL30:
 231              	.L127:
 232              		.loc 1 123 0
 233 006e 0A78     		ldrb	r2, [r1, #0]	@ zero_extendqisi2
 234              	.LVL31:
 235 0070 0431     		adds	r1, r1, #4
 236              	.LVL32:
 237              	.L23:
 238              		.loc 1 126 0
 239 0072 06EB8606 		add	r6, r6, r6, lsl #2
 240              	.LVL33:
 241 0076 2378     		ldrb	r3, [r4, #0]	@ zero_extendqisi2
 242 0078 02EB4606 		add	r6, r2, r6, lsl #1
 243              	.LVL34:
 244              	.L25:
 245              		.loc 1 120 0
 246 007c A3F13002 		sub	r2, r3, #48
 247 0080 D2B2     		uxtb	r2, r2
 248              		.loc 1 119 0
 249 0082 0134     		adds	r4, r4, #1
 250              	.LVL35:
 251              		.loc 1 120 0
 252 0084 092A     		cmp	r2, #9
 253 0086 F4D9     		bls	.L23
 254              		.loc 1 122 0
 255 0088 2A2B     		cmp	r3, #42
 256 008a F0D0     		beq	.L127
 257              		.loc 1 129 0
 258 008c 0020     		movs	r0, #0
 259 008e 2E2B     		cmp	r3, #46
 260 0090 0291     		str	r1, [sp, #8]
 261              	.LVL36:
 262 0092 49D0     		beq	.L29
 263              	.LVL37:
 264              		.loc 1 143 0
 265 0094 6C2B     		cmp	r3, #108
 266 0096 55D0     		beq	.L30
 267              	.LVL38:
 268              	.L128:
 269              		.loc 1 143 0 is_stmt 0 discriminator 1
 270 0098 4C2B     		cmp	r3, #76
 271 009a 53D0     		beq	.L30
 272              		.loc 1 149 0 is_stmt 1
 273 009c A3F14101 		sub	r1, r3, #65
 274 00a0 1929     		cmp	r1, #25
 275 00a2 8CBF     		ite	hi
 276 00a4 0021     		movhi	r1, #0
 277 00a6 0121     		movls	r1, #1
 278              	.LVL39:
 279              	.L32:
 280              		.loc 1 152 0
 281 00a8 A3F14402 		sub	r2, r3, #68
 282 00ac 342A     		cmp	r2, #52
 283 00ae 00F25881 		bhi	.L33
 284 00b2 DFE812F0 		tbh	[pc, r2, lsl #1]
 285              	.L40:
ARM GAS  /tmp/ccULfhYZ.s 			page 6


 286 00b6 4701     		.2byte	(.L34-.L40)/2
 287 00b8 5601     		.2byte	(.L33-.L40)/2
 288 00ba 5601     		.2byte	(.L33-.L40)/2
 289 00bc 5601     		.2byte	(.L33-.L40)/2
 290 00be 5601     		.2byte	(.L33-.L40)/2
 291 00c0 5601     		.2byte	(.L33-.L40)/2
 292 00c2 5601     		.2byte	(.L33-.L40)/2
 293 00c4 5601     		.2byte	(.L33-.L40)/2
 294 00c6 5601     		.2byte	(.L33-.L40)/2
 295 00c8 5601     		.2byte	(.L33-.L40)/2
 296 00ca 5601     		.2byte	(.L33-.L40)/2
 297 00cc 4501     		.2byte	(.L35-.L40)/2
 298 00ce 5601     		.2byte	(.L33-.L40)/2
 299 00d0 5601     		.2byte	(.L33-.L40)/2
 300 00d2 5601     		.2byte	(.L33-.L40)/2
 301 00d4 5601     		.2byte	(.L33-.L40)/2
 302 00d6 5601     		.2byte	(.L33-.L40)/2
 303 00d8 3D01     		.2byte	(.L63-.L40)/2
 304 00da 5601     		.2byte	(.L33-.L40)/2
 305 00dc 5601     		.2byte	(.L33-.L40)/2
 306 00de 3001     		.2byte	(.L37-.L40)/2
 307 00e0 5601     		.2byte	(.L33-.L40)/2
 308 00e2 5601     		.2byte	(.L33-.L40)/2
 309 00e4 5601     		.2byte	(.L33-.L40)/2
 310 00e6 5601     		.2byte	(.L33-.L40)/2
 311 00e8 5601     		.2byte	(.L33-.L40)/2
 312 00ea 5601     		.2byte	(.L33-.L40)/2
 313 00ec 5601     		.2byte	(.L33-.L40)/2
 314 00ee 5601     		.2byte	(.L33-.L40)/2
 315 00f0 5601     		.2byte	(.L33-.L40)/2
 316 00f2 5601     		.2byte	(.L33-.L40)/2
 317 00f4 EB00     		.2byte	(.L38-.L40)/2
 318 00f6 4701     		.2byte	(.L34-.L40)/2
 319 00f8 5601     		.2byte	(.L33-.L40)/2
 320 00fa 5601     		.2byte	(.L33-.L40)/2
 321 00fc 5601     		.2byte	(.L33-.L40)/2
 322 00fe 5601     		.2byte	(.L33-.L40)/2
 323 0100 5601     		.2byte	(.L33-.L40)/2
 324 0102 5601     		.2byte	(.L33-.L40)/2
 325 0104 5601     		.2byte	(.L33-.L40)/2
 326 0106 5601     		.2byte	(.L33-.L40)/2
 327 0108 5601     		.2byte	(.L33-.L40)/2
 328 010a 5601     		.2byte	(.L33-.L40)/2
 329 010c 4501     		.2byte	(.L35-.L40)/2
 330 010e 5601     		.2byte	(.L33-.L40)/2
 331 0110 5601     		.2byte	(.L33-.L40)/2
 332 0112 5601     		.2byte	(.L33-.L40)/2
 333 0114 4F00     		.2byte	(.L39-.L40)/2
 334 0116 5601     		.2byte	(.L33-.L40)/2
 335 0118 3D01     		.2byte	(.L63-.L40)/2
 336 011a 5601     		.2byte	(.L33-.L40)/2
 337 011c 5601     		.2byte	(.L33-.L40)/2
 338 011e 3001     		.2byte	(.L37-.L40)/2
 339              	.LVL40:
 340              	.L28:
 341              		.loc 1 135 0
 342 0120 0A78     		ldrb	r2, [r1, #0]	@ zero_extendqisi2
ARM GAS  /tmp/ccULfhYZ.s 			page 7


 343              	.LVL41:
 344 0122 0431     		adds	r1, r1, #4
 345              	.LVL42:
 346              	.L27:
 347              		.loc 1 139 0
 348 0124 02EB4900 		add	r0, r2, r9, lsl #1
 349              	.LVL43:
 350              	.L29:
 351              		.loc 1 131 0
 352 0128 14F8013B 		ldrb	r3, [r4], #1	@ zero_extendqisi2
 353              	.LVL44:
 354              		.loc 1 138 0
 355 012c 00EB8009 		add	r9, r0, r0, lsl #2
 356              		.loc 1 132 0
 357 0130 A3F13002 		sub	r2, r3, #48
 358 0134 D2B2     		uxtb	r2, r2
 359 0136 092A     		cmp	r2, #9
 360 0138 F4D9     		bls	.L27
 361              		.loc 1 134 0
 362 013a 2A2B     		cmp	r3, #42
 363 013c F0D0     		beq	.L28
 364              		.loc 1 143 0
 365 013e 6C2B     		cmp	r3, #108
 366 0140 0291     		str	r1, [sp, #8]
 367 0142 A9D1     		bne	.L128
 368              	.LVL45:
 369              	.L30:
 370              		.loc 1 145 0
 371 0144 2178     		ldrb	r1, [r4, #0]	@ zero_extendqisi2
 372 0146 0029     		cmp	r1, #0
 373 0148 00F01A81 		beq	.L62
 374              	.LVL46:
 375              		.loc 1 146 0
 376 014c 0B46     		mov	r3, r1
 377 014e 0134     		adds	r4, r4, #1
 378              	.LVL47:
 379              		.loc 1 144 0
 380 0150 0121     		movs	r1, #1
 381 0152 A9E7     		b	.L32
 382              	.LVL48:
 383              	.L39:
 384              		.loc 1 159 0
 385 0154 029F     		ldr	r7, [sp, #8]
 386              		.loc 1 160 0
 387 0156 40F20009 		movw	r9, #:lower16:.LC0
 388              		.loc 1 159 0
 389 015a 3B68     		ldr	r3, [r7, #0]
 390              	.LVL49:
 391              		.loc 1 160 0
 392 015c C0F20009 		movt	r9, #:upper16:.LC0
 393 0160 002B     		cmp	r3, #0
 394 0162 18BF     		it	ne
 395 0164 9946     		movne	r9, r3
 396              	.LVL50:
 397              		.loc 1 159 0
 398 0166 391D     		adds	r1, r7, #4
 399              	.LVL51:
ARM GAS  /tmp/ccULfhYZ.s 			page 8


 400              		.loc 1 163 0
 401 0168 99F80070 		ldrb	r7, [r9, #0]	@ zero_extendqisi2
 402              		.loc 1 162 0
 403 016c 47F6FF72 		movw	r2, #32767
 404              	.LVL52:
 405              		.loc 1 159 0
 406 0170 0291     		str	r1, [sp, #8]
 407              		.loc 1 162 0
 408 0172 0028     		cmp	r0, #0
 409 0174 08BF     		it	eq
 410 0176 1046     		moveq	r0, r2
 411              	.LVL53:
 412              		.loc 1 163 0
 413 0178 002F     		cmp	r7, #0
 414 017a 00F01F81 		beq	.L66
 415 017e 99F80130 		ldrb	r3, [r9, #1]	@ zero_extendqisi2
 416 0182 411E     		subs	r1, r0, #1
 417 0184 09EB000A 		add	sl, r9, r0
 418              		.loc 1 86 0
 419 0188 09F10102 		add	r2, r9, #1
 420              	.LVL54:
 421 018c 01F00100 		and	r0, r1, #1
 422              		.loc 1 163 0
 423 0190 B3B1     		cbz	r3, .L109
 424 0192 9245     		cmp	sl, r2
 425 0194 1346     		mov	r3, r2
 426 0196 00F00D81 		beq	.L110
 427 019a 60B1     		cbz	r0, .L45
 428 019c 5778     		ldrb	r7, [r2, #1]	@ zero_extendqisi2
 429              		.loc 1 86 0
 430 019e 0132     		adds	r2, r2, #1
 431              	.LVL55:
 432              		.loc 1 163 0
 433 01a0 77B1     		cbz	r7, .L109
 434 01a2 9245     		cmp	sl, r2
 435 01a4 1346     		mov	r3, r2
 436 01a6 06D1     		bne	.L45
 437 01a8 04E1     		b	.L110
 438              	.L44:
 439              		.loc 1 163 0 is_stmt 0 discriminator 2
 440 01aa 5778     		ldrb	r7, [r2, #1]	@ zero_extendqisi2
 441              		.loc 1 86 0 is_stmt 1 discriminator 2
 442 01ac 0132     		adds	r2, r2, #1
 443              	.LVL56:
 444              		.loc 1 163 0 discriminator 2
 445 01ae 3FB1     		cbz	r7, .L109
 446              		.loc 1 163 0 is_stmt 0
 447 01b0 9A45     		cmp	sl, r3
 448 01b2 00F0FF80 		beq	.L110
 449              	.L45:
 450              		.loc 1 163 0 discriminator 1
 451 01b6 5878     		ldrb	r0, [r3, #1]	@ zero_extendqisi2
 452              		.loc 1 86 0 is_stmt 1 discriminator 1
 453 01b8 5A1C     		adds	r2, r3, #1
 454              	.LVL57:
 455 01ba 531C     		adds	r3, r2, #1
 456              		.loc 1 163 0 discriminator 1
ARM GAS  /tmp/ccULfhYZ.s 			page 9


 457 01bc 0028     		cmp	r0, #0
 458 01be F4D1     		bne	.L44
 459              	.LVL58:
 460              	.L109:
 461 01c0 C9EB020A 		rsb	sl, r9, r2
 462              		.loc 1 201 0
 463 01c4 CAEB0606 		rsb	r6, sl, r6
 464              	.LVL59:
 465              		.loc 1 158 0
 466 01c8 2027     		movs	r7, #32
 467              	.LVL60:
 468 01ca 26EAE676 		bic	r6, r6, r6, asr #31
 469              	.LVL61:
 470              		.loc 1 203 0
 471 01ce B8F1000F 		cmp	r8, #0
 472 01d2 6CD0     		beq	.L129
 473              	.LVL62:
 474              	.L51:
 475              		.loc 1 214 0 discriminator 1
 476 01d4 BAF1000F 		cmp	sl, #0
 477 01d8 2DDD     		ble	.L57
 478              		.loc 1 215 0
 479 01da C846     		mov	r8, r9
 480 01dc 2868     		ldr	r0, [r5, #0]
 481 01de 18F8011B 		ldrb	r1, [r8], #1	@ zero_extendqisi2
 482              		.loc 1 86 0
 483 01e2 CA44     		add	sl, r9, sl
 484              	.LVL63:
 485 01e4 6FEA090C 		mvn	ip, r9
 486              		.loc 1 215 0
 487 01e8 0369     		ldr	r3, [r0, #16]
 488 01ea 4FF0FF32 		mov	r2, #-1
 489 01ee 2846     		mov	r0, r5
 490 01f0 0AEB0C09 		add	r9, sl, ip
 491              	.LVL64:
 492 01f4 9847     		blx	r3
 493              	.LVL65:
 494              		.loc 1 214 0
 495 01f6 D045     		cmp	r8, sl
 496 01f8 09F00109 		and	r9, r9, #1
 497              	.LVL66:
 498 01fc 1BD0     		beq	.L57
 499 01fe B9F1000F 		cmp	r9, #0
 500 0202 03D0     		beq	.L56
 501              	.LVL67:
 502              		.loc 1 215 0
 503 0204 2A68     		ldr	r2, [r5, #0]
 504 0206 18F8011B 		ldrb	r1, [r8], #1	@ zero_extendqisi2
 505 020a 0DE0     		b	.L123
 506              	.L56:
 507 020c 2868     		ldr	r0, [r5, #0]
 508 020e C146     		mov	r9, r8
 509 0210 19F8011B 		ldrb	r1, [r9], #1	@ zero_extendqisi2
 510 0214 4FF0FF32 		mov	r2, #-1
 511 0218 0369     		ldr	r3, [r0, #16]
 512 021a 2846     		mov	r0, r5
 513 021c 9847     		blx	r3
ARM GAS  /tmp/ccULfhYZ.s 			page 10


 514              	.LVL68:
 515 021e 2A68     		ldr	r2, [r5, #0]
 516 0220 98F80110 		ldrb	r1, [r8, #1]	@ zero_extendqisi2
 517 0224 09F10108 		add	r8, r9, #1
 518              	.L123:
 519 0228 1369     		ldr	r3, [r2, #16]
 520 022a 2846     		mov	r0, r5
 521 022c 4FF0FF32 		mov	r2, #-1
 522 0230 9847     		blx	r3
 523              	.LVL69:
 524              		.loc 1 214 0
 525 0232 D045     		cmp	r8, sl
 526 0234 EAD1     		bne	.L56
 527              	.L57:
 528              	.LVL70:
 529              		.loc 1 217 0
 530 0236 002E     		cmp	r6, #0
 531 0238 3FF4F4AE 		beq	.L108
 532              		.loc 1 218 0
 533 023c 2968     		ldr	r1, [r5, #0]
 534 023e 731E     		subs	r3, r6, #1
 535 0240 D1F810C0 		ldr	ip, [r1, #16]
 536              		.loc 1 217 0
 537 0244 1E46     		mov	r6, r3
 538              	.LVL71:
 539              		.loc 1 218 0
 540 0246 2846     		mov	r0, r5
 541 0248 3946     		mov	r1, r7
 542 024a 4FF0FF32 		mov	r2, #-1
 543 024e 03F00108 		and	r8, r3, #1
 544 0252 E047     		blx	ip
 545              	.LVL72:
 546              		.loc 1 217 0
 547 0254 002E     		cmp	r6, #0
 548 0256 3FF4E5AE 		beq	.L108
 549 025a B8F1000F 		cmp	r8, #0
 550 025e 03D0     		beq	.L72
 551              		.loc 1 218 0
 552 0260 2A68     		ldr	r2, [r5, #0]
 553 0262 2846     		mov	r0, r5
 554 0264 1369     		ldr	r3, [r2, #16]
 555 0266 0AE0     		b	.L120
 556              	.LVL73:
 557              	.L72:
 558 0268 2868     		ldr	r0, [r5, #0]
 559 026a 3946     		mov	r1, r7
 560 026c 0369     		ldr	r3, [r0, #16]
 561 026e 4FF0FF32 		mov	r2, #-1
 562 0272 2846     		mov	r0, r5
 563 0274 9847     		blx	r3
 564              	.LVL74:
 565 0276 2968     		ldr	r1, [r5, #0]
 566              		.loc 1 219 0
 567 0278 013E     		subs	r6, r6, #1
 568              		.loc 1 218 0
 569 027a 0B69     		ldr	r3, [r1, #16]
 570 027c 2846     		mov	r0, r5
ARM GAS  /tmp/ccULfhYZ.s 			page 11


 571              	.LVL75:
 572              	.L120:
 573 027e 3946     		mov	r1, r7
 574 0280 4FF0FF32 		mov	r2, #-1
 575 0284 9847     		blx	r3
 576              	.LVL76:
 577              		.loc 1 217 0
 578 0286 013E     		subs	r6, r6, #1
 579 0288 EED1     		bne	.L72
 580 028a CBE6     		b	.L108
 581              	.LVL77:
 582              	.L38:
 583              		.loc 1 155 0
 584 028c 0298     		ldr	r0, [sp, #8]
 585              	.LVL78:
 586 028e DDF804A0 		ldr	sl, [sp, #4]
 587 0292 0268     		ldr	r2, [r0, #0]
 588 0294 011D     		adds	r1, r0, #4
 589              	.LVL79:
 590 0296 0291     		str	r1, [sp, #8]
 591 0298 8DF80C20 		strb	r2, [sp, #12]
 592              	.LVL80:
 593              		.loc 1 154 0
 594 029c 2027     		movs	r7, #32
 595              		.loc 1 106 0
 596 029e D946     		mov	r9, fp
 597              	.LVL81:
 598              	.L41:
 599              		.loc 1 201 0
 600 02a0 CAEB0606 		rsb	r6, sl, r6
 601              	.LVL82:
 602 02a4 26EAE676 		bic	r6, r6, r6, asr #31
 603              	.LVL83:
 604              		.loc 1 203 0
 605 02a8 B8F1000F 		cmp	r8, #0
 606 02ac 92D1     		bne	.L51
 607              	.LVL84:
 608              	.L129:
 609              		.loc 1 204 0
 610 02ae 7642     		negs	r6, r6
 611              	.LVL85:
 612              		.loc 1 205 0
 613 02b0 002E     		cmp	r6, #0
 614 02b2 8FD0     		beq	.L51
 615              		.loc 1 206 0
 616 02b4 99F80010 		ldrb	r1, [r9, #0]	@ zero_extendqisi2
 617 02b8 2D29     		cmp	r1, #45
 618 02ba 6ED0     		beq	.L130
 619              	.L53:
 620              		.loc 1 211 0 discriminator 1
 621 02bc 2968     		ldr	r1, [r5, #0]
 622 02be 6FEA060E 		mvn	lr, r6
 623 02c2 0B69     		ldr	r3, [r1, #16]
 624 02c4 2846     		mov	r0, r5
 625 02c6 3946     		mov	r1, r7
 626 02c8 4FF0FF32 		mov	r2, #-1
 627 02cc 0EF00108 		and	r8, lr, #1
ARM GAS  /tmp/ccULfhYZ.s 			page 12


 628              	.LVL86:
 629 02d0 9847     		blx	r3
 630              	.LVL87:
 631              		.loc 1 212 0 discriminator 1
 632 02d2 0136     		adds	r6, r6, #1
 633              	.LVL88:
 634 02d4 3FF47EAF 		beq	.L51
 635 02d8 B8F1000F 		cmp	r8, #0
 636 02dc 09D0     		beq	.L73
 637              		.loc 1 211 0
 638 02de 2A68     		ldr	r2, [r5, #0]
 639 02e0 2846     		mov	r0, r5
 640 02e2 1369     		ldr	r3, [r2, #16]
 641 02e4 3946     		mov	r1, r7
 642 02e6 4FF0FF32 		mov	r2, #-1
 643 02ea 9847     		blx	r3
 644              	.LVL89:
 645              		.loc 1 212 0
 646 02ec 0136     		adds	r6, r6, #1
 647              	.LVL90:
 648 02ee 3FF471AF 		beq	.L51
 649              	.L73:
 650              		.loc 1 211 0 discriminator 1
 651 02f2 2868     		ldr	r0, [r5, #0]
 652 02f4 3946     		mov	r1, r7
 653 02f6 0369     		ldr	r3, [r0, #16]
 654 02f8 4FF0FF32 		mov	r2, #-1
 655 02fc 2846     		mov	r0, r5
 656 02fe 9847     		blx	r3
 657              	.LVL91:
 658 0300 2A68     		ldr	r2, [r5, #0]
 659              		.loc 1 212 0 discriminator 1
 660 0302 0136     		adds	r6, r6, #1
 661              	.LVL92:
 662              		.loc 1 211 0 discriminator 1
 663 0304 1369     		ldr	r3, [r2, #16]
 664 0306 2846     		mov	r0, r5
 665 0308 3946     		mov	r1, r7
 666 030a 4FF0FF32 		mov	r2, #-1
 667 030e 9847     		blx	r3
 668              	.LVL93:
 669              		.loc 1 212 0 discriminator 1
 670 0310 0136     		adds	r6, r6, #1
 671              	.LVL94:
 672 0312 EED1     		bne	.L73
 673 0314 5EE7     		b	.L51
 674              	.LVL95:
 675              	.L37:
 676              		.loc 1 152 0
 677 0316 1022     		movs	r2, #16
 678              	.LVL96:
 679              	.L36:
 680              		.loc 1 191 0
 681 0318 029B     		ldr	r3, [sp, #8]
 682              		.loc 1 190 0
 683 031a 69B1     		cbz	r1, .L49
 684              	.L131:
ARM GAS  /tmp/ccULfhYZ.s 			page 13


 685              		.loc 1 191 0
 686 031c 191D     		adds	r1, r3, #4
 687              	.LVL97:
 688 031e 0291     		str	r1, [sp, #8]
 689 0320 1968     		ldr	r1, [r3, #0]
 690              	.LVL98:
 691              	.L50:
 692              		.loc 1 194 0
 693 0322 5846     		mov	r0, fp
 694 0324 FFF7FEFF 		bl	ltoa
 695              	.LVL99:
 696              		.loc 1 106 0
 697 0328 D946     		mov	r9, fp
 698 032a CBEB000A 		rsb	sl, fp, r0
 699              		.loc 1 195 0
 700 032e B7E7     		b	.L41
 701              	.LVL100:
 702              	.L63:
 703              		.loc 1 152 0
 704 0330 0A22     		movs	r2, #10
 705              	.LVL101:
 706              		.loc 1 191 0
 707 0332 029B     		ldr	r3, [sp, #8]
 708              		.loc 1 190 0
 709 0334 0029     		cmp	r1, #0
 710 0336 F1D1     		bne	.L131
 711              	.L49:
 712              		.loc 1 193 0
 713 0338 181D     		adds	r0, r3, #4
 714              	.LVL102:
 715 033a 1968     		ldr	r1, [r3, #0]
 716              	.LVL103:
 717 033c 0290     		str	r0, [sp, #8]
 718 033e F0E7     		b	.L50
 719              	.LVL104:
 720              	.L35:
 721 0340 0822     		movs	r2, #8
 722 0342 E9E7     		b	.L36
 723              	.LVL105:
 724              	.L34:
 725              		.loc 1 169 0
 726 0344 029B     		ldr	r3, [sp, #8]
 727              	.LVL106:
 728 0346 1A1D     		adds	r2, r3, #4
 729              	.LVL107:
 730              		.loc 1 168 0
 731 0348 E1B9     		cbnz	r1, .L132
 732              		.loc 1 171 0
 733 034a 1968     		ldr	r1, [r3, #0]
 734              	.LVL108:
 735 034c 0292     		str	r2, [sp, #8]
 736              		.loc 1 172 0
 737 034e 0029     		cmp	r1, #0
 738 0350 1CDB     		blt	.L133
 739              	.L67:
 740              		.loc 1 105 0
 741 0352 5846     		mov	r0, fp
ARM GAS  /tmp/ccULfhYZ.s 			page 14


 742              	.LVL109:
 743              	.L48:
 744              		.loc 1 176 0
 745 0354 0A22     		movs	r2, #10
 746 0356 FFF7FEFF 		bl	ltoa
 747              	.LVL110:
 748              		.loc 1 106 0
 749 035a D946     		mov	r9, fp
 750 035c CBEB000A 		rsb	sl, fp, r0
 751              		.loc 1 177 0
 752 0360 9EE7     		b	.L41
 753              	.LVL111:
 754              	.L33:
 755              		.loc 1 197 0
 756 0362 8DF80C30 		strb	r3, [sp, #12]
 757              	.LVL112:
 758 0366 DDF804A0 		ldr	sl, [sp, #4]
 759              		.loc 1 106 0
 760 036a D946     		mov	r9, fp
 761              		.loc 1 198 0
 762 036c 98E7     		b	.L41
 763              	.LVL113:
 764              	.L126:
 765 036e 7378     		ldrb	r3, [r6, #1]	@ zero_extendqisi2
 766              		.loc 1 115 0
 767 0370 3027     		movs	r7, #48
 768              		.loc 1 114 0
 769 0372 0136     		adds	r6, r6, #1
 770              	.LVL114:
 771 0374 77E6     		b	.L22
 772              	.LVL115:
 773              	.L125:
 774              		.loc 1 109 0
 775 0376 A61C     		adds	r6, r4, #2
 776              	.LVL116:
 777 0378 A378     		ldrb	r3, [r4, #2]	@ zero_extendqisi2
 778              		.loc 1 110 0
 779 037a 4FF00108 		mov	r8, #1
 780 037e 6EE6     		b	.L21
 781              	.LVL117:
 782              	.L62:
 783              		.loc 1 144 0
 784 0380 0121     		movs	r1, #1
 785 0382 91E6     		b	.L32
 786              	.LVL118:
 787              	.L132:
 788              		.loc 1 169 0
 789 0384 1968     		ldr	r1, [r3, #0]
 790              	.LVL119:
 791 0386 0292     		str	r2, [sp, #8]
 792              		.loc 1 172 0
 793 0388 0029     		cmp	r1, #0
 794 038a E2DA     		bge	.L67
 795              	.L133:
 796              		.loc 1 173 0
 797 038c 2D20     		movs	r0, #45
 798              	.LVL120:
ARM GAS  /tmp/ccULfhYZ.s 			page 15


 799 038e 8DF80C00 		strb	r0, [sp, #12]
 800              	.LVL121:
 801              		.loc 1 174 0
 802 0392 4942     		negs	r1, r1
 803              	.LVL122:
 804              		.loc 1 173 0
 805 0394 0DF10D00 		add	r0, sp, #13
 806 0398 DCE7     		b	.L48
 807              	.LVL123:
 808              	.L130:
 809              		.loc 1 206 0 discriminator 1
 810 039a 302F     		cmp	r7, #48
 811 039c 8ED1     		bne	.L53
 812              		.loc 1 207 0
 813 039e 2B68     		ldr	r3, [r5, #0]
 814 03a0 2846     		mov	r0, r5
 815 03a2 1B69     		ldr	r3, [r3, #16]
 816 03a4 4FF0FF32 		mov	r2, #-1
 817 03a8 9847     		blx	r3
 818              	.LVL124:
 819 03aa 09F10109 		add	r9, r9, #1
 820              	.LVL125:
 821              		.loc 1 208 0
 822 03ae 0AF1FF3A 		add	sl, sl, #-1
 823              	.LVL126:
 824 03b2 83E7     		b	.L53
 825              	.LVL127:
 826              	.L110:
 827 03b4 C9EB0A0A 		rsb	sl, r9, sl
 828              		.loc 1 158 0
 829 03b8 2027     		movs	r7, #32
 830 03ba 71E7     		b	.L41
 831              	.LVL128:
 832              	.L66:
 833              		.loc 1 163 0
 834 03bc BA46     		mov	sl, r7
 835              		.loc 1 158 0
 836 03be 2027     		movs	r7, #32
 837 03c0 6EE7     		b	.L41
 838              		.cfi_endproc
 839              	.LFE8:
 840              		.size	chprintf, .-chprintf
 841 03c2 00BFAFF3 		.section	.rodata.str1.4,"aMS",%progbits,1
 841      0080AFF3 
 841      0080AFF3 
 841      0080
 842              		.align	2
 843              	.LC0:
 844 0000 286E756C 		.ascii	"(null)\000"
 844      6C2900
 845 0007 00       		.text
 846              	.Letext0:
 847              		.file 2 "/home/formica/toolchains/gcc-arm-none-eabi-4_7-2012q4/bin/../lib/gcc/arm-none-eabi/4.7.3/
 848              		.file 3 "/home/formica/toolchains/gcc-arm-none-eabi-4_7-2012q4/bin/../lib/gcc/arm-none-eabi/4.7.3/
 849              		.file 4 "/home/formica/toolchains/gcc-arm-none-eabi-4_7-2012q4/bin/../lib/gcc/arm-none-eabi/4.7.3/
 850              		.file 5 "/home/formica/chibios/chibios/os/ports/GCC/ARMCMx/chtypes.h"
 851              		.file 6 "<built-in>"
ARM GAS  /tmp/ccULfhYZ.s 			page 16


 852              		.file 7 "/home/formica/chibios/chibios/os/kernel/include/chioch.h"