ARM GAS  /tmp/ccyziTFj.s 			page 1


   1              		.syntax unified
   2              		.cpu cortex-m3
   3              		.fpu softvfp
   4              		.eabi_attribute 20, 1
   5              		.eabi_attribute 21, 1
   6              		.eabi_attribute 23, 3
   7              		.eabi_attribute 24, 1
   8              		.eabi_attribute 25, 1
   9              		.eabi_attribute 26, 1
  10              		.eabi_attribute 30, 2
  11              		.eabi_attribute 34, 1
  12              		.eabi_attribute 18, 4
  13              		.thumb
  14              		.file	"chregistry.c"
  15              		.text
  16              	.Ltext0:
  17              		.cfi_sections	.debug_frame
  18              		.section	.text.chRegFirstThread,"ax",%progbits
  19              		.align	2
  20              		.p2align 4,,15
  21              		.global	chRegFirstThread
  22              		.thumb
  23              		.thumb_func
  24              		.type	chRegFirstThread, %function
  25              	chRegFirstThread:
  26              	.LFB7:
  27              		.file 1 "/home/formica/chibios/chibios/os/kernel/src/chregistry.c"
  28              		.loc 1 113 0
  29              		.cfi_startproc
  30              		@ args = 0, pretend = 0, frame = 0
  31              		@ frame_needed = 0, uses_anonymous_args = 0
  32 0000 10B5     		push	{r4, lr}
  33              	.LCFI0:
  34              		.cfi_def_cfa_offset 8
  35              		.cfi_offset 4, -8
  36              		.cfi_offset 14, -4
  37              	.LBB2:
  38              		.loc 1 116 0
  39 0002 2023     		movs	r3, #32
  40              	.LVL0:
  41              	@ 116 "/home/formica/chibios/chibios/os/kernel/src/chregistry.c" 1
  42 0004 83F31188 		msr     BASEPRI, r3
  43              	@ 0 "" 2
  44              	.LVL1:
  45              		.thumb
  46              	.LBE2:
  47 0008 FFF7FEFF 		bl	dbg_check_lock
  48              	.LVL2:
  49              		.loc 1 117 0
  50 000c 40F20003 		movw	r3, #:lower16:rlist
  51 0010 C0F20003 		movt	r3, #:upper16:rlist
  52 0014 1C69     		ldr	r4, [r3, #16]
  53              	.LVL3:
  54              		.loc 1 119 0
  55 0016 94F82200 		ldrb	r0, [r4, #34]	@ zero_extendqisi2
  56 001a 411C     		adds	r1, r0, #1
  57 001c 84F82210 		strb	r1, [r4, #34]
ARM GAS  /tmp/ccyziTFj.s 			page 2


  58              		.loc 1 121 0
  59 0020 FFF7FEFF 		bl	dbg_check_unlock
  60              	.LVL4:
  61              	.LBB3:
  62 0024 0023     		movs	r3, #0
  63              	.LVL5:
  64              	@ 121 "/home/formica/chibios/chibios/os/kernel/src/chregistry.c" 1
  65 0026 83F31188 		msr     BASEPRI, r3
  66              	@ 0 "" 2
  67              	.LVL6:
  68              		.thumb
  69              	.LBE3:
  70              		.loc 1 123 0
  71 002a 2046     		mov	r0, r4
  72 002c 10BD     		pop	{r4, pc}
  73              		.cfi_endproc
  74              	.LFE7:
  75              		.size	chRegFirstThread, .-chRegFirstThread
  76 002e 00BF     		.section	.text.chRegNextThread,"ax",%progbits
  77              		.align	2
  78              		.p2align 4,,15
  79              		.global	chRegNextThread
  80              		.thumb
  81              		.thumb_func
  82              		.type	chRegNextThread, %function
  83              	chRegNextThread:
  84              	.LFB8:
  85              		.loc 1 136 0
  86              		.cfi_startproc
  87              		@ args = 0, pretend = 0, frame = 0
  88              		@ frame_needed = 0, uses_anonymous_args = 0
  89              	.LVL7:
  90 0000 38B5     		push	{r3, r4, r5, lr}
  91              	.LCFI1:
  92              		.cfi_def_cfa_offset 16
  93              		.cfi_offset 3, -16
  94              		.cfi_offset 4, -12
  95              		.cfi_offset 5, -8
  96              		.cfi_offset 14, -4
  97              		.loc 1 136 0
  98 0002 0546     		mov	r5, r0
  99              	.LBB4:
 100              		.loc 1 139 0
 101 0004 2023     		movs	r3, #32
 102              	.LVL8:
 103              	@ 139 "/home/formica/chibios/chibios/os/kernel/src/chregistry.c" 1
 104 0006 83F31188 		msr     BASEPRI, r3
 105              	@ 0 "" 2
 106              	.LVL9:
 107              		.thumb
 108              	.LBE4:
 109 000a FFF7FEFF 		bl	dbg_check_lock
 110              	.LVL10:
 111              		.loc 1 140 0
 112 000e 2C69     		ldr	r4, [r5, #16]
 113              	.LVL11:
 114              		.loc 1 141 0
ARM GAS  /tmp/ccyziTFj.s 			page 3


 115 0010 0D4B     		ldr	r3, .L8
 116 0012 9C42     		cmp	r4, r3
 117 0014 16D0     		beq	.L5
 118              		.loc 1 145 0
 119 0016 94F82200 		ldrb	r0, [r4, #34]	@ zero_extendqisi2
 120 001a FF28     		cmp	r0, #255
 121 001c 0CD0     		beq	.L7
 122              	.L4:
 123              		.loc 1 147 0
 124 001e 411C     		adds	r1, r0, #1
 125 0020 84F82210 		strb	r1, [r4, #34]
 126              	.LVL12:
 127              	.L3:
 128              		.loc 1 150 0
 129 0024 FFF7FEFF 		bl	dbg_check_unlock
 130              	.LVL13:
 131              	.LBB5:
 132 0028 0023     		movs	r3, #0
 133              	.LVL14:
 134              	@ 150 "/home/formica/chibios/chibios/os/kernel/src/chregistry.c" 1
 135 002a 83F31188 		msr     BASEPRI, r3
 136              	@ 0 "" 2
 137              	.LVL15:
 138              		.thumb
 139              	.LBE5:
 140              		.loc 1 152 0
 141 002e 2846     		mov	r0, r5
 142 0030 FFF7FEFF 		bl	chThdRelease
 143              	.LVL16:
 144              		.loc 1 155 0
 145 0034 2046     		mov	r0, r4
 146 0036 38BD     		pop	{r3, r4, r5, pc}
 147              	.L7:
 148              		.loc 1 145 0 discriminator 1
 149 0038 0448     		ldr	r0, .L8+4
 150 003a FFF7FEFF 		bl	chDbgPanic
 151              	.LVL17:
 152 003e 94F82200 		ldrb	r0, [r4, #34]	@ zero_extendqisi2
 153 0042 ECE7     		b	.L4
 154              	.L5:
 155              		.loc 1 142 0
 156 0044 0024     		movs	r4, #0
 157              	.LVL18:
 158 0046 EDE7     		b	.L3
 159              	.L9:
 160              		.align	2
 161              	.L8:
 162 0048 00000000 		.word	rlist
 163 004c 00000000 		.word	.LC0
 164              		.cfi_endproc
 165              	.LFE8:
 166              		.size	chRegNextThread, .-chRegNextThread
 167              		.global	ch_debug
 168              		.section	.rodata.ch_debug,"a",%progbits
 169              		.align	2
 170              		.type	ch_debug, %object
 171              		.size	ch_debug, 22
ARM GAS  /tmp/ccyziTFj.s 			page 4


 172              	ch_debug:
 173 0000 6D61696E 		.ascii	"main"
 174 0004 00       		.byte	0
 175 0005 16       		.byte	22
 176 0006 0311     		.short	4355
 177 0008 04       		.byte	4
 178 0009 04       		.byte	4
 179 000a 4C       		.byte	76
 180 000b 08       		.byte	8
 181 000c 0C       		.byte	12
 182 000d 10       		.byte	16
 183 000e 14       		.byte	20
 184 000f 18       		.byte	24
 185 0010 1C       		.byte	28
 186 0011 20       		.byte	32
 187 0012 21       		.byte	33
 188 0013 22       		.byte	34
 189 0014 00       		.byte	0
 190 0015 24       		.byte	36
 191 0016 0000     		.section	.rodata.str1.4,"aMS",%progbits,1
 192              		.align	2
 193              	.LC0:
 194 0000 63685265 		.ascii	"chRegNextThread(), #1\000"
 194      674E6578 
 194      74546872 
 194      65616428 
 194      292C2023 
 195 0016 0000     		.text
 196              	.Letext0:
 197              		.file 2 "/home/formica/toolchains/gcc-arm-none-eabi-4_7-2012q4/bin/../lib/gcc/arm-none-eabi/4.7.3/
 198              		.file 3 "/home/formica/toolchains/gcc-arm-none-eabi-4_7-2012q4/bin/../lib/gcc/arm-none-eabi/4.7.3/
 199              		.file 4 "/home/formica/chibios/chibios/os/ports/GCC/ARMCMx/chtypes.h"
 200              		.file 5 "/home/formica/chibios/chibios/os/kernel/include/chlists.h"
 201              		.file 6 "/home/formica/chibios/chibios/os/kernel/include/chthreads.h"
 202              		.file 7 "/home/formica/chibios/chibios/os/ports/GCC/ARMCMx/chcore_v7m.h"
 203              		.file 8 "/home/formica/chibios/chibios/os/kernel/include/chschd.h"
 204              		.file 9 "/home/formica/chibios/chibios/os/kernel/include/chmtx.h"
 205              		.file 10 "/home/formica/chibios/chibios/os/kernel/include/chregistry.h"
 206              		.file 11 "/home/formica/chibios/chibios/os/kernel/include/chdebug.h"
 207              		.file 12 "/home/formica/chibios/chibios/os/kernel/include/chdynamic.h"