ARM GAS  /tmp/ccou1U8I.s 			page 1


   1              		.syntax unified
   2              		.cpu cortex-m3
   3              		.fpu softvfp
   4              		.eabi_attribute 20, 1
   5              		.eabi_attribute 21, 1
   6              		.eabi_attribute 23, 3
   7              		.eabi_attribute 24, 1
   8              		.eabi_attribute 25, 1
   9              		.eabi_attribute 26, 1
  10              		.eabi_attribute 30, 2
  11              		.eabi_attribute 34, 1
  12              		.eabi_attribute 18, 4
  13              		.thumb
  14              		.file	"chsys.c"
  15              		.text
  16              	.Ltext0:
  17              		.cfi_sections	.debug_frame
  18              		.section	.text._idle_thread,"ax",%progbits
  19              		.align	2
  20              		.p2align 4,,15
  21              		.global	_idle_thread
  22              		.thumb
  23              		.thumb_func
  24              		.type	_idle_thread, %function
  25              	_idle_thread:
  26              	.LFB7:
  27              		.file 1 "/home/formica/chibios/chibios/os/kernel/src/chsys.c"
  28              		.loc 1 61 0
  29              		.cfi_startproc
  30              		@ args = 0, pretend = 0, frame = 0
  31              		@ frame_needed = 0, uses_anonymous_args = 0
  32              		@ link register save eliminated.
  33              	.LVL0:
  34              		.loc 1 64 0
  35 0000 024B     		ldr	r3, .L4
  36 0002 034A     		ldr	r2, .L4+4
  37 0004 D869     		ldr	r0, [r3, #28]
  38              	.LVL1:
  39 0006 8261     		str	r2, [r0, #24]
  40              	.L2:
  41 0008 FEE7     		b	.L2
  42              	.L5:
  43 000a 00BF     		.align	2
  44              	.L4:
  45 000c 00000000 		.word	rlist
  46 0010 00000000 		.word	.LC0
  47              		.cfi_endproc
  48              	.LFE7:
  49              		.size	_idle_thread, .-_idle_thread
  50 0014 AFF30080 		.section	.text.chSysInit,"ax",%progbits
  50      AFF30080 
  50      AFF30080 
  51              		.align	2
  52              		.p2align 4,,15
  53              		.global	chSysInit
  54              		.thumb
  55              		.thumb_func
ARM GAS  /tmp/ccou1U8I.s 			page 2


  56              		.type	chSysInit, %function
  57              	chSysInit:
  58              	.LFB8:
  59              		.loc 1 84 0
  60              		.cfi_startproc
  61              		@ args = 0, pretend = 0, frame = 0
  62              		@ frame_needed = 0, uses_anonymous_args = 0
  63 0000 30B5     		push	{r4, r5, lr}
  64              	.LCFI0:
  65              		.cfi_def_cfa_offset 12
  66              		.cfi_offset 4, -12
  67              		.cfi_offset 5, -8
  68              		.cfi_offset 14, -4
  69 0002 83B0     		sub	sp, sp, #12
  70              	.LCFI1:
  71              		.cfi_def_cfa_offset 24
  72              		.loc 1 90 0
  73 0004 FFF7FEFF 		bl	_port_init
  74              	.LVL2:
  75              		.loc 1 91 0
  76 0008 FFF7FEFF 		bl	_scheduler_init
  77              	.LVL3:
  78              		.loc 1 92 0
  79 000c FFF7FEFF 		bl	_vt_init
  80              	.LVL4:
  81              		.loc 1 94 0
  82 0010 FFF7FEFF 		bl	_core_init
  83              	.LVL5:
  84              		.loc 1 97 0
  85 0014 FFF7FEFF 		bl	_heap_init
  86              	.LVL6:
  87              		.loc 1 100 0
  88 0018 FFF7FEFF 		bl	_trace_init
  89              	.LVL7:
  90              		.loc 1 104 0
  91 001c 40F20000 		movw	r0, #:lower16:.LANCHOR0
  92 0020 4021     		movs	r1, #64
  93 0022 C0F20000 		movt	r0, #:upper16:.LANCHOR0
  94 0026 FFF7FEFF 		bl	_thread_init
  95              	.LVL8:
  96 002a 40F20004 		movw	r4, #:lower16:rlist
  97              		.loc 1 109 0
  98 002e 40F20003 		movw	r3, #:lower16:__main_thread_stack_base__
  99 0032 C0F20003 		movt	r3, #:upper16:__main_thread_stack_base__
 100              		.loc 1 104 0
 101 0036 C0F20004 		movt	r4, #:upper16:rlist
 102              		.loc 1 105 0
 103 003a 0125     		movs	r5, #1
 104              		.loc 1 104 0
 105 003c E061     		str	r0, [r4, #28]
 106              		.loc 1 105 0
 107 003e 80F82050 		strb	r5, [r0, #32]
 108              		.loc 1 109 0
 109 0042 C361     		str	r3, [r0, #28]
 110              		.loc 1 111 0
 111 0044 FFF7FEFF 		bl	dbg_check_enable
 112              	.LVL9:
ARM GAS  /tmp/ccou1U8I.s 			page 3


 113              	.LBB2:
 114 0048 0023     		movs	r3, #0
 115              	.LVL10:
 116              	@ 111 "/home/formica/chibios/chibios/os/kernel/src/chsys.c" 1
 117 004a 83F31188 		msr     BASEPRI, r3                    
 118 004e 62B6     		cpsie   i
 119              	@ 0 "" 2
 120              	.LVL11:
 121              		.thumb
 122              	.LBE2:
 123              		.loc 1 115 0
 124 0050 40F20001 		movw	r1, #:lower16:ch_debug
 125 0054 E269     		ldr	r2, [r4, #28]
 126 0056 C0F20001 		movt	r1, #:upper16:ch_debug
 127 005a 9161     		str	r1, [r2, #24]
 128              		.loc 1 121 0
 129 005c 40F20000 		movw	r0, #:lower16:.LANCHOR1
 130 0060 0093     		str	r3, [sp, #0]
 131 0062 40F20003 		movw	r3, #:lower16:_idle_thread
 132              	.LVL12:
 133 0066 C021     		movs	r1, #192
 134 0068 2A46     		mov	r2, r5
 135 006a C0F20003 		movt	r3, #:upper16:_idle_thread
 136 006e C0F20000 		movt	r0, #:upper16:.LANCHOR1
 137 0072 FFF7FEFF 		bl	chThdCreateStatic
 138              	.LVL13:
 139              		.loc 1 124 0
 140 0076 03B0     		add	sp, sp, #12
 141 0078 30BD     		pop	{r4, r5, pc}
 142              		.cfi_endproc
 143              	.LFE8:
 144              		.size	chSysInit, .-chSysInit
 145 007a 00BFAFF3 		.section	.text.chSysTimerHandlerI,"ax",%progbits
 145      0080
 146              		.align	2
 147              		.p2align 4,,15
 148              		.global	chSysTimerHandlerI
 149              		.thumb
 150              		.thumb_func
 151              		.type	chSysTimerHandlerI, %function
 152              	chSysTimerHandlerI:
 153              	.LFB9:
 154              		.loc 1 137 0
 155              		.cfi_startproc
 156              		@ args = 0, pretend = 0, frame = 0
 157              		@ frame_needed = 0, uses_anonymous_args = 0
 158 0000 38B5     		push	{r3, r4, r5, lr}
 159              	.LCFI2:
 160              		.cfi_def_cfa_offset 16
 161              		.cfi_offset 3, -16
 162              		.cfi_offset 4, -12
 163              		.cfi_offset 5, -8
 164              		.cfi_offset 14, -4
 165              		.loc 1 139 0
 166 0002 FFF7FEFF 		bl	chDbgCheckClassI
 167              	.LVL14:
 168              		.loc 1 143 0
ARM GAS  /tmp/ccou1U8I.s 			page 4


 169 0006 104B     		ldr	r3, .L17
 170 0008 9A69     		ldr	r2, [r3, #24]
 171 000a 002A     		cmp	r2, #0
 172 000c 01DD     		ble	.L8
 173              		.loc 1 145 0
 174 000e 501E     		subs	r0, r2, #1
 175 0010 9861     		str	r0, [r3, #24]
 176              	.L8:
 177              		.loc 1 148 0
 178 0012 DA69     		ldr	r2, [r3, #28]
 179              		.loc 1 150 0
 180 0014 0D4C     		ldr	r4, .L17+4
 181              		.loc 1 148 0
 182 0016 516A     		ldr	r1, [r2, #36]
 183              		.loc 1 150 0
 184 0018 2368     		ldr	r3, [r4, #0]
 185              		.loc 1 148 0
 186 001a 481C     		adds	r0, r1, #1
 187 001c 5062     		str	r0, [r2, #36]
 188              		.loc 1 150 0
 189 001e E268     		ldr	r2, [r4, #12]
 190 0020 511C     		adds	r1, r2, #1
 191 0022 A342     		cmp	r3, r4
 192 0024 E160     		str	r1, [r4, #12]
 193 0026 0ED0     		beq	.L7
 194              	.LBB3:
 195              		.loc 1 150 0 is_stmt 0 discriminator 1
 196 0028 9D68     		ldr	r5, [r3, #8]
 197 002a 013D     		subs	r5, r5, #1
 198 002c 9D60     		str	r5, [r3, #8]
 199              	.LVL15:
 200 002e 55B9     		cbnz	r5, .L7
 201              	.L14:
 202              	.LBB4:
 203              		.loc 1 150 0 discriminator 3
 204 0030 1A68     		ldr	r2, [r3, #0]
 205 0032 D968     		ldr	r1, [r3, #12]
 206              	.LVL16:
 207 0034 1869     		ldr	r0, [r3, #16]
 208 0036 DD60     		str	r5, [r3, #12]
 209 0038 5460     		str	r4, [r2, #4]
 210 003a 2260     		str	r2, [r4, #0]
 211 003c 8847     		blx	r1
 212              	.LVL17:
 213              	.LBE4:
 214 003e 2368     		ldr	r3, [r4, #0]
 215              	.LVL18:
 216 0040 9868     		ldr	r0, [r3, #8]
 217 0042 0028     		cmp	r0, #0
 218 0044 F4D0     		beq	.L14
 219              	.LVL19:
 220              	.L7:
 221 0046 38BD     		pop	{r3, r4, r5, pc}
 222              	.L18:
 223              		.align	2
 224              	.L17:
 225 0048 00000000 		.word	rlist
ARM GAS  /tmp/ccou1U8I.s 			page 5


 226 004c 00000000 		.word	vtlist
 227              	.LBE3:
 228              		.cfi_endproc
 229              	.LFE9:
 230              		.size	chSysTimerHandlerI, .-chSysTimerHandlerI
 231              		.global	_idle_thread_wa
 232              		.section	.bss.mainthread.4864,"aw",%nobits
 233              		.align	2
 234              		.set	.LANCHOR0,. + 0
 235              		.type	mainthread.4864, %object
 236              		.size	mainthread.4864, 76
 237              	mainthread.4864:
 238 0000 00000000 		.space	76
 238      00000000 
 238      00000000 
 238      00000000 
 238      00000000 
 239              		.section	.rodata.str1.4,"aMS",%progbits,1
 240              		.align	2
 241              	.LC0:
 242 0000 69646C65 		.ascii	"idle\000"
 242      00
 243 0005 000000   		.section	.bss._idle_thread_wa,"aw",%nobits
 244              		.align	3
 245              		.set	.LANCHOR1,. + 0
 246              		.type	_idle_thread_wa, %object
 247              		.size	_idle_thread_wa, 192
 248              	_idle_thread_wa:
 249 0000 00000000 		.space	192
 249      00000000 
 249      00000000 
 249      00000000 
 249      00000000 
 250              		.text
 251              	.Letext0:
 252              		.file 2 "/home/formica/toolchains/gcc-arm-none-eabi-4_7-2012q4/bin/../lib/gcc/arm-none-eabi/4.7.3/
 253              		.file 3 "/home/formica/toolchains/gcc-arm-none-eabi-4_7-2012q4/bin/../lib/gcc/arm-none-eabi/4.7.3/
 254              		.file 4 "/home/formica/chibios/chibios/os/ports/GCC/ARMCMx/chtypes.h"
 255              		.file 5 "/home/formica/chibios/chibios/os/kernel/include/chlists.h"
 256              		.file 6 "/home/formica/chibios/chibios/os/kernel/include/chthreads.h"
 257              		.file 7 "/home/formica/chibios/chibios/os/ports/GCC/ARMCMx/chcore_v7m.h"
 258              		.file 8 "/home/formica/chibios/chibios/os/kernel/include/chvt.h"
 259              		.file 9 "/home/formica/chibios/chibios/os/kernel/include/chschd.h"
 260              		.file 10 "/home/formica/chibios/chibios/os/kernel/include/chmtx.h"
 261              		.file 11 "/home/formica/chibios/chibios/os/kernel/include/chregistry.h"
 262              		.file 12 "/home/formica/chibios/chibios/os/kernel/include/chmemcore.h"
 263              		.file 13 "/home/formica/chibios/chibios/os/kernel/include/chheap.h"
 264              		.file 14 "/home/formica/chibios/chibios/os/kernel/include/chdebug.h"