ARM GAS  /tmp/ccu5vOc6.s 			page 1


   1              		.syntax unified
   2              		.cpu cortex-m3
   3              		.fpu softvfp
   4              		.eabi_attribute 20, 1
   5              		.eabi_attribute 21, 1
   6              		.eabi_attribute 23, 3
   7              		.eabi_attribute 24, 1
   8              		.eabi_attribute 25, 1
   9              		.eabi_attribute 26, 1
  10              		.eabi_attribute 30, 2
  11              		.eabi_attribute 34, 1
  12              		.eabi_attribute 18, 4
  13              		.thumb
  14              		.file	"chthreads.c"
  15              		.text
  16              	.Ltext0:
  17              		.cfi_sections	.debug_frame
  18              		.section	.text._thread_init,"ax",%progbits
  19              		.align	2
  20              		.p2align 4,,15
  21              		.global	_thread_init
  22              		.thumb
  23              		.thumb_func
  24              		.type	_thread_init, %function
  25              	_thread_init:
  26              	.LFB7:
  27              		.file 1 "/home/formica/chibios/chibios/os/kernel/src/chthreads.c"
  28              		.loc 1 76 0
  29              		.cfi_startproc
  30              		@ args = 0, pretend = 0, frame = 0
  31              		@ frame_needed = 0, uses_anonymous_args = 0
  32              		@ link register save eliminated.
  33              	.LVL0:
  34 0000 2DE9F001 		push	{r4, r5, r6, r7, r8}
  35              	.LCFI0:
  36              		.cfi_def_cfa_offset 20
  37              		.cfi_offset 4, -20
  38              		.cfi_offset 5, -16
  39              		.cfi_offset 6, -12
  40              		.cfi_offset 7, -8
  41              		.cfi_offset 8, -4
  42              		.loc 1 96 0
  43 0004 40F20004 		movw	r4, #:lower16:rlist
  44 0008 C0F20004 		movt	r4, #:upper16:rlist
  45 000c 6569     		ldr	r5, [r4, #20]
  46              		.loc 1 80 0
  47 000e 0022     		movs	r2, #0
  48              		.loc 1 102 0
  49 0010 00F13006 		add	r6, r0, #48
  50              		.loc 1 78 0
  51 0014 8160     		str	r1, [r0, #8]
  52              		.loc 1 99 0
  53 0016 00F12C0C 		add	ip, r0, #44
  54              		.loc 1 105 0
  55 001a 00F14C07 		add	r7, r0, #76
  56              		.loc 1 79 0
  57 001e 4FF00208 		mov	r8, #2
ARM GAS  /tmp/ccu5vOc6.s 			page 2


  58              		.loc 1 82 0
  59 0022 4164     		str	r1, [r0, #68]
  60              		.loc 1 92 0
  61 0024 0121     		movs	r1, #1
  62              	.LVL1:
  63              		.loc 1 96 0
  64 0026 0461     		str	r4, [r0, #16]
  65 0028 4561     		str	r5, [r0, #20]
  66              		.loc 1 79 0
  67 002a 80F82080 		strb	r8, [r0, #32]
  68              		.loc 1 96 0
  69 002e 6061     		str	r0, [r4, #20]
  70              		.loc 1 80 0
  71 0030 80F82120 		strb	r2, [r0, #33]
  72              		.loc 1 83 0
  73 0034 0264     		str	r2, [r0, #64]
  74              		.loc 1 86 0
  75 0036 C263     		str	r2, [r0, #60]
  76              		.loc 1 89 0
  77 0038 4262     		str	r2, [r0, #36]
  78              		.loc 1 92 0
  79 003a 80F82210 		strb	r1, [r0, #34]
  80              		.loc 1 95 0
  81 003e 8261     		str	r2, [r0, #24]
  82              		.loc 1 96 0
  83 0040 2861     		str	r0, [r5, #16]
  84              		.loc 1 99 0
  85 0042 C0F82CC0 		str	ip, [r0, #44]
  86              		.loc 1 102 0
  87 0046 4663     		str	r6, [r0, #52]
  88 0048 0663     		str	r6, [r0, #48]
  89              		.loc 1 105 0
  90 004a C761     		str	r7, [r0, #28]
  91              		.loc 1 111 0
  92 004c BDE8F001 		pop	{r4, r5, r6, r7, r8}
  93 0050 7047     		bx	lr
  94              		.cfi_endproc
  95              	.LFE7:
  96              		.size	_thread_init, .-_thread_init
  97 0052 00BFAFF3 		.section	.text._thread_memfill,"ax",%progbits
  97      0080AFF3 
  97      0080AFF3 
  97      0080
  98              		.align	2
  99              		.p2align 4,,15
 100              		.global	_thread_memfill
 101              		.thumb
 102              		.thumb_func
 103              		.type	_thread_memfill, %function
 104              	_thread_memfill:
 105              	.LFB8:
 106              		.loc 1 123 0
 107              		.cfi_startproc
 108              		@ args = 0, pretend = 0, frame = 0
 109              		@ frame_needed = 0, uses_anonymous_args = 0
 110              		@ link register save eliminated.
 111              	.LVL2:
ARM GAS  /tmp/ccu5vOc6.s 			page 3


 112              		.loc 1 125 0
 113 0000 8842     		cmp	r0, r1
 114 0002 13D2     		bcs	.L2
 115 0004 C343     		mvns	r3, r0
 116              		.loc 1 126 0
 117 0006 00F8012B 		strb	r2, [r0], #1
 118              	.LVL3:
 119 000a CB18     		adds	r3, r1, r3
 120              		.loc 1 125 0
 121 000c 8842     		cmp	r0, r1
 122 000e 03F00103 		and	r3, r3, #1
 123 0012 0CD0     		beq	.L16
 124 0014 1BB1     		cbz	r3, .L6
 125              		.loc 1 126 0
 126 0016 00F8012B 		strb	r2, [r0], #1
 127              	.LVL4:
 128              		.loc 1 125 0
 129 001a 8842     		cmp	r0, r1
 130 001c 08D0     		beq	.L17
 131              	.L6:
 132              		.loc 1 126 0
 133 001e 0346     		mov	r3, r0
 134 0020 03F8012B 		strb	r2, [r3], #1
 135 0024 4270     		strb	r2, [r0, #1]
 136 0026 581C     		adds	r0, r3, #1
 137              		.loc 1 125 0
 138 0028 8842     		cmp	r0, r1
 139 002a F8D1     		bne	.L6
 140              	.L2:
 141 002c 7047     		bx	lr
 142              	.LVL5:
 143              	.L16:
 144 002e 7047     		bx	lr
 145              	.LVL6:
 146              	.L17:
 147 0030 7047     		bx	lr
 148              		.cfi_endproc
 149              	.LFE8:
 150              		.size	_thread_memfill, .-_thread_memfill
 151 0032 00BFAFF3 		.section	.text.chThdCreateI,"ax",%progbits
 151      0080AFF3 
 151      0080AFF3 
 151      0080
 152              		.align	2
 153              		.p2align 4,,15
 154              		.global	chThdCreateI
 155              		.thumb
 156              		.thumb_func
 157              		.type	chThdCreateI, %function
 158              	chThdCreateI:
 159              	.LFB9:
 160              		.loc 1 155 0
 161              		.cfi_startproc
 162              		@ args = 4, pretend = 0, frame = 0
 163              		@ frame_needed = 0, uses_anonymous_args = 0
 164              	.LVL7:
 165 0000 2DE9F047 		push	{r4, r5, r6, r7, r8, r9, sl, lr}
ARM GAS  /tmp/ccu5vOc6.s 			page 4


 166              	.LCFI1:
 167              		.cfi_def_cfa_offset 32
 168              		.cfi_offset 4, -32
 169              		.cfi_offset 5, -28
 170              		.cfi_offset 6, -24
 171              		.cfi_offset 7, -20
 172              		.cfi_offset 8, -16
 173              		.cfi_offset 9, -12
 174              		.cfi_offset 10, -8
 175              		.cfi_offset 14, -4
 176              		.loc 1 155 0
 177 0004 0446     		mov	r4, r0
 178              	.LVL8:
 179 0006 0D46     		mov	r5, r1
 180 0008 9046     		mov	r8, r2
 181 000a 9946     		mov	r9, r3
 182              		.loc 1 159 0
 183 000c FFF7FEFF 		bl	chDbgCheckClassI
 184              	.LVL9:
 185              		.loc 1 161 0
 186 0010 0CB1     		cbz	r4, .L19
 187              		.loc 1 161 0 is_stmt 0 discriminator 2
 188 0012 AF2D     		cmp	r5, #175
 189 0014 32D8     		bhi	.L24
 190              	.L19:
 191              		.loc 1 161 0 discriminator 1
 192 0016 1D48     		ldr	r0, .L25
 193 0018 FFF7FEFF 		bl	chDbgPanic
 194              	.LVL10:
 195              	.L20:
 196              	.LBB16:
 197              	.LBB17:
 198              		.loc 1 96 0 is_stmt 1
 199 001c 1C4E     		ldr	r6, .L25+4
 200              	.LBE17:
 201              	.LBE16:
 202              		.loc 1 164 0
 203 001e A5F12403 		sub	r3, r5, #36
 204 0022 E718     		adds	r7, r4, r3
 205              	.LBB23:
 206              	.LBB18:
 207              		.loc 1 96 0
 208 0024 7169     		ldr	r1, [r6, #20]
 209              	.LBE18:
 210              	.LBE23:
 211              		.loc 1 164 0
 212 0026 E760     		str	r7, [r4, #12]
 213 0028 44F80390 		str	r9, [r4, r3]
 214 002c 089B     		ldr	r3, [sp, #32]
 215              	.LBB24:
 216              	.LBB19:
 217              		.loc 1 80 0
 218 002e 0025     		movs	r5, #0
 219              	.LVL11:
 220              	.LBE19:
 221              	.LBE24:
 222              		.loc 1 164 0
ARM GAS  /tmp/ccu5vOc6.s 			page 5


 223 0030 7B60     		str	r3, [r7, #4]
 224 0032 184B     		ldr	r3, .L25+8
 225              	.LBB25:
 226              	.LBB20:
 227              		.loc 1 102 0
 228 0034 04F13002 		add	r2, r4, #48
 229              	.LBE20:
 230              	.LBE25:
 231              		.loc 1 164 0
 232 0038 3B62     		str	r3, [r7, #32]
 233              	.LVL12:
 234              	.LBB26:
 235              	.LBB21:
 236              		.loc 1 79 0
 237 003a 0223     		movs	r3, #2
 238              		.loc 1 99 0
 239 003c 04F12C0A 		add	sl, r4, #44
 240              		.loc 1 105 0
 241 0040 04F14C0C 		add	ip, r4, #76
 242              		.loc 1 79 0
 243 0044 84F82030 		strb	r3, [r4, #32]
 244              		.loc 1 92 0
 245 0048 0123     		movs	r3, #1
 246              		.loc 1 96 0
 247 004a 2661     		str	r6, [r4, #16]
 248              		.loc 1 78 0
 249 004c C4F80880 		str	r8, [r4, #8]
 250              		.loc 1 96 0
 251 0050 6161     		str	r1, [r4, #20]
 252              	.LBE21:
 253              	.LBE26:
 254              		.loc 1 166 0
 255 0052 2046     		mov	r0, r4
 256              	.LBB27:
 257              	.LBB22:
 258              		.loc 1 96 0
 259 0054 7461     		str	r4, [r6, #20]
 260              		.loc 1 80 0
 261 0056 84F82150 		strb	r5, [r4, #33]
 262              		.loc 1 82 0
 263 005a C4F84480 		str	r8, [r4, #68]
 264              		.loc 1 83 0
 265 005e 2564     		str	r5, [r4, #64]
 266              		.loc 1 86 0
 267 0060 E563     		str	r5, [r4, #60]
 268              		.loc 1 89 0
 269 0062 6562     		str	r5, [r4, #36]
 270              		.loc 1 92 0
 271 0064 84F82230 		strb	r3, [r4, #34]
 272              		.loc 1 95 0
 273 0068 A561     		str	r5, [r4, #24]
 274              		.loc 1 96 0
 275 006a 0C61     		str	r4, [r1, #16]
 276              		.loc 1 99 0
 277 006c C4F82CA0 		str	sl, [r4, #44]
 278              		.loc 1 102 0
 279 0070 6263     		str	r2, [r4, #52]
ARM GAS  /tmp/ccu5vOc6.s 			page 6


 280 0072 2263     		str	r2, [r4, #48]
 281              		.loc 1 105 0
 282 0074 C4F81CC0 		str	ip, [r4, #28]
 283              	.LBE22:
 284              	.LBE27:
 285              		.loc 1 166 0
 286 0078 BDE8F087 		pop	{r4, r5, r6, r7, r8, r9, sl, pc}
 287              	.LVL13:
 288              	.L24:
 289              		.loc 1 161 0 discriminator 3
 290 007c B8F17F0F 		cmp	r8, #127
 291 0080 C9D8     		bhi	.L19
 292              		.loc 1 161 0 is_stmt 0 discriminator 4
 293 0082 B9F1000F 		cmp	r9, #0
 294 0086 C9D1     		bne	.L20
 295 0088 C5E7     		b	.L19
 296              	.L26:
 297 008a 00BF     		.align	2
 298              	.L25:
 299 008c 00000000 		.word	.LC0
 300 0090 00000000 		.word	rlist
 301 0094 00000000 		.word	_port_thread_start
 302              		.cfi_endproc
 303              	.LFE9:
 304              		.size	chThdCreateI, .-chThdCreateI
 305 0098 AFF30080 		.section	.text.chThdCreateStatic,"ax",%progbits
 305      AFF30080 
 306              		.align	2
 307              		.p2align 4,,15
 308              		.global	chThdCreateStatic
 309              		.thumb
 310              		.thumb_func
 311              		.type	chThdCreateStatic, %function
 312              	chThdCreateStatic:
 313              	.LFB10:
 314              		.loc 1 185 0 is_stmt 1
 315              		.cfi_startproc
 316              		@ args = 4, pretend = 0, frame = 0
 317              		@ frame_needed = 0, uses_anonymous_args = 0
 318              	.LVL14:
 319 0000 2DE9F04F 		push	{r4, r5, r6, r7, r8, r9, sl, fp, lr}
 320              	.LCFI2:
 321              		.cfi_def_cfa_offset 36
 322              		.cfi_offset 4, -36
 323              		.cfi_offset 5, -32
 324              		.cfi_offset 6, -28
 325              		.cfi_offset 7, -24
 326              		.cfi_offset 8, -20
 327              		.cfi_offset 9, -16
 328              		.cfi_offset 10, -12
 329              		.cfi_offset 11, -8
 330              		.cfi_offset 14, -4
 331 0004 9B46     		mov	fp, r3
 332 0006 83B0     		sub	sp, sp, #12
 333              	.LCFI3:
 334              		.cfi_def_cfa_offset 48
 335              		.loc 1 185 0
ARM GAS  /tmp/ccu5vOc6.s 			page 7


 336 0008 8046     		mov	r8, r0
 337 000a 8946     		mov	r9, r1
 338 000c 9246     		mov	sl, r2
 339              		.loc 1 189 0
 340 000e 00F14C03 		add	r3, r0, #76
 341              	.LVL15:
 342              		.loc 1 184 0
 343 0012 00F10104 		add	r4, r0, #1
 344 0016 00F14D07 		add	r7, r0, #77
 345              	.LBB28:
 346              	.LBB29:
 347              		.loc 1 126 0
 348 001a FF26     		movs	r6, #255
 349              	.LVL16:
 350              	.L28:
 351 001c 2546     		mov	r5, r4
 352 001e 04F8016C 		strb	r6, [r4, #-1]
 353 0022 05F8016B 		strb	r6, [r5], #1
 354 0026 6C1C     		adds	r4, r5, #1
 355              		.loc 1 125 0
 356 0028 BC42     		cmp	r4, r7
 357 002a F7D1     		bne	.L28
 358              	.LBE29:
 359              	.LBE28:
 360              		.loc 1 192 0
 361 002c 08EB0907 		add	r7, r8, r9
 362              	.LVL17:
 363              	.LBB30:
 364              	.LBB31:
 365              		.loc 1 125 0
 366 0030 BB42     		cmp	r3, r7
 367 0032 15D2     		bcs	.L31
 368              		.loc 1 126 0
 369 0034 1846     		mov	r0, r3
 370              	.LVL18:
 371 0036 5526     		movs	r6, #85
 372 0038 DA43     		mvns	r2, r3
 373              	.LVL19:
 374 003a 00F8016B 		strb	r6, [r0], #1
 375 003e B918     		adds	r1, r7, r2
 376              	.LVL20:
 377              		.loc 1 125 0
 378 0040 B842     		cmp	r0, r7
 379 0042 01F00103 		and	r3, r1, #1
 380              	.LVL21:
 381 0046 0BD0     		beq	.L31
 382 0048 1BB1     		cbz	r3, .L32
 383              		.loc 1 126 0
 384 004a 00F8016B 		strb	r6, [r0], #1
 385              	.LVL22:
 386              		.loc 1 125 0
 387 004e B842     		cmp	r0, r7
 388 0050 06D0     		beq	.L31
 389              	.LVL23:
 390              	.L32:
 391              		.loc 1 126 0
 392 0052 0546     		mov	r5, r0
ARM GAS  /tmp/ccu5vOc6.s 			page 8


 393 0054 05F8016B 		strb	r6, [r5], #1
 394 0058 4670     		strb	r6, [r0, #1]
 395 005a 681C     		adds	r0, r5, #1
 396              		.loc 1 125 0
 397 005c B842     		cmp	r0, r7
 398 005e F8D1     		bne	.L32
 399              	.LVL24:
 400              	.L31:
 401              	.LBE31:
 402              	.LBE30:
 403              	.LBB32:
 404              		.loc 1 196 0
 405 0060 2023     		movs	r3, #32
 406              	.LVL25:
 407              	@ 196 "/home/formica/chibios/chibios/os/kernel/src/chthreads.c" 1
 408 0062 83F31188 		msr     BASEPRI, r3
 409              	@ 0 "" 2
 410              	.LVL26:
 411              		.thumb
 412              	.LBE32:
 413 0066 FFF7FEFF 		bl	dbg_check_lock
 414              	.LVL27:
 415              		.loc 1 197 0
 416 006a 0C9C     		ldr	r4, [sp, #48]
 417 006c 5B46     		mov	r3, fp
 418 006e 5246     		mov	r2, sl
 419 0070 4946     		mov	r1, r9
 420 0072 0094     		str	r4, [sp, #0]
 421 0074 4046     		mov	r0, r8
 422 0076 FFF7FEFF 		bl	chThdCreateI
 423              	.LVL28:
 424 007a 0021     		movs	r1, #0
 425 007c 0446     		mov	r4, r0
 426              	.LVL29:
 427 007e FFF7FEFF 		bl	chSchWakeupS
 428              	.LVL30:
 429              		.loc 1 198 0
 430 0082 FFF7FEFF 		bl	dbg_check_unlock
 431              	.LVL31:
 432              	.LBB33:
 433 0086 0023     		movs	r3, #0
 434              	.LVL32:
 435              	@ 198 "/home/formica/chibios/chibios/os/kernel/src/chthreads.c" 1
 436 0088 83F31188 		msr     BASEPRI, r3
 437              	@ 0 "" 2
 438              	.LVL33:
 439              		.thumb
 440              	.LBE33:
 441              		.loc 1 200 0
 442 008c 2046     		mov	r0, r4
 443 008e 03B0     		add	sp, sp, #12
 444 0090 BDE8F08F 		pop	{r4, r5, r6, r7, r8, r9, sl, fp, pc}
 445              		.cfi_endproc
 446              	.LFE10:
 447              		.size	chThdCreateStatic, .-chThdCreateStatic
 448 0094 AFF30080 		.section	.text.chThdSetPriority,"ax",%progbits
 448      AFF30080 
ARM GAS  /tmp/ccu5vOc6.s 			page 9


 448      AFF30080 
 449              		.align	2
 450              		.p2align 4,,15
 451              		.global	chThdSetPriority
 452              		.thumb
 453              		.thumb_func
 454              		.type	chThdSetPriority, %function
 455              	chThdSetPriority:
 456              	.LFB11:
 457              		.loc 1 214 0
 458              		.cfi_startproc
 459              		@ args = 0, pretend = 0, frame = 0
 460              		@ frame_needed = 0, uses_anonymous_args = 0
 461              	.LVL34:
 462              		.loc 1 217 0
 463 0000 7F28     		cmp	r0, #127
 464              		.loc 1 214 0
 465 0002 38B5     		push	{r3, r4, r5, lr}
 466              	.LCFI4:
 467              		.cfi_def_cfa_offset 16
 468              		.cfi_offset 3, -16
 469              		.cfi_offset 4, -12
 470              		.cfi_offset 5, -8
 471              		.cfi_offset 14, -4
 472              		.loc 1 214 0
 473 0004 0446     		mov	r4, r0
 474              		.loc 1 217 0
 475 0006 17D8     		bhi	.L47
 476              	.LVL35:
 477              	.L44:
 478              	.LBB34:
 479              		.loc 1 219 0
 480 0008 2023     		movs	r3, #32
 481              	.LVL36:
 482              	@ 219 "/home/formica/chibios/chibios/os/kernel/src/chthreads.c" 1
 483 000a 83F31188 		msr     BASEPRI, r3
 484              	@ 0 "" 2
 485              	.LVL37:
 486              		.thumb
 487              	.LBE34:
 488 000e FFF7FEFF 		bl	dbg_check_lock
 489              	.LVL38:
 490              		.loc 1 221 0
 491 0012 0B4B     		ldr	r3, .L48
 492 0014 D869     		ldr	r0, [r3, #28]
 493 0016 456C     		ldr	r5, [r0, #68]
 494              	.LVL39:
 495              		.loc 1 222 0
 496 0018 8268     		ldr	r2, [r0, #8]
 497 001a 9542     		cmp	r5, r2
 498 001c 01D0     		beq	.L45
 499              		.loc 1 222 0 is_stmt 0 discriminator 1
 500 001e 9442     		cmp	r4, r2
 501 0020 00D9     		bls	.L46
 502              	.L45:
 503              		.loc 1 223 0 is_stmt 1
 504 0022 8460     		str	r4, [r0, #8]
ARM GAS  /tmp/ccu5vOc6.s 			page 10


 505              	.L46:
 506              		.loc 1 224 0
 507 0024 4464     		str	r4, [r0, #68]
 508              		.loc 1 229 0
 509 0026 FFF7FEFF 		bl	chSchRescheduleS
 510              	.LVL40:
 511              		.loc 1 230 0
 512 002a FFF7FEFF 		bl	dbg_check_unlock
 513              	.LVL41:
 514              	.LBB35:
 515 002e 0023     		movs	r3, #0
 516              	.LVL42:
 517              	@ 230 "/home/formica/chibios/chibios/os/kernel/src/chthreads.c" 1
 518 0030 83F31188 		msr     BASEPRI, r3
 519              	@ 0 "" 2
 520              	.LVL43:
 521              		.thumb
 522              	.LBE35:
 523              		.loc 1 232 0
 524 0034 2846     		mov	r0, r5
 525 0036 38BD     		pop	{r3, r4, r5, pc}
 526              	.LVL44:
 527              	.L47:
 528              		.loc 1 217 0 discriminator 1
 529 0038 0248     		ldr	r0, .L48+4
 530              	.LVL45:
 531 003a FFF7FEFF 		bl	chDbgPanic
 532              	.LVL46:
 533 003e E3E7     		b	.L44
 534              	.L49:
 535              		.align	2
 536              	.L48:
 537 0040 00000000 		.word	rlist
 538 0044 14000000 		.word	.LC1
 539              		.cfi_endproc
 540              	.LFE11:
 541              		.size	chThdSetPriority, .-chThdSetPriority
 542 0048 AFF30080 		.section	.text.chThdResume,"ax",%progbits
 542      AFF30080 
 543              		.align	2
 544              		.p2align 4,,15
 545              		.global	chThdResume
 546              		.thumb
 547              		.thumb_func
 548              		.type	chThdResume, %function
 549              	chThdResume:
 550              	.LFB12:
 551              		.loc 1 247 0
 552              		.cfi_startproc
 553              		@ args = 0, pretend = 0, frame = 0
 554              		@ frame_needed = 0, uses_anonymous_args = 0
 555              	.LVL47:
 556 0000 10B5     		push	{r4, lr}
 557              	.LCFI5:
 558              		.cfi_def_cfa_offset 8
 559              		.cfi_offset 4, -8
 560              		.cfi_offset 14, -4
ARM GAS  /tmp/ccu5vOc6.s 			page 11


 561              	.LBB36:
 562              		.loc 1 249 0
 563 0002 2023     		movs	r3, #32
 564              	.LVL48:
 565              	.LBE36:
 566              		.loc 1 247 0
 567 0004 0446     		mov	r4, r0
 568              	.LBB37:
 569              		.loc 1 249 0
 570              	@ 249 "/home/formica/chibios/chibios/os/kernel/src/chthreads.c" 1
 571 0006 83F31188 		msr     BASEPRI, r3
 572              	@ 0 "" 2
 573              	.LVL49:
 574              		.thumb
 575              	.LBE37:
 576 000a FFF7FEFF 		bl	dbg_check_lock
 577              	.LVL50:
 578              		.loc 1 250 0
 579 000e 94F82030 		ldrb	r3, [r4, #32]	@ zero_extendqisi2
 580 0012 022B     		cmp	r3, #2
 581 0014 02D0     		beq	.L51
 582              		.loc 1 250 0 is_stmt 0 discriminator 1
 583 0016 0748     		ldr	r0, .L55
 584 0018 FFF7FEFF 		bl	chDbgPanic
 585              	.LVL51:
 586              	.L51:
 587              		.loc 1 253 0 is_stmt 1
 588 001c 2046     		mov	r0, r4
 589 001e 0021     		movs	r1, #0
 590 0020 FFF7FEFF 		bl	chSchWakeupS
 591              	.LVL52:
 592              		.loc 1 254 0
 593 0024 FFF7FEFF 		bl	dbg_check_unlock
 594              	.LVL53:
 595              	.LBB38:
 596 0028 0023     		movs	r3, #0
 597              	.LVL54:
 598              	@ 254 "/home/formica/chibios/chibios/os/kernel/src/chthreads.c" 1
 599 002a 83F31188 		msr     BASEPRI, r3
 600              	@ 0 "" 2
 601              	.LVL55:
 602              		.thumb
 603              	.LBE38:
 604              		.loc 1 256 0
 605 002e 2046     		mov	r0, r4
 606 0030 10BD     		pop	{r4, pc}
 607              	.L56:
 608 0032 00BF     		.align	2
 609              	.L55:
 610 0034 2C000000 		.word	.LC2
 611              		.cfi_endproc
 612              	.LFE12:
 613              		.size	chThdResume, .-chThdResume
 614 0038 AFF30080 		.section	.text.chThdTerminate,"ax",%progbits
 614      AFF30080 
 615              		.align	2
 616              		.p2align 4,,15
ARM GAS  /tmp/ccu5vOc6.s 			page 12


 617              		.global	chThdTerminate
 618              		.thumb
 619              		.thumb_func
 620              		.type	chThdTerminate, %function
 621              	chThdTerminate:
 622              	.LFB13:
 623              		.loc 1 270 0
 624              		.cfi_startproc
 625              		@ args = 0, pretend = 0, frame = 0
 626              		@ frame_needed = 0, uses_anonymous_args = 0
 627              	.LVL56:
 628 0000 10B5     		push	{r4, lr}
 629              	.LCFI6:
 630              		.cfi_def_cfa_offset 8
 631              		.cfi_offset 4, -8
 632              		.cfi_offset 14, -4
 633              	.LBB39:
 634              		.loc 1 272 0
 635 0002 2023     		movs	r3, #32
 636              	.LVL57:
 637              	.LBE39:
 638              		.loc 1 270 0
 639 0004 0446     		mov	r4, r0
 640              	.LBB40:
 641              		.loc 1 272 0
 642              	@ 272 "/home/formica/chibios/chibios/os/kernel/src/chthreads.c" 1
 643 0006 83F31188 		msr     BASEPRI, r3
 644              	@ 0 "" 2
 645              	.LVL58:
 646              		.thumb
 647              	.LBE40:
 648 000a FFF7FEFF 		bl	dbg_check_lock
 649              	.LVL59:
 650              		.loc 1 273 0
 651 000e 94F82130 		ldrb	r3, [r4, #33]	@ zero_extendqisi2
 652 0012 43F00400 		orr	r0, r3, #4
 653 0016 84F82100 		strb	r0, [r4, #33]
 654              		.loc 1 274 0
 655 001a FFF7FEFF 		bl	dbg_check_unlock
 656              	.LVL60:
 657              	.LBB41:
 658 001e 0023     		movs	r3, #0
 659              	.LVL61:
 660              	@ 274 "/home/formica/chibios/chibios/os/kernel/src/chthreads.c" 1
 661 0020 83F31188 		msr     BASEPRI, r3
 662              	@ 0 "" 2
 663              	.LVL62:
 664              		.thumb
 665 0024 10BD     		pop	{r4, pc}
 666              	.LBE41:
 667              		.cfi_endproc
 668              	.LFE13:
 669              		.size	chThdTerminate, .-chThdTerminate
 670 0026 00BFAFF3 		.section	.text.chThdSleep,"ax",%progbits
 670      0080AFF3 
 670      0080
 671              		.align	2
ARM GAS  /tmp/ccu5vOc6.s 			page 13


 672              		.p2align 4,,15
 673              		.global	chThdSleep
 674              		.thumb
 675              		.thumb_func
 676              		.type	chThdSleep, %function
 677              	chThdSleep:
 678              	.LFB14:
 679              		.loc 1 289 0
 680              		.cfi_startproc
 681              		@ args = 0, pretend = 0, frame = 0
 682              		@ frame_needed = 0, uses_anonymous_args = 0
 683              	.LVL63:
 684 0000 10B5     		push	{r4, lr}
 685              	.LCFI7:
 686              		.cfi_def_cfa_offset 8
 687              		.cfi_offset 4, -8
 688              		.cfi_offset 14, -4
 689              		.loc 1 291 0
 690 0002 0446     		mov	r4, r0
 691 0004 10B9     		cbnz	r0, .L59
 692              		.loc 1 291 0 is_stmt 0 discriminator 1
 693 0006 0948     		ldr	r0, .L60
 694              	.LVL64:
 695 0008 FFF7FEFF 		bl	chDbgPanic
 696              	.LVL65:
 697              	.L59:
 698              	.LBB42:
 699              		.loc 1 293 0 is_stmt 1
 700 000c 2023     		movs	r3, #32
 701              	.LVL66:
 702              	@ 293 "/home/formica/chibios/chibios/os/kernel/src/chthreads.c" 1
 703 000e 83F31188 		msr     BASEPRI, r3
 704              	@ 0 "" 2
 705              	.LVL67:
 706              		.thumb
 707              	.LBE42:
 708 0012 FFF7FEFF 		bl	dbg_check_lock
 709              	.LVL68:
 710              		.loc 1 294 0
 711 0016 2146     		mov	r1, r4
 712 0018 0620     		movs	r0, #6
 713 001a FFF7FEFF 		bl	chSchGoSleepTimeoutS
 714              	.LVL69:
 715              		.loc 1 295 0
 716 001e FFF7FEFF 		bl	dbg_check_unlock
 717              	.LVL70:
 718              	.LBB43:
 719 0022 0023     		movs	r3, #0
 720              	.LVL71:
 721              	@ 295 "/home/formica/chibios/chibios/os/kernel/src/chthreads.c" 1
 722 0024 83F31188 		msr     BASEPRI, r3
 723              	@ 0 "" 2
 724              	.LVL72:
 725              		.thumb
 726 0028 10BD     		pop	{r4, pc}
 727              	.L61:
 728 002a 00BF     		.align	2
ARM GAS  /tmp/ccu5vOc6.s 			page 14


 729              	.L60:
 730 002c 40000000 		.word	.LC3
 731              	.LBE43:
 732              		.cfi_endproc
 733              	.LFE14:
 734              		.size	chThdSleep, .-chThdSleep
 735              		.section	.text.chThdSleepUntil,"ax",%progbits
 736              		.align	2
 737              		.p2align 4,,15
 738              		.global	chThdSleepUntil
 739              		.thumb
 740              		.thumb_func
 741              		.type	chThdSleepUntil, %function
 742              	chThdSleepUntil:
 743              	.LFB15:
 744              		.loc 1 306 0
 745              		.cfi_startproc
 746              		@ args = 0, pretend = 0, frame = 0
 747              		@ frame_needed = 0, uses_anonymous_args = 0
 748              	.LVL73:
 749 0000 10B5     		push	{r4, lr}
 750              	.LCFI8:
 751              		.cfi_def_cfa_offset 8
 752              		.cfi_offset 4, -8
 753              		.cfi_offset 14, -4
 754              	.LBB44:
 755              		.loc 1 308 0
 756 0002 2023     		movs	r3, #32
 757              	.LVL74:
 758              	.LBE44:
 759              		.loc 1 306 0
 760 0004 0446     		mov	r4, r0
 761              	.LBB45:
 762              		.loc 1 308 0
 763              	@ 308 "/home/formica/chibios/chibios/os/kernel/src/chthreads.c" 1
 764 0006 83F31188 		msr     BASEPRI, r3
 765              	@ 0 "" 2
 766              	.LVL75:
 767              		.thumb
 768              	.LBE45:
 769 000a FFF7FEFF 		bl	dbg_check_lock
 770              	.LVL76:
 771              		.loc 1 309 0
 772 000e 064B     		ldr	r3, .L67
 773 0010 D968     		ldr	r1, [r3, #12]
 774              	.LVL77:
 775 0012 611A     		subs	r1, r4, r1
 776              	.LVL78:
 777 0014 02D0     		beq	.L63
 778              		.loc 1 310 0
 779 0016 0620     		movs	r0, #6
 780 0018 FFF7FEFF 		bl	chSchGoSleepTimeoutS
 781              	.LVL79:
 782              	.L63:
 783              		.loc 1 311 0
 784 001c FFF7FEFF 		bl	dbg_check_unlock
 785              	.LVL80:
ARM GAS  /tmp/ccu5vOc6.s 			page 15


 786              	.LBB46:
 787 0020 0023     		movs	r3, #0
 788              	.LVL81:
 789              	@ 311 "/home/formica/chibios/chibios/os/kernel/src/chthreads.c" 1
 790 0022 83F31188 		msr     BASEPRI, r3
 791              	@ 0 "" 2
 792              	.LVL82:
 793              		.thumb
 794 0026 10BD     		pop	{r4, pc}
 795              	.L68:
 796              		.align	2
 797              	.L67:
 798 0028 00000000 		.word	vtlist
 799              	.LBE46:
 800              		.cfi_endproc
 801              	.LFE15:
 802              		.size	chThdSleepUntil, .-chThdSleepUntil
 803 002c AFF30080 		.section	.text.chThdYield,"ax",%progbits
 804              		.align	2
 805              		.p2align 4,,15
 806              		.global	chThdYield
 807              		.thumb
 808              		.thumb_func
 809              		.type	chThdYield, %function
 810              	chThdYield:
 811              	.LFB16:
 812              		.loc 1 321 0
 813              		.cfi_startproc
 814              		@ args = 0, pretend = 0, frame = 0
 815              		@ frame_needed = 0, uses_anonymous_args = 0
 816 0000 08B5     		push	{r3, lr}
 817              	.LCFI9:
 818              		.cfi_def_cfa_offset 8
 819              		.cfi_offset 3, -8
 820              		.cfi_offset 14, -4
 821              	.LBB47:
 822              		.loc 1 323 0
 823 0002 2023     		movs	r3, #32
 824              	.LVL83:
 825              	@ 323 "/home/formica/chibios/chibios/os/kernel/src/chthreads.c" 1
 826 0004 83F31188 		msr     BASEPRI, r3
 827              	@ 0 "" 2
 828              	.LVL84:
 829              		.thumb
 830              	.LBE47:
 831 0008 FFF7FEFF 		bl	dbg_check_lock
 832              	.LVL85:
 833              		.loc 1 324 0
 834 000c 074B     		ldr	r3, .L71
 835 000e 1A68     		ldr	r2, [r3, #0]
 836 0010 D869     		ldr	r0, [r3, #28]
 837 0012 9168     		ldr	r1, [r2, #8]
 838 0014 8368     		ldr	r3, [r0, #8]
 839 0016 9942     		cmp	r1, r3
 840 0018 01D3     		bcc	.L70
 841              		.loc 1 324 0 is_stmt 0 discriminator 1
 842 001a FFF7FEFF 		bl	chSchDoReschedule
ARM GAS  /tmp/ccu5vOc6.s 			page 16


 843              	.LVL86:
 844              	.L70:
 845              		.loc 1 325 0 is_stmt 1
 846 001e FFF7FEFF 		bl	dbg_check_unlock
 847              	.LVL87:
 848              	.LBB48:
 849 0022 0023     		movs	r3, #0
 850              	.LVL88:
 851              	@ 325 "/home/formica/chibios/chibios/os/kernel/src/chthreads.c" 1
 852 0024 83F31188 		msr     BASEPRI, r3
 853              	@ 0 "" 2
 854              	.LVL89:
 855              		.thumb
 856 0028 08BD     		pop	{r3, pc}
 857              	.L72:
 858 002a 00BF     		.align	2
 859              	.L71:
 860 002c 00000000 		.word	rlist
 861              	.LBE48:
 862              		.cfi_endproc
 863              	.LFE16:
 864              		.size	chThdYield, .-chThdYield
 865              		.section	.text.chThdExitS,"ax",%progbits
 866              		.align	2
 867              		.p2align 4,,15
 868              		.global	chThdExitS
 869              		.thumb
 870              		.thumb_func
 871              		.type	chThdExitS, %function
 872              	chThdExitS:
 873              	.LFB18:
 874              		.loc 1 363 0
 875              		.cfi_startproc
 876              		@ args = 0, pretend = 0, frame = 0
 877              		@ frame_needed = 0, uses_anonymous_args = 0
 878              	.LVL90:
 879 0000 38B5     		push	{r3, r4, r5, lr}
 880              	.LCFI10:
 881              		.cfi_def_cfa_offset 16
 882              		.cfi_offset 3, -16
 883              		.cfi_offset 4, -12
 884              		.cfi_offset 5, -8
 885              		.cfi_offset 14, -4
 886              		.loc 1 364 0
 887 0002 104B     		ldr	r3, .L81
 888 0004 DC69     		ldr	r4, [r3, #28]
 889              	.LVL91:
 890              		.loc 1 371 0
 891 0006 2546     		mov	r5, r4
 892 0008 55F82C1F 		ldr	r1, [r5, #44]!
 893              		.loc 1 366 0
 894 000c A062     		str	r0, [r4, #40]
 895              		.loc 1 371 0
 896 000e A942     		cmp	r1, r5
 897 0010 07D0     		beq	.L78
 898              	.LVL92:
 899              	.L79:
ARM GAS  /tmp/ccu5vOc6.s 			page 17


 900              	.LBB49:
 901              	.LBB50:
 902              		.file 2 "/home/formica/chibios/chibios/os/kernel/include/chinline.h"
 903              		.loc 2 89 0
 904 0012 0A68     		ldr	r2, [r1, #0]
 905              	.LBE50:
 906              	.LBE49:
 907              		.loc 1 372 0
 908 0014 0846     		mov	r0, r1
 909              	.LBB52:
 910              	.LBB51:
 911              		.loc 2 89 0
 912 0016 E262     		str	r2, [r4, #44]
 913              	.LBE51:
 914              	.LBE52:
 915              		.loc 1 372 0
 916 0018 FFF7FEFF 		bl	chSchReadyI
 917              	.LVL93:
 918              		.loc 1 371 0
 919 001c E16A     		ldr	r1, [r4, #44]
 920 001e A942     		cmp	r1, r5
 921 0020 F7D1     		bne	.L79
 922              	.LVL94:
 923              	.L78:
 924              		.loc 1 377 0
 925 0022 94F82100 		ldrb	r0, [r4, #33]	@ zero_extendqisi2
 926 0026 8307     		lsls	r3, r0, #30
 927 0028 04D1     		bne	.L76
 928              		.loc 1 378 0
 929 002a 6369     		ldr	r3, [r4, #20]
 930 002c 2269     		ldr	r2, [r4, #16]
 931 002e 1A61     		str	r2, [r3, #16]
 932 0030 2169     		ldr	r1, [r4, #16]
 933 0032 4B61     		str	r3, [r1, #20]
 934              	.L76:
 935              		.loc 1 380 0
 936 0034 0E20     		movs	r0, #14
 937 0036 FFF7FEFF 		bl	chSchGoSleepS
 938              	.LVL95:
 939              		.loc 1 382 0
 940 003a 0348     		ldr	r0, .L81+4
 941              		.loc 1 383 0
 942 003c BDE83840 		pop	{r3, r4, r5, lr}
 943              		.loc 1 382 0
 944 0040 FFF7FEBF 		b	chDbgPanic
 945              	.LVL96:
 946              	.L82:
 947              		.align	2
 948              	.L81:
 949 0044 00000000 		.word	rlist
 950 0048 50000000 		.word	.LC4
 951              		.cfi_endproc
 952              	.LFE18:
 953              		.size	chThdExitS, .-chThdExitS
 954              		.section	.text.chThdExit,"ax",%progbits
 955              		.align	2
 956              		.p2align 4,,15
ARM GAS  /tmp/ccu5vOc6.s 			page 18


 957              		.global	chThdExit
 958              		.thumb
 959              		.thumb_func
 960              		.type	chThdExit, %function
 961              	chThdExit:
 962              	.LFB17:
 963              		.loc 1 342 0
 964              		.cfi_startproc
 965              		@ args = 0, pretend = 0, frame = 0
 966              		@ frame_needed = 0, uses_anonymous_args = 0
 967              	.LVL97:
 968 0000 10B5     		push	{r4, lr}
 969              	.LCFI11:
 970              		.cfi_def_cfa_offset 8
 971              		.cfi_offset 4, -8
 972              		.cfi_offset 14, -4
 973              	.LBB53:
 974              		.loc 1 344 0
 975 0002 2023     		movs	r3, #32
 976              	.LVL98:
 977              	.LBE53:
 978              		.loc 1 342 0
 979 0004 0446     		mov	r4, r0
 980              	.LBB54:
 981              		.loc 1 344 0
 982              	@ 344 "/home/formica/chibios/chibios/os/kernel/src/chthreads.c" 1
 983 0006 83F31188 		msr     BASEPRI, r3
 984              	@ 0 "" 2
 985              	.LVL99:
 986              		.thumb
 987              	.LBE54:
 988 000a FFF7FEFF 		bl	dbg_check_lock
 989              	.LVL100:
 990              		.loc 1 345 0
 991 000e 2046     		mov	r0, r4
 992              		.loc 1 347 0
 993 0010 BDE81040 		pop	{r4, lr}
 994              		.loc 1 345 0
 995 0014 FFF7FEBF 		b	chThdExitS
 996              	.LVL101:
 997              		.cfi_endproc
 998              	.LFE17:
 999              		.size	chThdExit, .-chThdExit
 1000 0018 AFF30080 		.section	.text.chThdWait,"ax",%progbits
 1000      AFF30080 
 1001              		.align	2
 1002              		.p2align 4,,15
 1003              		.global	chThdWait
 1004              		.thumb
 1005              		.thumb_func
 1006              		.type	chThdWait, %function
 1007              	chThdWait:
 1008              	.LFB19:
 1009              		.loc 1 417 0
 1010              		.cfi_startproc
 1011              		@ args = 0, pretend = 0, frame = 0
 1012              		@ frame_needed = 0, uses_anonymous_args = 0
ARM GAS  /tmp/ccu5vOc6.s 			page 19


 1013              	.LVL102:
 1014 0000 38B5     		push	{r3, r4, r5, lr}
 1015              	.LCFI12:
 1016              		.cfi_def_cfa_offset 16
 1017              		.cfi_offset 3, -16
 1018              		.cfi_offset 4, -12
 1019              		.cfi_offset 5, -8
 1020              		.cfi_offset 14, -4
 1021              		.loc 1 420 0
 1022 0002 0446     		mov	r4, r0
 1023 0004 48B3     		cbz	r0, .L92
 1024              	.LVL103:
 1025              	.L85:
 1026              	.LBB55:
 1027              		.loc 1 422 0
 1028 0006 2023     		movs	r3, #32
 1029              	.LVL104:
 1030              	@ 422 "/home/formica/chibios/chibios/os/kernel/src/chthreads.c" 1
 1031 0008 83F31188 		msr     BASEPRI, r3
 1032              	@ 0 "" 2
 1033              	.LVL105:
 1034              		.thumb
 1035              	.LBE55:
 1036              		.loc 1 423 0
 1037 000c 154D     		ldr	r5, .L95
 1038              		.loc 1 422 0
 1039 000e FFF7FEFF 		bl	dbg_check_lock
 1040              	.LVL106:
 1041              		.loc 1 423 0
 1042 0012 EB69     		ldr	r3, [r5, #28]
 1043 0014 A342     		cmp	r3, r4
 1044 0016 1CD0     		beq	.L93
 1045              	.L86:
 1046              		.loc 1 425 0
 1047 0018 94F82200 		ldrb	r0, [r4, #34]	@ zero_extendqisi2
 1048 001c A8B1     		cbz	r0, .L94
 1049              	.L87:
 1050              		.loc 1 427 0
 1051 001e 94F82010 		ldrb	r1, [r4, #32]	@ zero_extendqisi2
 1052 0022 0E29     		cmp	r1, #14
 1053 0024 06D0     		beq	.L88
 1054              		.loc 1 428 0
 1055 0026 ED69     		ldr	r5, [r5, #28]
 1056              	.LVL107:
 1057              	.LBB56:
 1058              	.LBB57:
 1059              		.loc 2 82 0
 1060 0028 E26A     		ldr	r2, [r4, #44]
 1061              	.LBE57:
 1062              	.LBE56:
 1063              		.loc 1 429 0
 1064 002a 0720     		movs	r0, #7
 1065              	.LBB59:
 1066              	.LBB58:
 1067              		.loc 2 82 0
 1068 002c 2A60     		str	r2, [r5, #0]
 1069              		.loc 2 83 0
ARM GAS  /tmp/ccu5vOc6.s 			page 20


 1070 002e E562     		str	r5, [r4, #44]
 1071              	.LBE58:
 1072              	.LBE59:
 1073              		.loc 1 429 0
 1074 0030 FFF7FEFF 		bl	chSchGoSleepS
 1075              	.LVL108:
 1076              	.L88:
 1077              		.loc 1 431 0
 1078 0034 A56A     		ldr	r5, [r4, #40]
 1079              	.LVL109:
 1080              		.loc 1 432 0
 1081 0036 FFF7FEFF 		bl	dbg_check_unlock
 1082              	.LVL110:
 1083              	.LBB60:
 1084 003a 0023     		movs	r3, #0
 1085              	.LVL111:
 1086              	@ 432 "/home/formica/chibios/chibios/os/kernel/src/chthreads.c" 1
 1087 003c 83F31188 		msr     BASEPRI, r3
 1088              	@ 0 "" 2
 1089              	.LVL112:
 1090              		.thumb
 1091              	.LBE60:
 1092              		.loc 1 434 0
 1093 0040 2046     		mov	r0, r4
 1094 0042 FFF7FEFF 		bl	chThdRelease
 1095              	.LVL113:
 1096              		.loc 1 437 0
 1097 0046 2846     		mov	r0, r5
 1098 0048 38BD     		pop	{r3, r4, r5, pc}
 1099              	.LVL114:
 1100              	.L94:
 1101              		.loc 1 425 0 discriminator 1
 1102 004a 0748     		ldr	r0, .L95+4
 1103 004c FFF7FEFF 		bl	chDbgPanic
 1104              	.LVL115:
 1105 0050 E5E7     		b	.L87
 1106              	.L93:
 1107              		.loc 1 423 0 discriminator 1
 1108 0052 0648     		ldr	r0, .L95+8
 1109 0054 FFF7FEFF 		bl	chDbgPanic
 1110              	.LVL116:
 1111 0058 DEE7     		b	.L86
 1112              	.LVL117:
 1113              	.L92:
 1114              		.loc 1 420 0 discriminator 1
 1115 005a 0548     		ldr	r0, .L95+12
 1116              	.LVL118:
 1117 005c FFF7FEFF 		bl	chDbgPanic
 1118              	.LVL119:
 1119 0060 D1E7     		b	.L85
 1120              	.L96:
 1121 0062 00BF     		.align	2
 1122              	.L95:
 1123 0064 00000000 		.word	rlist
 1124 0068 84000000 		.word	.LC7
 1125 006c 74000000 		.word	.LC6
 1126 0070 64000000 		.word	.LC5
ARM GAS  /tmp/ccu5vOc6.s 			page 21


 1127              		.cfi_endproc
 1128              	.LFE19:
 1129              		.size	chThdWait, .-chThdWait
 1130 0074 AFF30080 		.section	.rodata.str1.4,"aMS",%progbits,1
 1130      AFF30080 
 1130      AFF30080 
 1131              		.align	2
 1132              	.LC0:
 1133 0000 22636854 		.ascii	"\"chThdCreateI\"()\000"
 1133      68644372 
 1133      65617465 
 1133      49222829 
 1133      00
 1134 0011 000000   		.space	3
 1135              	.LC1:
 1136 0014 22636854 		.ascii	"\"chThdSetPriority\"()\000"
 1136      68645365 
 1136      74507269 
 1136      6F726974 
 1136      79222829 
 1137 0029 000000   		.space	3
 1138              	.LC2:
 1139 002c 63685468 		.ascii	"chThdResume(), #1\000"
 1139      64526573 
 1139      756D6528 
 1139      292C2023 
 1139      3100
 1140 003e 0000     		.space	2
 1141              	.LC3:
 1142 0040 22636854 		.ascii	"\"chThdSleep\"()\000"
 1142      6864536C 
 1142      65657022 
 1142      282900
 1143 004f 00       		.space	1
 1144              	.LC4:
 1145 0050 63685468 		.ascii	"chThdExitS(), #1\000"
 1145      64457869 
 1145      74532829 
 1145      2C202331 
 1145      00
 1146 0061 000000   		.space	3
 1147              	.LC5:
 1148 0064 22636854 		.ascii	"\"chThdWait\"()\000"
 1148      68645761 
 1148      69742228 
 1148      2900
 1149 0072 0000     		.space	2
 1150              	.LC6:
 1151 0074 63685468 		.ascii	"chThdWait(), #1\000"
 1151      64576169 
 1151      7428292C 
 1151      20233100 
 1152              	.LC7:
 1153 0084 63685468 		.ascii	"chThdWait(), #2\000"
 1153      64576169 
 1153      7428292C 
 1153      20233200 
ARM GAS  /tmp/ccu5vOc6.s 			page 22


 1154              		.text
 1155              	.Letext0:
 1156              		.file 3 "/home/formica/toolchains/gcc-arm-none-eabi-4_7-2012q4/bin/../lib/gcc/arm-none-eabi/4.7.3/
 1157              		.file 4 "/home/formica/toolchains/gcc-arm-none-eabi-4_7-2012q4/bin/../lib/gcc/arm-none-eabi/4.7.3/
 1158              		.file 5 "/home/formica/chibios/chibios/os/ports/GCC/ARMCMx/chtypes.h"
 1159              		.file 6 "/home/formica/chibios/chibios/os/kernel/include/chlists.h"
 1160              		.file 7 "/home/formica/chibios/chibios/os/kernel/include/chthreads.h"
 1161              		.file 8 "/home/formica/chibios/chibios/os/ports/GCC/ARMCMx/chcore_v7m.h"
 1162              		.file 9 "/home/formica/chibios/chibios/os/kernel/include/chvt.h"
 1163              		.file 10 "/home/formica/chibios/chibios/os/kernel/include/chschd.h"
 1164              		.file 11 "/home/formica/chibios/chibios/os/kernel/include/chmtx.h"
 1165              		.file 12 "/home/formica/chibios/chibios/os/kernel/include/chdebug.h"
 1166              		.file 13 "/home/formica/chibios/chibios/os/kernel/include/chdynamic.h"