ARM GAS  /tmp/ccKJNRP3.s 			page 1


   1              		.syntax unified
   2              		.cpu cortex-m3
   3              		.fpu softvfp
   4              		.eabi_attribute 20, 1
   5              		.eabi_attribute 21, 1
   6              		.eabi_attribute 23, 3
   7              		.eabi_attribute 24, 1
   8              		.eabi_attribute 25, 1
   9              		.eabi_attribute 26, 1
  10              		.eabi_attribute 30, 2
  11              		.eabi_attribute 34, 1
  12              		.eabi_attribute 18, 4
  13              		.thumb
  14              		.file	"control.c"
  15              		.text
  16              	.Ltext0:
  17              		.cfi_sections	.debug_frame
  18              		.global	__aeabi_fsub
  19              		.global	__aeabi_f2d
  20              		.global	__aeabi_dmul
  21              		.global	__aeabi_dadd
  22              		.global	__aeabi_d2f
  23              		.global	__aeabi_f2iz
  24              		.section	.text.pid_controller,"ax",%progbits
  25              		.align	2
  26              		.p2align 4,,15
  27              		.global	pid_controller
  28              		.thumb
  29              		.thumb_func
  30              		.type	pid_controller, %function
  31              	pid_controller:
  32              	.LFB7:
  33              		.file 1 "control.c"
  34              		.loc 1 66 0
  35              		.cfi_startproc
  36              		@ args = 0, pretend = 0, frame = 0
  37              		@ frame_needed = 0, uses_anonymous_args = 0
  38 0000 2DE9F843 		push	{r3, r4, r5, r6, r7, r8, r9, lr}
  39              	.LCFI0:
  40              		.cfi_def_cfa_offset 32
  41              		.cfi_offset 3, -32
  42              		.cfi_offset 4, -28
  43              		.cfi_offset 5, -24
  44              		.cfi_offset 6, -20
  45              		.cfi_offset 7, -16
  46              		.cfi_offset 8, -12
  47              		.cfi_offset 9, -8
  48              		.cfi_offset 14, -4
  49              		.loc 1 78 0
  50 0004 40F20001 		movw	r1, #:lower16:Roll
  51              		.loc 1 70 0
  52 0008 40F20005 		movw	r5, #:lower16:.LANCHOR0
  53              		.loc 1 71 0
  54 000c 40F20004 		movw	r4, #:lower16:.LANCHOR1
  55              		.loc 1 72 0
  56 0010 40F20003 		movw	r3, #:lower16:.LANCHOR2
  57              		.loc 1 70 0
ARM GAS  /tmp/ccKJNRP3.s 			page 2


  58 0014 0A22     		movs	r2, #10
  59              		.loc 1 72 0
  60 0016 C0F20003 		movt	r3, #:upper16:.LANCHOR2
  61              		.loc 1 70 0
  62 001a C0F20005 		movt	r5, #:upper16:.LANCHOR0
  63              		.loc 1 71 0
  64 001e C0F20004 		movt	r4, #:upper16:.LANCHOR1
  65              		.loc 1 78 0
  66 0022 C0F20001 		movt	r1, #:upper16:Roll
  67              		.loc 1 70 0
  68 0026 2A70     		strb	r2, [r5, #0]
  69              		.loc 1 71 0
  70 0028 2270     		strb	r2, [r4, #0]
  71              		.loc 1 72 0
  72 002a 1A70     		strb	r2, [r3, #0]
  73              		.loc 1 78 0
  74 002c 0968     		ldr	r1, [r1, #0]	@ float
  75 002e 0020     		movs	r0, #0
  76 0030 FFF7FEFF 		bl	__aeabi_fsub
  77              	.LVL0:
  78 0034 0746     		mov	r7, r0
  79              	.LVL1:
  80              		.loc 1 79 0
  81 0036 40F20000 		movw	r0, #:lower16:Pitch
  82              	.LVL2:
  83 003a C0F20000 		movt	r0, #:upper16:Pitch
  84 003e 0168     		ldr	r1, [r0, #0]	@ float
  85 0040 0020     		movs	r0, #0
  86 0042 FFF7FEFF 		bl	__aeabi_fsub
  87              	.LVL3:
  88              		.loc 1 82 0
  89 0046 40F20009 		movw	r9, #:lower16:.LANCHOR3
  90 004a C0F20009 		movt	r9, #:upper16:.LANCHOR3
  91              		.loc 1 79 0
  92 004e 0646     		mov	r6, r0
  93              	.LVL4:
  94              		.loc 1 82 0
  95 0050 D9F80000 		ldr	r0, [r9, #0]	@ float
  96              	.LVL5:
  97 0054 FFF7FEFF 		bl	__aeabi_f2d
  98              	.LVL6:
  99 0058 0446     		mov	r4, r0
 100 005a 3846     		mov	r0, r7
 101 005c 0D46     		mov	r5, r1
 102 005e FFF7FEFF 		bl	__aeabi_f2d
 103              	.LVL7:
 104 0062 23A3     		adr	r3, .L2
 105 0064 D3E90023 		ldrd	r2, [r3]
 106 0068 FFF7FEFF 		bl	__aeabi_dmul
 107              	.LVL8:
 108 006c 0246     		mov	r2, r0
 109 006e 0B46     		mov	r3, r1
 110 0070 2046     		mov	r0, r4
 111 0072 2946     		mov	r1, r5
 112 0074 FFF7FEFF 		bl	__aeabi_dadd
 113              	.LVL9:
 114 0078 FFF7FEFF 		bl	__aeabi_d2f
ARM GAS  /tmp/ccKJNRP3.s 			page 3


 115              	.LVL10:
 116              		.loc 1 83 0
 117 007c 40F20008 		movw	r8, #:lower16:.LANCHOR4
 118 0080 C0F20008 		movt	r8, #:upper16:.LANCHOR4
 119              		.loc 1 82 0
 120 0084 C9F80000 		str	r0, [r9, #0]	@ float
 121              		.loc 1 83 0
 122 0088 D8F80000 		ldr	r0, [r8, #0]	@ float
 123 008c FFF7FEFF 		bl	__aeabi_f2d
 124              	.LVL11:
 125 0090 0446     		mov	r4, r0
 126 0092 3046     		mov	r0, r6
 127 0094 0D46     		mov	r5, r1
 128 0096 FFF7FEFF 		bl	__aeabi_f2d
 129              	.LVL12:
 130 009a 15A3     		adr	r3, .L2
 131 009c D3E90023 		ldrd	r2, [r3]
 132 00a0 FFF7FEFF 		bl	__aeabi_dmul
 133              	.LVL13:
 134 00a4 0246     		mov	r2, r0
 135 00a6 0B46     		mov	r3, r1
 136 00a8 2046     		mov	r0, r4
 137 00aa 2946     		mov	r1, r5
 138 00ac FFF7FEFF 		bl	__aeabi_dadd
 139              	.LVL14:
 140 00b0 FFF7FEFF 		bl	__aeabi_d2f
 141              	.LVL15:
 142 00b4 C8F80000 		str	r0, [r8, #0]	@ float
 143              	.LVL16:
 144              		.loc 1 91 0
 145 00b8 3846     		mov	r0, r7
 146 00ba FFF7FEFF 		bl	__aeabi_f2iz
 147              	.LVL17:
 148 00be 40F20001 		movw	r1, #:lower16:.LANCHOR5
 149 00c2 C0F20001 		movt	r1, #:upper16:.LANCHOR5
 150 00c6 0870     		strb	r0, [r1, #0]
 151              		.loc 1 92 0
 152 00c8 3046     		mov	r0, r6
 153 00ca FFF7FEFF 		bl	__aeabi_f2iz
 154              	.LVL18:
 155 00ce 40F20001 		movw	r1, #:lower16:.LANCHOR6
 156              		.loc 1 95 0
 157 00d2 40F20002 		movw	r2, #:lower16:.LANCHOR7
 158              		.loc 1 96 0
 159 00d6 40F20003 		movw	r3, #:lower16:.LANCHOR8
 160              		.loc 1 92 0
 161 00da C0F20001 		movt	r1, #:upper16:.LANCHOR6
 162              		.loc 1 95 0
 163 00de C0F20002 		movt	r2, #:upper16:.LANCHOR7
 164              		.loc 1 96 0
 165 00e2 C0F20003 		movt	r3, #:upper16:.LANCHOR8
 166              		.loc 1 92 0
 167 00e6 0870     		strb	r0, [r1, #0]
 168              		.loc 1 95 0
 169 00e8 1760     		str	r7, [r2, #0]	@ float
 170              		.loc 1 96 0
 171 00ea 1E60     		str	r6, [r3, #0]	@ float
ARM GAS  /tmp/ccKJNRP3.s 			page 4


 172 00ec BDE8F883 		pop	{r3, r4, r5, r6, r7, r8, r9, pc}
 173              	.L3:
 174              		.align	3
 175              	.L2:
 176 00f0 7B14AE47 		.word	1202590843
 177 00f4 E17A843F 		.word	1065646817
 178              		.cfi_endproc
 179              	.LFE7:
 180              		.size	pid_controller, .-pid_controller
 181              		.global	KD
 182              		.global	KI
 183              		.global	KP
 184              		.global	last_time
 185              		.global	yaw_I
 186              		.global	pitch_I
 187              		.global	roll_I
 188              		.global	yaw_prev_error
 189              		.global	pitch_prev_error
 190              		.global	roll_prev_error
 191              		.global	yaw_controller_output
 192              		.global	pitch_controller_output
 193              		.global	roll_controller_output
 194 00f8 AFF30080 		.section	.bss.last_time,"aw",%nobits
 194      AFF30080 
 195              		.align	2
 196              		.type	last_time, %object
 197              		.size	last_time, 4
 198              	last_time:
 199 0000 00000000 		.space	4
 200              		.section	.bss.yaw_I,"aw",%nobits
 201              		.align	2
 202              		.type	yaw_I, %object
 203              		.size	yaw_I, 4
 204              	yaw_I:
 205 0000 00000000 		.space	4
 206              		.section	.bss.yaw_controller_output,"aw",%nobits
 207              		.type	yaw_controller_output, %object
 208              		.size	yaw_controller_output, 1
 209              	yaw_controller_output:
 210 0000 00       		.space	1
 211              		.section	.bss.KD,"aw",%nobits
 212              		.set	.LANCHOR2,. + 0
 213              		.type	KD, %object
 214              		.size	KD, 1
 215              	KD:
 216 0000 00       		.space	1
 217              		.section	.bss.yaw_prev_error,"aw",%nobits
 218              		.align	2
 219              		.type	yaw_prev_error, %object
 220              		.size	yaw_prev_error, 4
 221              	yaw_prev_error:
 222 0000 00000000 		.space	4
 223              		.section	.bss.pitch_prev_error,"aw",%nobits
 224              		.align	2
 225              		.set	.LANCHOR8,. + 0
 226              		.type	pitch_prev_error, %object
 227              		.size	pitch_prev_error, 4
ARM GAS  /tmp/ccKJNRP3.s 			page 5


 228              	pitch_prev_error:
 229 0000 00000000 		.space	4
 230              		.section	.bss.KI,"aw",%nobits
 231              		.set	.LANCHOR1,. + 0
 232              		.type	KI, %object
 233              		.size	KI, 1
 234              	KI:
 235 0000 00       		.space	1
 236              		.section	.bss.roll_I,"aw",%nobits
 237              		.align	2
 238              		.set	.LANCHOR3,. + 0
 239              		.type	roll_I, %object
 240              		.size	roll_I, 4
 241              	roll_I:
 242 0000 00000000 		.space	4
 243              		.section	.bss.KP,"aw",%nobits
 244              		.set	.LANCHOR0,. + 0
 245              		.type	KP, %object
 246              		.size	KP, 1
 247              	KP:
 248 0000 00       		.space	1
 249              		.section	.bss.roll_controller_output,"aw",%nobits
 250              		.set	.LANCHOR5,. + 0
 251              		.type	roll_controller_output, %object
 252              		.size	roll_controller_output, 1
 253              	roll_controller_output:
 254 0000 00       		.space	1
 255              		.section	.bss.roll_prev_error,"aw",%nobits
 256              		.align	2
 257              		.set	.LANCHOR7,. + 0
 258              		.type	roll_prev_error, %object
 259              		.size	roll_prev_error, 4
 260              	roll_prev_error:
 261 0000 00000000 		.space	4
 262              		.section	.bss.pitch_controller_output,"aw",%nobits
 263              		.set	.LANCHOR6,. + 0
 264              		.type	pitch_controller_output, %object
 265              		.size	pitch_controller_output, 1
 266              	pitch_controller_output:
 267 0000 00       		.space	1
 268              		.section	.bss.pitch_I,"aw",%nobits
 269              		.align	2
 270              		.set	.LANCHOR4,. + 0
 271              		.type	pitch_I, %object
 272              		.size	pitch_I, 4
 273              	pitch_I:
 274 0000 00000000 		.space	4
 275              		.text
 276              	.Letext0:
 277              		.file 2 "/home/formica/toolchains/gcc-arm-none-eabi-4_7-2012q4/bin/../lib/gcc/arm-none-eabi/4.7.3/