ARM GAS  /tmp/ccj6GBLJ.s 			page 1


   1              		.syntax unified
   2              		.cpu cortex-m3
   3              		.fpu softvfp
   4              		.eabi_attribute 20, 1
   5              		.eabi_attribute 21, 1
   6              		.eabi_attribute 23, 3
   7              		.eabi_attribute 24, 1
   8              		.eabi_attribute 25, 1
   9              		.eabi_attribute 26, 1
  10              		.eabi_attribute 30, 2
  11              		.eabi_attribute 34, 1
  12              		.eabi_attribute 18, 4
  13              		.thumb
  14              		.file	"hal.c"
  15              		.text
  16              	.Ltext0:
  17              		.cfi_sections	.debug_frame
  18              		.section	.text.halInit,"ax",%progbits
  19              		.align	2
  20              		.p2align 4,,15
  21              		.global	halInit
  22              		.thumb
  23              		.thumb_func
  24              		.type	halInit, %function
  25              	halInit:
  26              	.LFB62:
  27              		.file 1 "/home/formica/chibios/chibios/os/hal/src/hal.c"
  28              		.loc 1 68 0
  29              		.cfi_startproc
  30              		@ args = 0, pretend = 0, frame = 0
  31              		@ frame_needed = 0, uses_anonymous_args = 0
  32 0000 08B5     		push	{r3, lr}
  33              	.LCFI0:
  34              		.cfi_def_cfa_offset 8
  35              		.cfi_offset 3, -8
  36              		.cfi_offset 14, -4
  37              		.loc 1 70 0
  38 0002 FFF7FEFF 		bl	hal_lld_init
  39              	.LVL0:
  40              		.loc 1 73 0
  41 0006 FFF7FEFF 		bl	tmInit
  42              	.LVL1:
  43              		.loc 1 76 0
  44 000a 40F20000 		movw	r0, #:lower16:pal_default_config
  45 000e C0F20000 		movt	r0, #:upper16:pal_default_config
  46 0012 FFF7FEFF 		bl	_pal_lld_init
  47              	.LVL2:
  48              		.loc 1 91 0
  49 0016 FFF7FEFF 		bl	i2cInit
  50              	.LVL3:
  51              		.loc 1 94 0
  52 001a FFF7FEFF 		bl	icuInit
  53              	.LVL4:
  54              		.loc 1 109 0
  55 001e FFF7FEFF 		bl	spiInit
  56              	.LVL5:
  57              		.loc 1 115 0
ARM GAS  /tmp/ccj6GBLJ.s 			page 2


  58 0022 FFF7FEFF 		bl	usbInit
  59              	.LVL6:
  60              		.loc 1 121 0
  61 0026 FFF7FEFF 		bl	sduInit
  62              	.LVL7:
  63              		.loc 1 128 0
  64 002a BDE80840 		pop	{r3, lr}
  65              		.loc 1 127 0
  66 002e FFF7FEBF 		b	boardInit
  67              	.LVL8:
  68              		.cfi_endproc
  69              	.LFE62:
  70              		.size	halInit, .-halInit
  71 0032 00BFAFF3 		.section	.text.halIsCounterWithin,"ax",%progbits
  71      0080AFF3 
  71      0080AFF3 
  71      0080
  72              		.align	2
  73              		.p2align 4,,15
  74              		.global	halIsCounterWithin
  75              		.thumb
  76              		.thumb_func
  77              		.type	halIsCounterWithin, %function
  78              	halIsCounterWithin:
  79              	.LFB63:
  80              		.loc 1 174 0
  81              		.cfi_startproc
  82              		@ args = 0, pretend = 0, frame = 0
  83              		@ frame_needed = 0, uses_anonymous_args = 0
  84              		@ link register save eliminated.
  85              	.LVL9:
  86              		.loc 1 175 0
  87 0000 4FF48053 		mov	r3, #4096
  88 0004 CEF20003 		movt	r3, 57344
  89              		.loc 1 177 0
  90 0008 8142     		cmp	r1, r0
  91              		.loc 1 175 0
  92 000a 5A68     		ldr	r2, [r3, #4]
  93              	.LVL10:
  94              		.loc 1 177 0
  95 000c 05D9     		bls	.L3
  96              		.loc 1 177 0 is_stmt 0 discriminator 1
  97 000e 8242     		cmp	r2, r0
  98 0010 01D3     		bcc	.L7
  99              		.loc 1 177 0 discriminator 3
 100 0012 8A42     		cmp	r2, r1
 101 0014 03D3     		bcc	.L5
 102              	.L7:
 103              		.loc 1 177 0
 104 0016 0020     		movs	r0, #0
 105              	.LVL11:
 106              		.loc 1 179 0 is_stmt 1
 107 0018 7047     		bx	lr
 108              	.LVL12:
 109              	.L3:
 110              		.loc 1 177 0 discriminator 2
 111 001a 8242     		cmp	r2, r0
ARM GAS  /tmp/ccj6GBLJ.s 			page 3


 112 001c 01D3     		bcc	.L9
 113              	.L5:
 114              		.loc 1 177 0 is_stmt 0
 115 001e 0120     		movs	r0, #1
 116              	.LVL13:
 117 0020 7047     		bx	lr
 118              	.LVL14:
 119              	.L9:
 120              		.loc 1 178 0 is_stmt 1
 121 0022 8A42     		cmp	r2, r1
 122 0024 2CBF     		ite	cs
 123 0026 0020     		movcs	r0, #0
 124              	.LVL15:
 125 0028 0120     		movcc	r0, #1
 126 002a 7047     		bx	lr
 127              		.cfi_endproc
 128              	.LFE63:
 129              		.size	halIsCounterWithin, .-halIsCounterWithin
 130 002c AFF30080 		.section	.text.halPolledDelay,"ax",%progbits
 131              		.align	2
 132              		.p2align 4,,15
 133              		.global	halPolledDelay
 134              		.thumb
 135              		.thumb_func
 136              		.type	halPolledDelay, %function
 137              	halPolledDelay:
 138              	.LFB64:
 139              		.loc 1 193 0
 140              		.cfi_startproc
 141              		@ args = 0, pretend = 0, frame = 0
 142              		@ frame_needed = 0, uses_anonymous_args = 0
 143              		@ link register save eliminated.
 144              	.LVL16:
 145              		.loc 1 194 0
 146 0000 4FF48051 		mov	r1, #4096
 147 0004 CEF20001 		movt	r1, 57344
 148 0008 4A68     		ldr	r2, [r1, #4]
 149              	.LVL17:
 150              		.loc 1 195 0
 151 000a 8018     		adds	r0, r0, r2
 152              	.LVL18:
 153              	.L16:
 154              	.LBB4:
 155              	.LBB5:
 156              		.loc 1 177 0 discriminator 1
 157 000c 8242     		cmp	r2, r0
 158              		.loc 1 175 0 discriminator 1
 159 000e 4B68     		ldr	r3, [r1, #4]
 160              	.LVL19:
 161              		.loc 1 177 0 discriminator 1
 162 0010 02D2     		bcs	.L11
 163              		.loc 1 177 0 is_stmt 0
 164 0012 9A42     		cmp	r2, r3
 165 0014 05D9     		bls	.L17
 166 0016 7047     		bx	lr
 167              	.L11:
 168 0018 9A42     		cmp	r2, r3
ARM GAS  /tmp/ccj6GBLJ.s 			page 4


 169 001a F7D9     		bls	.L16
 170              		.loc 1 178 0 is_stmt 1
 171 001c 9842     		cmp	r0, r3
 172 001e F5D8     		bhi	.L16
 173 0020 7047     		bx	lr
 174              	.L17:
 175              		.loc 1 177 0
 176 0022 9842     		cmp	r0, r3
 177 0024 F2D8     		bhi	.L16
 178 0026 7047     		bx	lr
 179              	.LBE5:
 180              	.LBE4:
 181              		.cfi_endproc
 182              	.LFE64:
 183              		.size	halPolledDelay, .-halPolledDelay
 184 0028 AFF30080 		.text
 184      AFF30080 
 185              	.Letext0:
 186              		.file 2 "/home/formica/toolchains/gcc-arm-none-eabi-4_7-2012q4/bin/../lib/gcc/arm-none-eabi/4.7.3/
 187              		.file 3 "/home/formica/chibios/chibios/os/ports/GCC/ARMCMx/chtypes.h"
 188              		.file 4 "/home/formica/chibios/chibios/os/ports/common/ARMCMx/nvic.h"
 189              		.file 5 "/home/formica/chibios/chibios/os/hal/platforms/STM32F1xx/hal_lld.h"
 190              		.file 6 "/home/formica/chibios/chibios/os/hal/platforms/STM32/GPIOv1/pal_lld.h"
 191              		.file 7 "/home/formica/chibios/chibios/os/ports/common/ARMCMx/CMSIS/include/core_cm3.h"
 192              		.file 8 "/home/formica/chibios/chibios/os/hal/include/tm.h"
 193              		.file 9 "/home/formica/chibios/chibios/os/hal/include/i2c.h"
 194              		.file 10 "/home/formica/chibios/chibios/os/hal/include/icu.h"
 195              		.file 11 "/home/formica/chibios/chibios/os/hal/include/spi.h"
 196              		.file 12 "/home/formica/chibios/chibios/os/hal/include/usb.h"
 197              		.file 13 "/home/formica/chibios/chibios/os/hal/include/serial_usb.h"
 198              		.file 14 "/home/formica/chibios/chibios/boards/OLIMEX_STM32_P103/board.h"