ARM GAS  /tmp/ccx5RMa5.s 			page 1


   1              		.syntax unified
   2              		.cpu cortex-m3
   3              		.fpu softvfp
   4              		.eabi_attribute 20, 1
   5              		.eabi_attribute 21, 1
   6              		.eabi_attribute 23, 3
   7              		.eabi_attribute 24, 1
   8              		.eabi_attribute 25, 1
   9              		.eabi_attribute 26, 1
  10              		.eabi_attribute 30, 2
  11              		.eabi_attribute 34, 1
  12              		.eabi_attribute 18, 4
  13              		.thumb
  14              		.file	"i2c.c"
  15              		.text
  16              	.Ltext0:
  17              		.cfi_sections	.debug_frame
  18              		.section	.text.i2cInit,"ax",%progbits
  19              		.align	2
  20              		.p2align 4,,15
  21              		.global	i2cInit
  22              		.thumb
  23              		.thumb_func
  24              		.type	i2cInit, %function
  25              	i2cInit:
  26              	.LFB62:
  27              		.file 1 "/home/formica/chibios/chibios/os/hal/src/i2c.c"
  28              		.loc 1 71 0
  29              		.cfi_startproc
  30              		@ args = 0, pretend = 0, frame = 0
  31              		@ frame_needed = 0, uses_anonymous_args = 0
  32              		@ link register save eliminated.
  33              		.loc 1 73 0
  34              		.loc 1 72 0
  35 0000 FFF7FEBF 		b	i2c_lld_init
  36              	.LVL0:
  37              		.cfi_endproc
  38              	.LFE62:
  39              		.size	i2cInit, .-i2cInit
  40 0004 AFF30080 		.section	.text.i2cObjectInit,"ax",%progbits
  40      AFF30080 
  40      AFF30080 
  41              		.align	2
  42              		.p2align 4,,15
  43              		.global	i2cObjectInit
  44              		.thumb
  45              		.thumb_func
  46              		.type	i2cObjectInit, %function
  47              	i2cObjectInit:
  48              	.LFB63:
  49              		.loc 1 82 0
  50              		.cfi_startproc
  51              		@ args = 0, pretend = 0, frame = 0
  52              		@ frame_needed = 0, uses_anonymous_args = 0
  53              		@ link register save eliminated.
  54              	.LVL1:
  55              		.loc 1 84 0
ARM GAS  /tmp/ccx5RMa5.s 			page 2


  56 0000 0123     		movs	r3, #1
  57              		.loc 1 85 0
  58 0002 0021     		movs	r1, #0
  59              		.loc 1 84 0
  60 0004 0370     		strb	r3, [r0, #0]
  61              		.loc 1 85 0
  62 0006 4160     		str	r1, [r0, #4]
  63              		.loc 1 89 0
  64 0008 0C30     		adds	r0, r0, #12
  65              	.LVL2:
  66              		.loc 1 98 0
  67              		.loc 1 89 0
  68 000a FFF7FEBF 		b	chMtxInit
  69              	.LVL3:
  70              		.cfi_endproc
  71              	.LFE63:
  72              		.size	i2cObjectInit, .-i2cObjectInit
  73 000e 00BF     		.section	.text.i2cStart,"ax",%progbits
  74              		.align	2
  75              		.p2align 4,,15
  76              		.global	i2cStart
  77              		.thumb
  78              		.thumb_func
  79              		.type	i2cStart, %function
  80              	i2cStart:
  81              	.LFB64:
  82              		.loc 1 108 0
  83              		.cfi_startproc
  84              		@ args = 0, pretend = 0, frame = 0
  85              		@ frame_needed = 0, uses_anonymous_args = 0
  86              	.LVL4:
  87 0000 38B5     		push	{r3, r4, r5, lr}
  88              	.LCFI0:
  89              		.cfi_def_cfa_offset 16
  90              		.cfi_offset 3, -16
  91              		.cfi_offset 4, -12
  92              		.cfi_offset 5, -8
  93              		.cfi_offset 14, -4
  94              		.loc 1 110 0
  95 0002 0446     		mov	r4, r0
  96              		.loc 1 108 0
  97 0004 0D46     		mov	r5, r1
  98              		.loc 1 110 0
  99 0006 D0B1     		cbz	r0, .L4
 100              		.loc 1 110 0 is_stmt 0 discriminator 2
 101 0008 C9B1     		cbz	r1, .L4
 102              	.LVL5:
 103              	.L5:
 104              		.loc 1 111 0 is_stmt 1
 105 000a 2378     		ldrb	r3, [r4, #0]	@ zero_extendqisi2
 106 000c 5A1E     		subs	r2, r3, #1
 107 000e 012A     		cmp	r2, #1
 108 0010 04D9     		bls	.L6
 109              		.loc 1 111 0 is_stmt 0 discriminator 1
 110 0012 052B     		cmp	r3, #5
 111 0014 02D0     		beq	.L6
 112              		.loc 1 111 0 discriminator 2
ARM GAS  /tmp/ccx5RMa5.s 			page 3


 113 0016 0C48     		ldr	r0, .L14
 114 0018 FFF7FEFF 		bl	chDbgPanic
 115              	.LVL6:
 116              	.L6:
 117              	.LBB2:
 118              		.loc 1 116 0 is_stmt 1
 119 001c 2023     		movs	r3, #32
 120              	.LVL7:
 121              	@ 116 "/home/formica/chibios/chibios/os/hal/src/i2c.c" 1
 122 001e 83F31188 		msr     BASEPRI, r3
 123              	@ 0 "" 2
 124              	.LVL8:
 125              		.thumb
 126              	.LBE2:
 127 0022 FFF7FEFF 		bl	dbg_check_lock
 128              	.LVL9:
 129              		.loc 1 118 0
 130 0026 2046     		mov	r0, r4
 131              		.loc 1 117 0
 132 0028 6560     		str	r5, [r4, #4]
 133              		.loc 1 118 0
 134 002a FFF7FEFF 		bl	i2c_lld_start
 135              	.LVL10:
 136              		.loc 1 119 0
 137 002e 0220     		movs	r0, #2
 138 0030 2070     		strb	r0, [r4, #0]
 139              		.loc 1 120 0
 140 0032 FFF7FEFF 		bl	dbg_check_unlock
 141              	.LVL11:
 142              	.LBB3:
 143 0036 0023     		movs	r3, #0
 144              	.LVL12:
 145              	@ 120 "/home/formica/chibios/chibios/os/hal/src/i2c.c" 1
 146 0038 83F31188 		msr     BASEPRI, r3
 147              	@ 0 "" 2
 148              	.LVL13:
 149              		.thumb
 150 003c 38BD     		pop	{r3, r4, r5, pc}
 151              	.LVL14:
 152              	.L4:
 153              	.LBE3:
 154              		.loc 1 110 0 discriminator 1
 155 003e 0348     		ldr	r0, .L14+4
 156              	.LVL15:
 157 0040 FFF7FEFF 		bl	chDbgPanic
 158              	.LVL16:
 159 0044 E1E7     		b	.L5
 160              	.L15:
 161 0046 00BF     		.align	2
 162              	.L14:
 163 0048 10000000 		.word	.LC1
 164 004c 00000000 		.word	.LC0
 165              		.cfi_endproc
 166              	.LFE64:
 167              		.size	i2cStart, .-i2cStart
 168              		.section	.text.i2cStop,"ax",%progbits
 169              		.align	2
ARM GAS  /tmp/ccx5RMa5.s 			page 4


 170              		.p2align 4,,15
 171              		.global	i2cStop
 172              		.thumb
 173              		.thumb_func
 174              		.type	i2cStop, %function
 175              	i2cStop:
 176              	.LFB65:
 177              		.loc 1 130 0
 178              		.cfi_startproc
 179              		@ args = 0, pretend = 0, frame = 0
 180              		@ frame_needed = 0, uses_anonymous_args = 0
 181              	.LVL17:
 182 0000 10B5     		push	{r4, lr}
 183              	.LCFI1:
 184              		.cfi_def_cfa_offset 8
 185              		.cfi_offset 4, -8
 186              		.cfi_offset 14, -4
 187              		.loc 1 132 0
 188 0002 0446     		mov	r4, r0
 189 0004 C0B1     		cbz	r0, .L22
 190              	.LVL18:
 191              	.L17:
 192              		.loc 1 133 0
 193 0006 2378     		ldrb	r3, [r4, #0]	@ zero_extendqisi2
 194 0008 5A1E     		subs	r2, r3, #1
 195 000a 012A     		cmp	r2, #1
 196 000c 04D9     		bls	.L18
 197              		.loc 1 133 0 is_stmt 0 discriminator 1
 198 000e 052B     		cmp	r3, #5
 199 0010 02D0     		beq	.L18
 200              		.loc 1 133 0 discriminator 2
 201 0012 0B48     		ldr	r0, .L23
 202 0014 FFF7FEFF 		bl	chDbgPanic
 203              	.LVL19:
 204              	.L18:
 205              	.LBB4:
 206              		.loc 1 138 0 is_stmt 1
 207 0018 2023     		movs	r3, #32
 208              	.LVL20:
 209              	@ 138 "/home/formica/chibios/chibios/os/hal/src/i2c.c" 1
 210 001a 83F31188 		msr     BASEPRI, r3
 211              	@ 0 "" 2
 212              	.LVL21:
 213              		.thumb
 214              	.LBE4:
 215 001e FFF7FEFF 		bl	dbg_check_lock
 216              	.LVL22:
 217              		.loc 1 139 0
 218 0022 2046     		mov	r0, r4
 219 0024 FFF7FEFF 		bl	i2c_lld_stop
 220              	.LVL23:
 221              		.loc 1 140 0
 222 0028 0120     		movs	r0, #1
 223 002a 2070     		strb	r0, [r4, #0]
 224              		.loc 1 141 0
 225 002c FFF7FEFF 		bl	dbg_check_unlock
 226              	.LVL24:
ARM GAS  /tmp/ccx5RMa5.s 			page 5


 227              	.LBB5:
 228 0030 0023     		movs	r3, #0
 229              	.LVL25:
 230              	@ 141 "/home/formica/chibios/chibios/os/hal/src/i2c.c" 1
 231 0032 83F31188 		msr     BASEPRI, r3
 232              	@ 0 "" 2
 233              	.LVL26:
 234              		.thumb
 235 0036 10BD     		pop	{r4, pc}
 236              	.LVL27:
 237              	.L22:
 238              	.LBE5:
 239              		.loc 1 132 0 discriminator 1
 240 0038 0248     		ldr	r0, .L23+4
 241              	.LVL28:
 242 003a FFF7FEFF 		bl	chDbgPanic
 243              	.LVL29:
 244 003e E2E7     		b	.L17
 245              	.L24:
 246              		.align	2
 247              	.L23:
 248 0040 2C000000 		.word	.LC3
 249 0044 20000000 		.word	.LC2
 250              		.cfi_endproc
 251              	.LFE65:
 252              		.size	i2cStop, .-i2cStop
 253 0048 AFF30080 		.section	.text.i2cGetErrors,"ax",%progbits
 253      AFF30080 
 254              		.align	2
 255              		.p2align 4,,15
 256              		.global	i2cGetErrors
 257              		.thumb
 258              		.thumb_func
 259              		.type	i2cGetErrors, %function
 260              	i2cGetErrors:
 261              	.LFB66:
 262              		.loc 1 152 0
 263              		.cfi_startproc
 264              		@ args = 0, pretend = 0, frame = 0
 265              		@ frame_needed = 0, uses_anonymous_args = 0
 266              	.LVL30:
 267 0000 10B5     		push	{r4, lr}
 268              	.LCFI2:
 269              		.cfi_def_cfa_offset 8
 270              		.cfi_offset 4, -8
 271              		.cfi_offset 14, -4
 272              		.loc 1 154 0
 273 0002 0446     		mov	r4, r0
 274 0004 08B1     		cbz	r0, .L27
 275              		.loc 1 157 0
 276 0006 A068     		ldr	r0, [r4, #8]
 277              	.LVL31:
 278 0008 10BD     		pop	{r4, pc}
 279              	.LVL32:
 280              	.L27:
 281              		.loc 1 154 0 discriminator 1
 282 000a 0248     		ldr	r0, .L28
ARM GAS  /tmp/ccx5RMa5.s 			page 6


 283              	.LVL33:
 284 000c FFF7FEFF 		bl	chDbgPanic
 285              	.LVL34:
 286              		.loc 1 157 0 discriminator 1
 287 0010 A068     		ldr	r0, [r4, #8]
 288 0012 10BD     		pop	{r4, pc}
 289              	.L29:
 290              		.align	2
 291              	.L28:
 292 0014 3C000000 		.word	.LC4
 293              		.cfi_endproc
 294              	.LFE66:
 295              		.size	i2cGetErrors, .-i2cGetErrors
 296 0018 AFF30080 		.section	.text.i2cMasterTransmitTimeout,"ax",%progbits
 296      AFF30080 
 297              		.align	2
 298              		.p2align 4,,15
 299              		.global	i2cMasterTransmitTimeout
 300              		.thumb
 301              		.thumb_func
 302              		.type	i2cMasterTransmitTimeout, %function
 303              	i2cMasterTransmitTimeout:
 304              	.LFB67:
 305              		.loc 1 191 0
 306              		.cfi_startproc
 307              		@ args = 12, pretend = 0, frame = 0
 308              		@ frame_needed = 0, uses_anonymous_args = 0
 309              	.LVL35:
 310 0000 2DE9F046 		push	{r4, r5, r6, r7, r9, sl, lr}
 311              	.LCFI3:
 312              		.cfi_def_cfa_offset 28
 313              		.cfi_offset 4, -28
 314              		.cfi_offset 5, -24
 315              		.cfi_offset 6, -20
 316              		.cfi_offset 7, -16
 317              		.cfi_offset 9, -12
 318              		.cfi_offset 10, -8
 319              		.cfi_offset 14, -4
 320 0004 85B0     		sub	sp, sp, #20
 321              	.LCFI4:
 322              		.cfi_def_cfa_offset 48
 323              		.loc 1 194 0
 324 0006 0446     		mov	r4, r0
 325              		.loc 1 191 0
 326 0008 0F46     		mov	r7, r1
 327 000a 9246     		mov	sl, r2
 328 000c 9946     		mov	r9, r3
 329 000e 0D9D     		ldr	r5, [sp, #52]
 330 0010 0E9E     		ldr	r6, [sp, #56]
 331              		.loc 1 194 0
 332 0012 08B1     		cbz	r0, .L31
 333              		.loc 1 194 0 is_stmt 0 discriminator 2
 334 0014 0029     		cmp	r1, #0
 335 0016 28D1     		bne	.L58
 336              	.LVL36:
 337              	.L31:
 338              		.loc 1 194 0 discriminator 1
ARM GAS  /tmp/ccx5RMa5.s 			page 7


 339 0018 1B48     		ldr	r0, .L60
 340              	.LVL37:
 341 001a FFF7FEFF 		bl	chDbgPanic
 342              	.LVL38:
 343              	.L33:
 344              		.loc 1 200 0 is_stmt 1
 345 001e 2078     		ldrb	r0, [r4, #0]	@ zero_extendqisi2
 346 0020 0228     		cmp	r0, #2
 347 0022 02D0     		beq	.L34
 348              		.loc 1 200 0 is_stmt 0 discriminator 1
 349 0024 1948     		ldr	r0, .L60+4
 350 0026 FFF7FEFF 		bl	chDbgPanic
 351              	.LVL39:
 352              	.L34:
 353              	.LBB6:
 354              		.loc 1 203 0 is_stmt 1
 355 002a 2023     		movs	r3, #32
 356              	.LVL40:
 357              	@ 203 "/home/formica/chibios/chibios/os/hal/src/i2c.c" 1
 358 002c 83F31188 		msr     BASEPRI, r3
 359              	@ 0 "" 2
 360              	.LVL41:
 361              		.thumb
 362              	.LBE6:
 363 0030 FFF7FEFF 		bl	dbg_check_lock
 364              	.LVL42:
 365              		.loc 1 206 0
 366 0034 0C9B     		ldr	r3, [sp, #48]
 367              		.loc 1 204 0
 368 0036 0021     		movs	r1, #0
 369              		.loc 1 205 0
 370 0038 0322     		movs	r2, #3
 371              		.loc 1 204 0
 372 003a A160     		str	r1, [r4, #8]
 373              		.loc 1 205 0
 374 003c 2270     		strb	r2, [r4, #0]
 375              		.loc 1 206 0
 376 003e 2046     		mov	r0, r4
 377 0040 8DE86800 		stmia	sp, {r3, r5, r6}
 378 0044 3946     		mov	r1, r7
 379 0046 4B46     		mov	r3, r9
 380 0048 5246     		mov	r2, sl
 381 004a FFF7FEFF 		bl	i2c_lld_master_transmit_timeout
 382              	.LVL43:
 383              		.loc 1 208 0
 384 004e 431C     		adds	r3, r0, #1
 385              		.loc 1 206 0
 386 0050 0546     		mov	r5, r0
 387              	.LVL44:
 388              		.loc 1 208 0
 389 0052 15D0     		beq	.L59
 390              		.loc 1 211 0
 391 0054 0223     		movs	r3, #2
 392 0056 2370     		strb	r3, [r4, #0]
 393              	.LVL45:
 394              	.L36:
 395              		.loc 1 212 0
ARM GAS  /tmp/ccx5RMa5.s 			page 8


 396 0058 FFF7FEFF 		bl	dbg_check_unlock
 397              	.LVL46:
 398              	.LBB7:
 399 005c 0023     		movs	r3, #0
 400              	.LVL47:
 401              	@ 212 "/home/formica/chibios/chibios/os/hal/src/i2c.c" 1
 402 005e 83F31188 		msr     BASEPRI, r3
 403              	@ 0 "" 2
 404              	.LVL48:
 405              		.thumb
 406              	.LBE7:
 407              		.loc 1 214 0
 408 0062 2846     		mov	r0, r5
 409 0064 05B0     		add	sp, sp, #20
 410 0066 BDE8F086 		pop	{r4, r5, r6, r7, r9, sl, pc}
 411              	.LVL49:
 412              	.L58:
 413              		.loc 1 194 0 discriminator 3
 414 006a 002B     		cmp	r3, #0
 415 006c D4D0     		beq	.L31
 416              		.loc 1 194 0 is_stmt 0 discriminator 4
 417 006e 002A     		cmp	r2, #0
 418 0070 D2D0     		beq	.L31
 419              		.loc 1 194 0 discriminator 5
 420 0072 15B1     		cbz	r5, .L32
 421              		.loc 1 194 0 discriminator 6
 422 0074 0C9B     		ldr	r3, [sp, #48]
 423              	.LVL50:
 424 0076 002B     		cmp	r3, #0
 425 0078 CED0     		beq	.L31
 426              	.L32:
 427              		.loc 1 194 0 discriminator 7
 428 007a 002E     		cmp	r6, #0
 429 007c CFD1     		bne	.L33
 430 007e CBE7     		b	.L31
 431              	.LVL51:
 432              	.L59:
 433              		.loc 1 209 0 is_stmt 1
 434 0080 0520     		movs	r0, #5
 435              	.LVL52:
 436 0082 2070     		strb	r0, [r4, #0]
 437 0084 E8E7     		b	.L36
 438              	.L61:
 439 0086 00BF     		.align	2
 440              	.L60:
 441 0088 50000000 		.word	.LC5
 442 008c 70000000 		.word	.LC6
 443              		.cfi_endproc
 444              	.LFE67:
 445              		.size	i2cMasterTransmitTimeout, .-i2cMasterTransmitTimeout
 446              		.section	.text.i2cMasterReceiveTimeout,"ax",%progbits
 447              		.align	2
 448              		.p2align 4,,15
 449              		.global	i2cMasterReceiveTimeout
 450              		.thumb
 451              		.thumb_func
 452              		.type	i2cMasterReceiveTimeout, %function
ARM GAS  /tmp/ccx5RMa5.s 			page 9


 453              	i2cMasterReceiveTimeout:
 454              	.LFB68:
 455              		.loc 1 240 0
 456              		.cfi_startproc
 457              		@ args = 4, pretend = 0, frame = 0
 458              		@ frame_needed = 0, uses_anonymous_args = 0
 459              	.LVL53:
 460 0000 2DE9F041 		push	{r4, r5, r6, r7, r8, lr}
 461              	.LCFI5:
 462              		.cfi_def_cfa_offset 24
 463              		.cfi_offset 4, -24
 464              		.cfi_offset 5, -20
 465              		.cfi_offset 6, -16
 466              		.cfi_offset 7, -12
 467              		.cfi_offset 8, -8
 468              		.cfi_offset 14, -4
 469 0004 82B0     		sub	sp, sp, #8
 470              	.LCFI6:
 471              		.cfi_def_cfa_offset 32
 472              		.loc 1 244 0
 473 0006 0446     		mov	r4, r0
 474              		.loc 1 240 0
 475 0008 0D46     		mov	r5, r1
 476 000a 9046     		mov	r8, r2
 477 000c 1E46     		mov	r6, r3
 478 000e 089F     		ldr	r7, [sp, #32]
 479              		.loc 1 244 0
 480 0010 08B1     		cbz	r0, .L63
 481              		.loc 1 244 0 is_stmt 0 discriminator 2
 482 0012 0029     		cmp	r1, #0
 483 0014 26D1     		bne	.L83
 484              	.L63:
 485              		.loc 1 244 0 discriminator 1
 486 0016 1848     		ldr	r0, .L85
 487              	.LVL54:
 488 0018 FFF7FEFF 		bl	chDbgPanic
 489              	.LVL55:
 490              	.L64:
 491              		.loc 1 249 0 is_stmt 1
 492 001c 2378     		ldrb	r3, [r4, #0]	@ zero_extendqisi2
 493 001e 022B     		cmp	r3, #2
 494 0020 02D0     		beq	.L65
 495              		.loc 1 249 0 is_stmt 0 discriminator 1
 496 0022 1648     		ldr	r0, .L85+4
 497 0024 FFF7FEFF 		bl	chDbgPanic
 498              	.LVL56:
 499              	.L65:
 500              	.LBB8:
 501              		.loc 1 252 0 is_stmt 1
 502 0028 2023     		movs	r3, #32
 503              	.LVL57:
 504              	@ 252 "/home/formica/chibios/chibios/os/hal/src/i2c.c" 1
 505 002a 83F31188 		msr     BASEPRI, r3
 506              	@ 0 "" 2
 507              	.LVL58:
 508              		.thumb
 509              	.LBE8:
ARM GAS  /tmp/ccx5RMa5.s 			page 10


 510 002e FFF7FEFF 		bl	dbg_check_lock
 511              	.LVL59:
 512              		.loc 1 253 0
 513 0032 0020     		movs	r0, #0
 514              		.loc 1 254 0
 515 0034 0421     		movs	r1, #4
 516              		.loc 1 253 0
 517 0036 A060     		str	r0, [r4, #8]
 518              		.loc 1 254 0
 519 0038 2170     		strb	r1, [r4, #0]
 520              		.loc 1 255 0
 521 003a 4246     		mov	r2, r8
 522 003c 2946     		mov	r1, r5
 523 003e 2046     		mov	r0, r4
 524 0040 0097     		str	r7, [sp, #0]
 525 0042 3346     		mov	r3, r6
 526 0044 FFF7FEFF 		bl	i2c_lld_master_receive_timeout
 527              	.LVL60:
 528              		.loc 1 256 0
 529 0048 421C     		adds	r2, r0, #1
 530              		.loc 1 255 0
 531 004a 0546     		mov	r5, r0
 532              	.LVL61:
 533              		.loc 1 256 0
 534 004c 11D0     		beq	.L84
 535              		.loc 1 259 0
 536 004e 0222     		movs	r2, #2
 537 0050 2270     		strb	r2, [r4, #0]
 538              	.L67:
 539              		.loc 1 260 0
 540 0052 FFF7FEFF 		bl	dbg_check_unlock
 541              	.LVL62:
 542              	.LBB9:
 543 0056 0023     		movs	r3, #0
 544              	.LVL63:
 545              	@ 260 "/home/formica/chibios/chibios/os/hal/src/i2c.c" 1
 546 0058 83F31188 		msr     BASEPRI, r3
 547              	@ 0 "" 2
 548              	.LVL64:
 549              		.thumb
 550              	.LBE9:
 551              		.loc 1 262 0
 552 005c 2846     		mov	r0, r5
 553 005e 02B0     		add	sp, sp, #8
 554 0060 BDE8F081 		pop	{r4, r5, r6, r7, r8, pc}
 555              	.LVL65:
 556              	.L83:
 557              		.loc 1 244 0 discriminator 3
 558 0064 002B     		cmp	r3, #0
 559 0066 D6D0     		beq	.L63
 560              		.loc 1 244 0 is_stmt 0 discriminator 4
 561 0068 002A     		cmp	r2, #0
 562 006a D4D0     		beq	.L63
 563              		.loc 1 244 0 discriminator 5
 564 006c 002F     		cmp	r7, #0
 565 006e D5D1     		bne	.L64
 566 0070 D1E7     		b	.L63
ARM GAS  /tmp/ccx5RMa5.s 			page 11


 567              	.LVL66:
 568              	.L84:
 569              		.loc 1 257 0 is_stmt 1
 570 0072 0523     		movs	r3, #5
 571 0074 2370     		strb	r3, [r4, #0]
 572 0076 ECE7     		b	.L67
 573              	.L86:
 574              		.align	2
 575              	.L85:
 576 0078 90000000 		.word	.LC7
 577 007c AC000000 		.word	.LC8
 578              		.cfi_endproc
 579              	.LFE68:
 580              		.size	i2cMasterReceiveTimeout, .-i2cMasterReceiveTimeout
 581              		.section	.text.i2cAcquireBus,"ax",%progbits
 582              		.align	2
 583              		.p2align 4,,15
 584              		.global	i2cAcquireBus
 585              		.thumb
 586              		.thumb_func
 587              		.type	i2cAcquireBus, %function
 588              	i2cAcquireBus:
 589              	.LFB69:
 590              		.loc 1 276 0
 591              		.cfi_startproc
 592              		@ args = 0, pretend = 0, frame = 0
 593              		@ frame_needed = 0, uses_anonymous_args = 0
 594              	.LVL67:
 595 0000 10B5     		push	{r4, lr}
 596              	.LCFI7:
 597              		.cfi_def_cfa_offset 8
 598              		.cfi_offset 4, -8
 599              		.cfi_offset 14, -4
 600              		.loc 1 278 0
 601 0002 0446     		mov	r4, r0
 602 0004 28B1     		cbz	r0, .L89
 603              	.LVL68:
 604              	.L88:
 605              		.loc 1 281 0
 606 0006 04F10C00 		add	r0, r4, #12
 607              		.loc 1 285 0
 608 000a BDE81040 		pop	{r4, lr}
 609              		.loc 1 281 0
 610 000e FFF7FEBF 		b	chMtxLock
 611              	.LVL69:
 612              	.L89:
 613              		.loc 1 278 0 discriminator 1
 614 0012 0248     		ldr	r0, .L90
 615              	.LVL70:
 616 0014 FFF7FEFF 		bl	chDbgPanic
 617              	.LVL71:
 618 0018 F5E7     		b	.L88
 619              	.L91:
 620 001a 00BF     		.align	2
 621              	.L90:
 622 001c C4000000 		.word	.LC9
 623              		.cfi_endproc
ARM GAS  /tmp/ccx5RMa5.s 			page 12


 624              	.LFE69:
 625              		.size	i2cAcquireBus, .-i2cAcquireBus
 626              		.section	.text.i2cReleaseBus,"ax",%progbits
 627              		.align	2
 628              		.p2align 4,,15
 629              		.global	i2cReleaseBus
 630              		.thumb
 631              		.thumb_func
 632              		.type	i2cReleaseBus, %function
 633              	i2cReleaseBus:
 634              	.LFB70:
 635              		.loc 1 296 0
 636              		.cfi_startproc
 637              		@ args = 0, pretend = 0, frame = 0
 638              		@ frame_needed = 0, uses_anonymous_args = 0
 639              	.LVL72:
 640 0000 08B5     		push	{r3, lr}
 641              	.LCFI8:
 642              		.cfi_def_cfa_offset 8
 643              		.cfi_offset 3, -8
 644              		.cfi_offset 14, -4
 645              		.loc 1 298 0
 646 0002 18B1     		cbz	r0, .L94
 647              	.LVL73:
 648              	.L93:
 649              		.loc 1 305 0
 650 0004 BDE80840 		pop	{r3, lr}
 651              		.loc 1 301 0
 652 0008 FFF7FEBF 		b	chMtxUnlock
 653              	.LVL74:
 654              	.L94:
 655              		.loc 1 298 0 discriminator 1
 656 000c 0148     		ldr	r0, .L95
 657              	.LVL75:
 658 000e FFF7FEFF 		bl	chDbgPanic
 659              	.LVL76:
 660 0012 F7E7     		b	.L93
 661              	.L96:
 662              		.align	2
 663              	.L95:
 664 0014 D8000000 		.word	.LC10
 665              		.cfi_endproc
 666              	.LFE70:
 667              		.size	i2cReleaseBus, .-i2cReleaseBus
 668 0018 AFF30080 		.section	.rodata.str1.4,"aMS",%progbits,1
 668      AFF30080 
 669              		.align	2
 670              	.LC0:
 671 0000 22693263 		.ascii	"\"i2cStart\"()\000"
 671      53746172 
 671      74222829 
 671      00
 672 000d 000000   		.space	3
 673              	.LC1:
 674 0010 69326353 		.ascii	"i2cStart(), #1\000"
 674      74617274 
 674      28292C20 
ARM GAS  /tmp/ccx5RMa5.s 			page 13


 674      233100
 675 001f 00       		.space	1
 676              	.LC2:
 677 0020 22693263 		.ascii	"\"i2cStop\"()\000"
 677      53746F70 
 677      22282900 
 678              	.LC3:
 679 002c 69326353 		.ascii	"i2cStop(), #1\000"
 679      746F7028 
 679      292C2023 
 679      3100
 680 003a 0000     		.space	2
 681              	.LC4:
 682 003c 22693263 		.ascii	"\"i2cGetErrors\"()\000"
 682      47657445 
 682      72726F72 
 682      73222829 
 682      00
 683 004d 000000   		.space	3
 684              	.LC5:
 685 0050 22693263 		.ascii	"\"i2cMasterTransmitTimeout\"()\000"
 685      4D617374 
 685      65725472 
 685      616E736D 
 685      69745469 
 686 006d 000000   		.space	3
 687              	.LC6:
 688 0070 6932634D 		.ascii	"i2cMasterTransmitTimeout(), #1\000"
 688      61737465 
 688      72547261 
 688      6E736D69 
 688      7454696D 
 689 008f 00       		.space	1
 690              	.LC7:
 691 0090 22693263 		.ascii	"\"i2cMasterReceiveTimeout\"()\000"
 691      4D617374 
 691      65725265 
 691      63656976 
 691      6554696D 
 692              	.LC8:
 693 00ac 6932634D 		.ascii	"i2cMasterReceive(), #1\000"
 693      61737465 
 693      72526563 
 693      65697665 
 693      28292C20 
 694 00c3 00       		.space	1
 695              	.LC9:
 696 00c4 22693263 		.ascii	"\"i2cAcquireBus\"()\000"
 696      41637175 
 696      69726542 
 696      75732228 
 696      2900
 697 00d6 0000     		.space	2
 698              	.LC10:
 699 00d8 22693263 		.ascii	"\"i2cReleaseBus\"()\000"
 699      52656C65 
 699      61736542 
ARM GAS  /tmp/ccx5RMa5.s 			page 14


 699      75732228 
 699      2900
 700 00ea 0000     		.text
 701              	.Letext0:
 702              		.file 2 "/home/formica/toolchains/gcc-arm-none-eabi-4_7-2012q4/bin/../lib/gcc/arm-none-eabi/4.7.3/
 703              		.file 3 "/home/formica/toolchains/gcc-arm-none-eabi-4_7-2012q4/bin/../lib/gcc/arm-none-eabi/4.7.3/
 704              		.file 4 "/home/formica/chibios/chibios/os/ports/GCC/ARMCMx/chtypes.h"
 705              		.file 5 "/home/formica/chibios/chibios/os/kernel/include/chlists.h"
 706              		.file 6 "/home/formica/chibios/chibios/os/kernel/include/chthreads.h"
 707              		.file 7 "/home/formica/chibios/chibios/os/ports/GCC/ARMCMx/chcore_v7m.h"
 708              		.file 8 "/home/formica/chibios/chibios/os/kernel/include/chmtx.h"
 709              		.file 9 "/home/formica/chibios/chibios/os/hal/platforms/STM32F1xx/stm32f10x.h"
 710              		.file 10 "/home/formica/chibios/chibios/os/hal/platforms/STM32F1xx/stm32_dma.h"
 711              		.file 11 "/home/formica/chibios/chibios/os/hal/include/i2c.h"
 712              		.file 12 "/home/formica/chibios/chibios/os/hal/platforms/STM32/i2c_lld.h"
 713              		.file 13 "/home/formica/chibios/chibios/os/kernel/include/chdebug.h"
 714              		.file 14 "/home/formica/chibios/chibios/os/ports/common/ARMCMx/CMSIS/include/core_cm3.h"