ARM GAS  /tmp/ccx5RMa5.s 			page 1


   1              		.syntax unified
   2              		.cpu cortex-m3
   3              		.fpu softvfp
   4              		.eabi_attribute 20, 1
   5              		.eabi_attribute 21, 1
   6              		.eabi_attribute 23, 3
   7              		.eabi_attribute 24, 1
   8              		.eabi_attribute 25, 1
   9              		.eabi_attribute 26, 1
  10              		.eabi_attribute 30, 2
  11              		.eabi_attribute 34, 1
  12              		.eabi_attribute 18, 4
  13              		.thumb
  14              		.file	"i2c.c"
  15              		.text
  16              	.Ltext0:
  17              		.cfi_sections	.debug_frame
  18              		.section	.text.i2cInit,"ax",%progbits
  19              		.align	2
  20              		.p2align 4,,15
  21              		.global	i2cInit
  22              		.thumb
  23              		.thumb_func
  24              		.type	i2cInit, %function
  25              	i2cInit:
  26              	.LFB62:
  27              		.file 1 "/home/formica/chibios/chibios/os/hal/src/i2c.c"
  28              		.loc 1 71 0
  29              		.cfi_startproc
  30              		@ args = 0, pretend = 0, frame = 0
  31              		@ frame_needed = 0, uses_anonymous_args = 0
  32              		@ link register save eliminated.
  33              		.loc 1 73 0
  34              		.loc 1 72 0
  35 0000 FFF7FEBF 		b	i2c_lld_init
  36              	.LVL0:
  37              		.cfi_endproc
  38              	.LFE62:
  39              		.size	i2cInit, .-i2cInit
  40 0004 AFF30080 		.section	.text.i2cObjectInit,"ax",%progbits
  40      AFF30080 
  40      AFF30080 
  41              		.align	2
  42              		.p2align 4,,15
  43              		.global	i2cObjectInit
  44              		.thumb
  45              		.thumb_func
  46              		.type	i2cObjectInit, %function
  47              	i2cObjectInit:
  48              	.LFB63:
  49              		.loc 1 82 0
  50              		.cfi_startproc
  51              		@ args = 0, pretend = 0, frame = 0
  52              		@ frame_needed = 0, uses_anonymous_args = 0
  53              		@ link register save eliminated.
  54              	.LVL1:
  55              		.loc 1 84 0
ARM GAS  /tmp/ccx5RMa5.s 			page 2


  56 0000 0123     		movs	r3, #1
  57              		.loc 1 85 0
  58 0002 0021     		movs	r1, #0
  59              		.loc 1 84 0
  60 0004 0370     		strb	r3, [r0, #0]
  61              		.loc 1 85 0
  62 0006 4160     		str	r1, [r0, #4]
  63              		.loc 1 89 0
  64 0008 0C30     		adds	r0, r0, #12
  65              	.LVL2:
  66              		.loc 1 98 0
  67              		.loc 1 89 0
  68 000a FFF7FEBF 		b	chMtxInit
  69              	.LVL3:
  70              		.cfi_endproc
  71              	.LFE63:
  72              		.size	i2cObjectInit, .-i2cObjectInit
  73 000e 00BF     		.section	.text.i2cStart,"ax",%progbits
  74              		.align	2
  75              		.p2align 4,,15
  76              		.global	i2cStart
  77              		.thumb
  78              		.thumb_func
  79              		.type	i2cStart, %function
  80              	i2cStart:
  81              	.LFB64:
  82              		.loc 1 108 0
  83              		.cfi_startproc
  84              		@ args = 0, pretend = 0, frame = 0
  85              		@ frame_needed = 0, uses_anonymous_args = 0
  86              	.LVL4:
  87 0000 38B5     		push	{r3, r4, r5, lr}
  88              	.LCFI0:
  89              		.cfi_def_cfa_offset 16
  90              		.cfi_offset 3, -16
  91              		.cfi_offset 4, -12
  92              		.cfi_offset 5, -8
  93              		.cfi_offset 14, -4
  94              		.loc 1 110 0
  95 0002 0446     		mov	r4, r0
  96              		.loc 1 108 0
  97 0004 0D46     		mov	r5, r1
  98              		.loc 1 110 0
  99 0006 D0B1     		cbz	r0, .L4
 100              		.loc 1 110 0 is_stmt 0 discriminator 2
 101 0008 C9B1     		cbz	r1, .L4
 102              	.LVL5:
 103              	.L5:
 104              		.loc 1 111 0 is_stmt 1
 105 000a 2378     		ldrb	r3, [r4, #0]	@ zero_extendqisi2
 106 000c 5A1E     		subs	r2, r3, #1
 107 000e 012A     		cmp	r2, #1
 108 0010 04D9     		bls	.L6
 109              		.loc 1 111 0 is_stmt 0 discriminator 1
 110 0012 052B     		cmp	r3, #5
 111 0014 02D0     		beq	.L6
 112              		.loc 1 111 0 discriminator 2
ARM GAS  /tmp/ccx5RMa5.s 			page 3


 113 0016 0C48     		ldr	r0, .L14
 114 0018 FFF7FEFF 		bl	chDbgPanic
 115              	.LVL6:
 116              	.L6:
 117              	.LBB2:
 118              		.loc 1 116 0 is_stmt 1
 119 001c 2023     		movs	r3, #32
 120              	.LVL7:
 121              	@ 116 "/home/formica/chibios/chibios/os/hal/src/i2c.c" 1
 122 001e 83F31188 		msr     BASEPRI, r3
 123              	@ 0 "" 2
 124              	.LVL8:
 125              		.thumb
 126              	.LBE2:
 127 0022 FFF7FEFF 		bl	dbg_check_lock
 128              	.LVL9:
 129              		.loc 1 118 0
 130 0026 2046     		mov	r0, r4
 131              		.loc 1 117 0
 132 0028 6560     		str	r5, [r4, #4]
 133              		.loc 1 118 0
 134 002a FFF7FEFF 		bl	i2c_lld_start
 135              	.LVL10:
 136              		.loc 1 119 0
 137 002e 0220     		movs	r0, #2
 138 0030 2070     		strb	r0, [r4, #0]
 139              		.loc 1 120 0
 140 0032 FFF7FEFF 		bl	dbg_check_unlock
 141              	.LVL11:
 142              	.LBB3:
 143 0036 0023     		movs	r3, #0
 144              	.LVL12:
 145              	@ 120 "/home/formica/chibios/chibios/os/hal/src/i2c.c" 1
 146 0038 83F31188 		msr     BASEPRI, r3
 147              	@ 0 "" 2
 148              	.LVL13:
 149              		.thumb
 150 003c 38BD     		pop	{r3, r4, r5, pc}
 151              	.LVL14:
 152              	.L4:
 153              	.LBE3:
 154              		.loc 1 110 0 discriminator 1
 155 003e 0348     		ldr	r0, .L14+4
 156              	.LVL15:
 157 0040 FFF7FEFF 		bl	chDbgPanic
 158              	.LVL16:
 159 0044 E1E7     		b	.L5
 160              	.L15:
 161 0046 00BF     		.align	2
 162              	.L14:
 163 0048 10000000 		.word	.LC1
 164 004c 00000000 		.word	.LC0
 165              		.cfi_endproc
 166              	.LFE64:
 167              		.size	i2cStart, .-i2cStart
 168              		.section	.text.i2cStop,"ax",%progbits
 169              		.align	2
ARM GAS  /tmp/ccx5RMa5.s 			page 4


 170              		.p2align 4,,15
 171              		.global	i2cStop
 172              		.thumb
 173              		.thumb_func
 174              		.type	i2cStop, %function
 175              	i2cStop:
 176              	.LFB65:
 177              		.loc 1 130 0
 178              		.cfi_startproc
 179              		@ args = 0, pretend = 0, frame = 0
 180              		@ frame_needed = 0, uses_anonymous_args = 0
 181              	.LVL17:
 182 0000 10B5     		push	{r4, lr}
 183              	.LCFI1:
 184              		.cfi_def_cfa_offset 8
 185              		.cfi_offset 4, -8
 186              		.cfi_offset 14, -4
 187              		.loc 1 132 0
 188 0002 0446     		mov	r4, r0
 189 0004 C0B1     		cbz	r0, .L22
 190              	.LVL18:
 191              	.L17:
 192              		.loc 1 133 0
 193 0006 2378     		ldrb	r3, [r4, #0]	@ zero_extendqisi2
 194 0008 5A1E     		subs	r2, r3, #1
 195 000a 012A     		cmp	r2, #1
 196 000c 04D9     		bls	.L18
 197              		.loc 1 133 0 is_stmt 0 discriminator 1
 198 000e 052B     		cmp	r3, #5
 199 0010 02D0     		beq	.L18
 200              		.loc 1 133 0 discriminator 2
 201 0012 0B48     		ldr	r0, .L23
 202 0014 FFF7FEFF 		bl	chDbgPanic
 203              	.LVL19:
 204              	.L18:
 205              	.LBB4:
 206              		.loc 1 138 0 is_stmt 1
 207 0018 2023     		movs	r3, #32
 208              	.LVL20:
 209              	@ 138 "/home/formica/chibios/chibios/os/hal/src/i2c.c" 1
 210 001a 83F31188 		msr     BASEPRI, r3
 211              	@ 0 "" 2
 212              	.LVL21:
 213              		.thumb
 214              	.LBE4:
 215 001e FFF7FEFF 		bl	dbg_check_lock
 216              	.LVL22:
 217              		.loc 1 139 0
 218 0022 2046     		mov	r0, r4
 219 0024 FFF7FEFF 		bl	i2c_lld_stop
 220              	.LVL23:
 221              		.loc 1 140 0
 222 0028 0120     		movs	r0, #1
 223 002a 2070     		strb	r0, [r4, #0]
 224              		.loc 1 141 0
 225 002c FFF7FEFF 		bl	dbg_check_unlock
 226              	.LVL24:
ARM GAS  /tmp/ccx5RMa5.s 			page 5


 227              	.LBB5:
 228 0030 0023     		movs	r3, #0
 229              	.LVL25:
 230              	@ 141 "/home/formica/chibios/chibios/os/hal/src/i2c.c" 1
 231 0032 83F31188 		msr     BASEPRI, r3
 232              	@ 0 "" 2
 233              	.LVL26:
 234              		.thumb
 235 0036 10BD     		pop	{r4, pc}
 236              	.LVL27:
 237              	.L22:
 238              	.LBE5:
 239              		.loc 1 132 0 discriminator 1
 240 0038 0248     		ldr	r0, .L23+4
 241              	.LVL28:
 242 003a FFF7FEFF 		bl	chDbgPanic
 243              	.LVL29:
 244 003e E2E7     		b	.L17
 245              	.L24:
 246              		.align	2
 247              	.L23:
 248 0040 2C000000 		.word	.LC3
 249 0044 20000000 		.word	.LC2
 250              		.cfi_endproc
 251              	.LFE65:
 252              		.size	i2cStop, .-i2cStop
 253 0048 AFF30080 		.section	.text.i2cGetErrors,"ax",%progbits
 253      AFF30080 
 254              		.align	2
 255              		.p2align 4,,15
 256              		.global	i2cGetErrors
 257              		.thumb
 258              		.thumb_func
 259              		.type	i2cGetErrors, %function
 260              	i2cGetErrors:
 261              	.LFB66:
 262              		.loc 1 152 0
 263              		.cfi_startproc
 264              		@ args = 0, pretend = 0, frame = 0
 265              		@ frame_needed = 0, uses_anonymous_args = 0
 266              	.LVL30:
 267 0000 10B5     		push	{r4, lr}
 268              	.LCFI2:
 269              		.cfi_def_cfa_offset 8
 270              		.cfi_offset 4, -8
 271              		.cfi_offset 14, -4
 272              		.loc 1 154 0
 273 0002 0446     		mov	r4, r0
 274 0004 08B1     		cbz	r0, .L27
 275              		.loc 1 157 0
 276 0006 A068     		ldr	r0, [r4, #8]
 277              	.LVL31:
 278 0008 10BD     		pop	{r4, pc}
 279              	.LVL32:
 280              	.L27:
 281              		.loc 1 154 0 discriminator 1
 282 000a 0248     		ldr	r0, .L28
ARM GAS  /tmp/ccx5RMa5.s 			page 6


 283              	.LVL33:
 284 000c FFF7FEFF 		bl	chDbgPanic
 285              	.LVL34:
 286              		.loc 1 157 0 discriminator 1
 287 0010 A068     		ldr	r0, [r4, #8]
 288 0012 10BD     		pop	{r4, pc}
 289              	.L29:
 290              		.align	2
 291              	.L28:
 292 0014 3C000000 		.word	.LC4
 293              		.cfi_endproc
 294              	.LFE66:
 295              		.size	i2cGetErrors, .-i2cGetErrors
 296 0018 AFF30080 		.section	.text.i2cMasterTransmitTimeout,"ax",%progbits
 296      AFF30080 
 297              		.align	2
 298              		.p2align 4,,15
 299              		.global	i2cMasterTransmitTimeout
 300              		.thumb
 301              		.thumb_func
 302              		.type	i2cMasterTransmitTimeout, %function
 303              	i2cMasterTransmitTimeout:
 304              	.LFB67:
 305              		.loc 1 191 0
 306              		.cfi_startproc
 307              		@ args = 12, pretend = 0, frame = 0
 308              		@ frame_needed = 0, uses_anonymous_args = 0
 309              	.LVL35:
 310 0000 2DE9F046 		push	{r4, r5, r6, r7, r9, sl, lr}
 311              	.LCFI3:
 312              		.cfi_def_cfa_offset 28
 313              		.cfi_offset 4, -28
 314              		.cfi_offset 5, -24
 315              		.cfi_offset 6, -20
 316              		.cfi_offset 7, -16
 317              		.cfi_offset 9, -12
 318              		.cfi_offset 10, -8
 319              		.cfi_offset 14, -4
 320 0004 85B0     		sub	sp, sp, #20
 321              	.LCFI4:
 322              		.cfi_def_cfa_offset 48
 323              		.loc 1 194 0
 324 0006 0446     		mov	r4, r0
 325              		.loc 1 191 0
 326 0008 0F46     		mov	r7, r1
 327 000a 9246     		mov	sl, r2
 328 000c 9946     		mov	r9, r3
 329 000e 0D9D     		ldr	r5, [sp, #52]
 330 0010 0E9E     		ldr	r6, [sp, #56]
 331              		.loc 1 194 0
 332 0012 08B1     		cbz	r0, .L31
 333              		.loc 1 194 0 is_stmt 0 discriminator 2
 334 0014 0029     		cmp	r1, #0
 335 0016 28D1     		bne	.L58
 336              	.LVL36:
 337              	.L31:
 338              		.loc 1 194 0 discriminator 1
ARM GAS  /tmp/ccx5RMa5.s 			page 7


 339 0018 1B48     		ldr	r0, .L60
 340              	.LVL37:
 341 001a FFF7FEFF 		bl	chDbgPanic
 342              	.LVL38:
 343              	.L33:
 344              		.loc 1 200 0 is_stmt 1
 345 001e 2078     		ldrb	r0, [r4, #0]	@ zero_extendqisi2
 346 0020 0228     		cmp	r0, #2
 347 0022 02D0     		beq	.L34
 348              		.loc 1 200 0 is_stmt 0 discriminator 1
 349 0024 1948     		ldr	r0, .L60+4
 350 0026 FFF7FEFF 		bl	chDbgPanic
 351              	.LVL39:
 352              	.L34:
 353              	.LBB6:
 354              		.loc 1 203 0 is_stmt 1
 355 002a 2023     		movs	r3, #32
 356              	.LVL40:
 357              	@ 203 "/home/formica/chibios/chibios/os/hal/src/i2c.c" 1
 358 002c 83F31188 		msr     BASEPRI, r3
 359              	@ 0 "" 2
 360              	.LVL41:
 361              		.thumb
 362              	.LBE6:
 363 0030 FFF7FEFF 		bl	dbg_check_lock
 364              	.LVL42:
 365              		.loc 1 206 0
 366 0034 0C9B     		ldr	r3, [sp, #48]
 367              		.loc 1 204 0
 368 0036 0021     		movs	r1, #0
 369              		.loc 1 205 0
 370 0038 0322     		movs	r2, #3
 371              		.loc 1 204 0
 372 003a A160     		str	r1, [r4, #8]
 373              		.loc 1 205 0
 374 003c 2270     		strb	r2, [r4, #0]
 375              		.loc 1 206 0
 376 003e 2046     		mov	r0, r4
 377 0040 8DE86800 		stmia	sp, {r3, r5, r6}
 378 0044 3946     		mov	r1, r7
 379 0046 4B46     		mov	r3, r9
 380 0048 5246     		mov	r2, sl
 381 004a FFF7FEFF 		bl	i2c_lld_master_transmit_timeout
 382              	.LVL43:
 383              		.loc 1 208 0
 384 004e 431C     		adds	r3, r0, #1
 385              		.loc 1 206 0
 386 0050 0546     		mov	r5, r0
 387              	.LVL44:
 388              		.loc 1 208 0
 389 0052 15D0     		beq	.L59
 390              		.loc 1 211 0
 391 0054 0223     		movs	r3, #2
 392 0056 2370     		strb	r3, [r4, #0]
 393              	.LVL45:
 394              	.L36:
 395              		.loc 1 212 0
ARM GAS  /tmp/ccx5RMa5.s 			page 8


 396 0058 FFF7FEFF 		bl	dbg_check_unlock
 397              	.LVL46:
 398              	.LBB7:
 399 005c 0023     		movs	r3, #0
 400              	.LVL47:
 401              	@ 212 "/home/formica/chibios/chibios/os/hal/src/i2c.c" 1
 402 005e 83F31188 		msr     BASEPRI, r3
 403              	@ 0 "" 2
 404              	.LVL48:
 405              		.thumb
 406              	.LBE7:
 407              		.loc 1 214 0
 408 0062 2846     		mov	r0, r5
 409 0064 05B0     		add	sp, sp, #20
 410 0066 BDE8F086 		pop	{r4, r5, r6, r7, r9, sl, pc}
 411              	.LVL49:
 412              	.L58:
 413              		.loc 1 194 0 discriminator 3
 414 006a 002B     		cmp	r3, #0
 415 006c D4D0     		beq	.L31
 416              		.loc 1 194 0 is_stmt 0 discriminator 4
 417 006e 002A     		cmp	r2, #0
 418 0070 D2D0     		beq	.L31
 419              		.loc 1 194 0 discriminator 5
 420 0072 15B1     		cbz	r5, .L32
 421              		.loc 1 194 0 discriminator 6
 422 0074 0C9B     		ldr	r3, [sp, #48]
 423              	.LVL50:
 424 0076 002B     		cmp	r3, #0
 425 0078 CED0     		beq	.L31
 426              	.L32:
 427              		.loc 1 194 0 discriminator 7
 428 007a 002E     		cmp	r6, #0
 429 007c CFD1     		bne	.L33
 430 007e CBE7     		b	.L31
 431              	.LVL51:
 432              	.L59:
 433              		.loc 1 209 0 is_stmt 1
 434 0080 0520     		movs	r0, #5
 435              	.LVL52:
 436 0082 2070     		strb	r0, [r4, #0]
 437 0084 E8E7     		b	.L36
 438              	.L61:
 439 0086 00BF     		.align	2
 440              	.L60:
 441 0088 50000000 		.word	.LC5
 442 008c 70000000 		.word	.LC6
 443              		.cfi_endproc
 444              	.LFE67:
 445              		.size	i2cMasterTransmitTimeout, .-i2cMasterTransmitTimeout
 446              		.section	.text.i2cMasterReceiveTimeout,"ax",%progbits
 447              		.align	2
 448              		.p2align 4,,15
 449              		.global	i2cMasterReceiveTimeout
 450              		.thumb
 451              		.thumb_func
 452              		.type	i2cMasterReceiveTimeout, %function
ARM GAS  /tmp/ccx5RMa5.s 			page 9


 453              	i2cMasterReceiveTimeout:
 454              	.LFB68:
 455              		.loc 1 240 0
 456              		.cfi_startproc
 457              		@ args = 4, pretend = 0, frame = 0
 458              		@ frame_needed = 0, uses_anonymous_args = 0
 459              	.LVL53:
 460 0000 2DE9F041 		push	{r4, r5, r6, r7, r8, lr}
 461              	.LCFI5:
 462              		.cfi_def_cfa_offset 24
 463              		.cfi_offset 4, -24
 464              		.cfi_offset 5, -20
 465              		.cfi_offset 6, -16
 466              		.cfi_offset 7, -12
 467              		.cfi_offset 8, -8
 468              		.cfi_offset 14, -4
 469 0004 82B0     		sub	sp, sp, #8
 470              	.LCFI6:
 471              		.cfi_def_cfa_offset 32
 472              		.loc 1 244 0
 473 0006 0446     		mov	r4, r0
 474              		.loc 1 240 0
 475 0008 0D46     		mov	r5, r1
 476 000a 9046     		mov	r8, r2
 477 000c 1E46     		mov	r6, r3
 478 000e 089F     		ldr	r7, [sp, #32]
 479              		.loc 1 244 0
 480 0010 08B1     		cbz	r0, .L63
 481              		.loc 1 244 0 is_stmt 0 discriminator 2
 482 0012 0029     		cmp	r1, #0
 483 0014 26D1     		bne	.L83
 484              	.L63:
 485              		.loc 1 244 0 discriminator 1
 486 0016 1848     		ldr	r0, .L85
 487              	.LVL54:
 488 0018 FFF7FEFF 		bl	chDbgPanic
 489              	.LVL55:
 490              	.L64:
 491              		.loc 1 249 0 is_stmt 1
 492 001c 2378     		ldrb	r3, [r4, #0]	@ zero_extendqisi2
 493 001e 022B     		cmp	r3, #2
 494 0020 02D0     		beq	.L65
 495              		.loc 1 249 0 is_stmt 0 discriminator 1
 496 0022 1648     		ldr	r0, .L85+4
 497 0024 FFF7FEFF 		bl	chDbgPanic
 498              	.LVL56:
 499              	.L65:
 500              	.LBB8:
 501              		.loc 1 252 0 is_stmt 1
 502 0028 2023     		movs	r3, #32
 503              	.LVL57:
 504              	@ 252 "/home/formica/chibios/chibios/os/hal/src/i2c.c" 1
 505 002a 83F31188 		msr     BASEPRI, r3
 506              	@ 0 "" 2
 507              	.LVL58:
 508              		.thumb
 509              	.LBE8:
ARM GAS  /tmp/ccx5RMa5.s 			page 10


 510 002e FFF7FEFF 		bl	dbg_check_lock
 511              	.LVL59:
 512              		.loc 1 253 0
 513 0032 0020     		movs	r0, #0
 514              		.loc 1 254 0
 515 0034 0421     		movs	r1, #4
 516              		.loc 1 253 0
 517 0036 A060     		str	r0, [r4, #8]
 518              		.loc 1 254 0
 519 0038 2170     		strb	r1, [r4, #0]
 520              		.loc 1 255 0
 521 003a 4246     		mov	r2, r8
 522 003c 2946     		mov	r1, r5
 523 003e 2046     		mov	r0, r4
 524 0040 0097     		str	r7, [sp, #0]
 525 0042 3346     		mov	r3, r6
 526 0044 FFF7FEFF 		bl	i2c_lld_master_receive_timeout
 527              	.LVL60:
 528              		.loc 1 256 0
 529 0048 421C     		adds	r2, r0, #1
 530              		.loc 1 255 0
 531 004a 0546     		mov	r5, r0
 532              	.LVL61:
 533              		.loc 1 256 0
 534 004c 11D0     		beq	.L84
 535              		.loc 1 259 0
 536 004e 0222     		movs	r2, #2
 537 0050 2270     		strb	r2, [r4, #0]
 538              	.L67:
 539              		.loc 1 260 0
 540 0052 FFF7FEFF 		bl	dbg_check_unlock
 541              	.LVL62:
 542              	.LBB9:
 543 0056 0023     		movs	r3, #0
 544              	.LVL63:
 545              	@ 260 "/home/formica/chibios/chibios/os/hal/src/i2c.c" 1
 546 0058 83F31188 		msr     BASEPRI, r3
 547              	@ 0 "" 2
 548              	.LVL64:
 549              		.thumb
 550              	.LBE9:
 551              		.loc 1 262 0
 552 005c 2846     		mov	r0, r5
 553 005e 02B0     		add	sp, sp, #8
 554 0060 BDE8F081 		pop	{r4, r5, r6, r7, r8, pc}
 555              	.LVL65:
 556              	.L83:
 557              		.loc 1 244 0 discriminator 3
 558 0064 002B     		cmp	r3, #0
 559 0066 D6D0     		beq	.L63
 560              		.loc 1 244 0 is_stmt 0 discriminator 4
 561 0068 002A     		cmp	r2, #0
 562 006a D4D0     		beq	.L63
 563              		.loc 1 244 0 discriminator 5
 564 006c 002F     		cmp	r7, #0
 565 006e D5D1     		bne	.L64
 566 0070 D1E7     		b	.L63
ARM GAS  /tmp/ccx5RMa5.s 			page 11


 567              	.LVL66:
 568              	.L84:
 569              		.loc 1 257 0 is_stmt 1
 570 0072 0523     		movs	r3, #5
 571 0074 2370     		strb	r3, [r4, #0]
 572 0076 ECE7     		b	.L67
 573              	.L86:
 574              		.align	2
 575              	.L85:
 576 0078 90000000 		.word	.LC7
 577 007c AC000000 		.word	.LC8
 578              		.cfi_endproc
 579              	.LFE68:
 580              		.size	i2cMasterReceiveTimeout, .-i2cMasterReceiveTimeout
 581              		.section	.text.i2cAcquireBus,"ax",%progbits
 582              		.align	2
 583              		.p2align 4,,15
 584              		.global	i2cAcquireBus
 585              		.thumb
 586              		.thumb_func
 587              		.type	i2cAcquireBus, %function
 588              	i2cAcquireBus:
 589              	.LFB69:
 590              		.loc 1 276 0
 591              		.cfi_startproc
 592              		@ args = 0, pretend = 0, frame = 0
 593              		@ frame_needed = 0, uses_anonymous_args = 0
 594              	.LVL67:
 595 0000 10B5     		push	{r4, lr}
 596              	.LCFI7:
 597              		.cfi_def_cfa_offset 8
 598              		.cfi_offset 4, -8
 599              		.cfi_offset 14, -4
 600              		.loc 1 278 0
 601 0002 0446     		mov	r4, r0
 602 0004 28B1     		cbz	r0, .L89
 603              	.LVL68:
 604              	.L88:
 605              		.loc 1 281 0
 606 0006 04F10C00 		add	r0, r4, #12
 607              		.loc 1 285 0
 608 000a BDE81040 		pop	{r4, lr}
 609              		.loc 1 281 0
 610 000e FFF7FEBF 		b	chMtxLock
 611              	.LVL69:
 612              	.L89:
 613              		.loc 1 278 0 discriminator 1
 614 0012 0248     		ldr	r0, .L90
 615              	.LVL70:
 616 0014 FFF7FEFF 		bl	chDbgPanic
 617              	.LVL71:
 618 0018 F5E7     		b	.L88
 619              	.L91:
 620 001a 00BF     		.align	2
 621              	.L90:
 622 001c C4000000 		.word	.LC9
 623              		.cfi_endproc
ARM GAS  /tmp/ccx5RMa5.s 			page 12


 624              	.LFE69:
 625              		.size	i2cAcquireBus, .-i2cAcquireBus
 626              		.section	.text.i2cReleaseBus,"ax",%progbits
 627              		.align	2
 628              		.p2align 4,,15
 629              		.global	i2cReleaseBus
 630              		.thumb
 631              		.thumb_func
 632              		.type	i2cReleaseBus, %function
 633              	i2cReleaseBus:
 634              	.LFB70:
 635              		.loc 1 296 0
 636              		.cfi_startproc
 637              		@ args = 0, pretend = 0, frame = 0
 638              		@ frame_needed = 0, uses_anonymous_args = 0
 639              	.LVL72:
 640 0000 08B5     		push	{r3, lr}
 641              	.LCFI8:
 642              		.cfi_def_cfa_offset 8
 643              		.cfi_offset 3, -8
 644              		.cfi_offset 14, -4
 645              		.loc 1 298 0
 646 0002 18B1     		cbz	r0, .L94
 647              	.LVL73:
 648              	.L93:
 649              		.loc 1 305 0
 650 0004 BDE80840 		pop	{r3, lr}
 651              		.loc 1 301 0
 652 0008 FFF7FEBF 		b	chMtxUnlock
 653              	.LVL74:
 654              	.L94:
 655              		.loc 1 298 0 discriminator 1
 656 000c 0148     		ldr	r0, .L95
 657              	.LVL75:
 658 000e FFF7FEFF 		bl	chDbgPanic
 659              	.LVL76:
 660 0012 F7E7     		b	.L93
 661              	.L96:
 662              		.align	2
 663              	.L95:
 664 0014 D8000000 		.word	.LC10
 665              		.cfi_endproc
 666              	.LFE70:
 667              		.size	i2cReleaseBus, .-i2cReleaseBus
 668 0018 AFF30080 		.section	.rodata.str1.4,"aMS",%progbits,1
 668      AFF30080 
 669              		.align	2
 670              	.LC0:
 671 0000 22693263 		.ascii	"\"i2cStart\"()\000"
 671      53746172 
 671      74222829 
 671      00
 672 000d 000000   		.space	3
 673              	.LC1:
 674 0010 69326353 		.ascii	"i2cStart(), #1\000"
 674      74617274 
 674      28292C20 
ARM GAS  /tmp/ccx5RMa5.s 			page 13


 674      233100
 675 001f 00       		.space	1
 676              	.LC2:
 677 0020 22693263 		.ascii	"\"i2cStop\"()\000"
 677      53746F70 
 677      22282900 
 678              	.LC3:
 679 002c 69326353 		.ascii	"i2cStop(), #1\000"
 679      746F7028 
 679      292C2023 
 679      3100
 680 003a 0000     		.space	2
 681              	.LC4:
 682 003c 22693263 		.ascii	"\"i2cGetErrors\"()\000"
 682      47657445 
 682      72726F72 
 682      73222829 
 682      00
 683 004d 000000   		.space	3
 684              	.LC5:
 685 0050 22693263 		.ascii	"\"i2cMasterTransmitTimeout\"()\000"
 685      4D617374 
 685      65725472 
 685      616E736D 
 685      69745469 
 686 006d 000000   		.space	3
 687              	.LC6:
 688 0070 6932634D 		.ascii	"i2cMasterTransmitTimeout(), #1\000"
 688      61737465 
 688      72547261 
 688      6E736D69 
 688      7454696D 
 689 008f 00       		.space	1
 690              	.LC7:
 691 0090 22693263 		.ascii	"\"i2cMasterReceiveTimeout\"()\000"
 691      4D617374 
 691      65725265 
 691      63656976 
 691      6554696D 
 692              	.LC8:
 693 00ac 6932634D 		.ascii	"i2cMasterReceive(), #1\000"
 693      61737465 
 693      72526563 
 693      65697665 
 693      28292C20 
 694 00c3 00       		.space	1
 695              	.LC9:
 696 00c4 22693263 		.ascii	"\"i2cAcquireBus\"()\000"
 696      41637175 
 696      69726542 
 696      75732228 
 696      2900
 697 00d6 0000     		.space	2
 698              	.LC10:
 699 00d8 22693263 		.ascii	"\"i2cReleaseBus\"()\000"
 699      52656C65 
 699      61736542 
ARM GAS  /tmp/ccx5RMa5.s 			page 14


 699      75732228 
 699      2900
 700 00ea 0000     		.text
 701              	.Letext0:
 702              		.file 2 "/home/formica/toolchains/gcc-arm-none-eabi-4_7-2012q4/bin/../lib/gcc/arm-none-eabi/4.7.3/
 703              		.file 3 "/home/formica/toolchains/gcc-arm-none-eabi-4_7-2012q4/bin/../lib/gcc/arm-none-eabi/4.7.3/
 704              		.file 4 "/home/formica/chibios/chibios/os/ports/GCC/ARMCMx/chtypes.h"
 705              		.file 5 "/home/formica/chibios/chibios/os/kernel/include/chlists.h"
 706              		.file 6 "/home/formica/chibios/chibios/os/kernel/include/chthreads.h"
 707              		.file 7 "/home/formica/chibios/chibios/os/ports/GCC/ARMCMx/chcore_v7m.h"
 708              		.file 8 "/home/formica/chibios/chibios/os/kernel/include/chmtx.h"
 709              		.file 9 "/home/formica/chibios/chibios/os/hal/platforms/STM32F1xx/stm32f10x.h"
 710              		.file 10 "/home/formica/chibios/chibios/os/hal/platforms/STM32F1xx/stm32_dma.h"
 711              		.file 11 "/home/formica/chibios/chibios/os/hal/include/i2c.h"
 712              		.file 12 "/home/formica/chibios/chibios/os/hal/platforms/STM32/i2c_lld.h"
 713              		.file 13 "/home/formica/chibios/chibios/os/kernel/include/chdebug.h"
 714              		.file 14 "/home/formica/chibios/chibios/os/ports/common/ARMCMx/CMSIS/include/core_cm3.h"
 715              		.section	.debug_info,"",%progbits
 716              	.Ldebug_info0:
 717 0000 C90D0000 		.4byte	0xdc9
 718 0004 0200     		.2byte	0x2
 719 0006 00000000 		.4byte	.Ldebug_abbrev0
 720 000a 04       		.byte	0x4
 721 000b 01       		.uleb128 0x1
 722 000c 31020000 		.4byte	.LASF137
 723 0010 01       		.byte	0x1
 724 0011 DF010000 		.4byte	.LASF138
 725 0015 00000000 		.4byte	.Ldebug_ranges0+0
 726 0019 00000000 		.4byte	0
 727 001d 00000000 		.4byte	0
 728 0021 00000000 		.4byte	.Ldebug_line0
 729 0025 02       		.uleb128 0x2
 730 0026 04       		.byte	0x4
 731 0027 05       		.byte	0x5
 732 0028 696E7400 		.ascii	"int\000"
 733 002c 03       		.uleb128 0x3
 734 002d 2F000000 		.4byte	.LASF2
 735 0031 02       		.byte	0x2
 736 0032 D5       		.byte	0xd5
 737 0033 37000000 		.4byte	0x37
 738 0037 04       		.uleb128 0x4
 739 0038 04       		.byte	0x4
 740 0039 07       		.byte	0x7
 741 003a 19020000 		.4byte	.LASF0
 742 003e 04       		.uleb128 0x4
 743 003f 01       		.byte	0x1
 744 0040 06       		.byte	0x6
 745 0041 06010000 		.4byte	.LASF1
 746 0045 03       		.uleb128 0x3
 747 0046 90050000 		.4byte	.LASF3
 748 004a 03       		.byte	0x3
 749 004b 2A       		.byte	0x2a
 750 004c 50000000 		.4byte	0x50
 751 0050 04       		.uleb128 0x4
 752 0051 01       		.byte	0x1
 753 0052 08       		.byte	0x8
 754 0053 56040000 		.4byte	.LASF4
ARM GAS  /tmp/ccx5RMa5.s 			page 15


 755 0057 04       		.uleb128 0x4
 756 0058 02       		.byte	0x2
 757 0059 05       		.byte	0x5
 758 005a 08030000 		.4byte	.LASF5
 759 005e 03       		.uleb128 0x3
 760 005f E7020000 		.4byte	.LASF6
 761 0063 03       		.byte	0x3
 762 0064 36       		.byte	0x36
 763 0065 69000000 		.4byte	0x69
 764 0069 04       		.uleb128 0x4
 765 006a 02       		.byte	0x2
 766 006b 07       		.byte	0x7
 767 006c BC020000 		.4byte	.LASF7
 768 0070 03       		.uleb128 0x3
 769 0071 4E040000 		.4byte	.LASF8
 770 0075 03       		.byte	0x3
 771 0076 4F       		.byte	0x4f
 772 0077 7B000000 		.4byte	0x7b
 773 007b 04       		.uleb128 0x4
 774 007c 04       		.byte	0x4
 775 007d 05       		.byte	0x5
 776 007e 5E010000 		.4byte	.LASF9
 777 0082 03       		.uleb128 0x3
 778 0083 F6040000 		.4byte	.LASF10
 779 0087 03       		.byte	0x3
 780 0088 50       		.byte	0x50
 781 0089 8D000000 		.4byte	0x8d
 782 008d 04       		.uleb128 0x4
 783 008e 04       		.byte	0x4
 784 008f 07       		.byte	0x7
 785 0090 0D050000 		.4byte	.LASF11
 786 0094 04       		.uleb128 0x4
 787 0095 08       		.byte	0x8
 788 0096 05       		.byte	0x5
 789 0097 7E010000 		.4byte	.LASF12
 790 009b 03       		.uleb128 0x3
 791 009c 3D000000 		.4byte	.LASF13
 792 00a0 03       		.byte	0x3
 793 00a1 78       		.byte	0x78
 794 00a2 A6000000 		.4byte	0xa6
 795 00a6 04       		.uleb128 0x4
 796 00a7 08       		.byte	0x8
 797 00a8 07       		.byte	0x7
 798 00a9 7A000000 		.4byte	.LASF14
 799 00ad 03       		.uleb128 0x3
 800 00ae DF020000 		.4byte	.LASF15
 801 00b2 04       		.byte	0x4
 802 00b3 2F       		.byte	0x2f
 803 00b4 45000000 		.4byte	0x45
 804 00b8 03       		.uleb128 0x3
 805 00b9 67010000 		.4byte	.LASF16
 806 00bd 04       		.byte	0x4
 807 00be 30       		.byte	0x30
 808 00bf 45000000 		.4byte	0x45
 809 00c3 03       		.uleb128 0x3
 810 00c4 C8030000 		.4byte	.LASF17
 811 00c8 04       		.byte	0x4
ARM GAS  /tmp/ccx5RMa5.s 			page 16


 812 00c9 31       		.byte	0x31
 813 00ca 45000000 		.4byte	0x45
 814 00ce 03       		.uleb128 0x3
 815 00cf 27040000 		.4byte	.LASF18
 816 00d3 04       		.byte	0x4
 817 00d4 32       		.byte	0x32
 818 00d5 82000000 		.4byte	0x82
 819 00d9 03       		.uleb128 0x3
 820 00da D9020000 		.4byte	.LASF19
 821 00de 04       		.byte	0x4
 822 00df 33       		.byte	0x33
 823 00e0 70000000 		.4byte	0x70
 824 00e4 03       		.uleb128 0x3
 825 00e5 FC020000 		.4byte	.LASF20
 826 00e9 04       		.byte	0x4
 827 00ea 35       		.byte	0x35
 828 00eb 82000000 		.4byte	0x82
 829 00ef 03       		.uleb128 0x3
 830 00f0 32050000 		.4byte	.LASF21
 831 00f4 04       		.byte	0x4
 832 00f5 36       		.byte	0x36
 833 00f6 82000000 		.4byte	0x82
 834 00fa 03       		.uleb128 0x3
 835 00fb D8010000 		.4byte	.LASF22
 836 00ff 05       		.byte	0x5
 837 0100 2A       		.byte	0x2a
 838 0101 05010000 		.4byte	0x105
 839 0105 05       		.uleb128 0x5
 840 0106 D8010000 		.4byte	.LASF22
 841 010a 4C       		.byte	0x4c
 842 010b 06       		.byte	0x6
 843 010c 5E       		.byte	0x5e
 844 010d 2A020000 		.4byte	0x22a
 845 0111 06       		.uleb128 0x6
 846 0112 A8040000 		.4byte	.LASF23
 847 0116 06       		.byte	0x6
 848 0117 5F       		.byte	0x5f
 849 0118 4F020000 		.4byte	0x24f
 850 011c 02       		.byte	0x2
 851 011d 23       		.byte	0x23
 852 011e 00       		.uleb128 0
 853 011f 06       		.uleb128 0x6
 854 0120 02040000 		.4byte	.LASF24
 855 0124 06       		.byte	0x6
 856 0125 61       		.byte	0x61
 857 0126 4F020000 		.4byte	0x24f
 858 012a 02       		.byte	0x2
 859 012b 23       		.byte	0x23
 860 012c 04       		.uleb128 0x4
 861 012d 06       		.uleb128 0x6
 862 012e DA000000 		.4byte	.LASF25
 863 0132 06       		.byte	0x6
 864 0133 63       		.byte	0x63
 865 0134 CE000000 		.4byte	0xce
 866 0138 02       		.byte	0x2
 867 0139 23       		.byte	0x23
 868 013a 08       		.uleb128 0x8
ARM GAS  /tmp/ccx5RMa5.s 			page 17


 869 013b 06       		.uleb128 0x6
 870 013c 0C060000 		.4byte	.LASF26
 871 0140 06       		.byte	0x6
 872 0141 64       		.byte	0x64
 873 0142 27030000 		.4byte	0x327
 874 0146 02       		.byte	0x2
 875 0147 23       		.byte	0x23
 876 0148 0C       		.uleb128 0xc
 877 0149 06       		.uleb128 0x6
 878 014a 9D010000 		.4byte	.LASF27
 879 014e 06       		.byte	0x6
 880 014f 66       		.byte	0x66
 881 0150 4F020000 		.4byte	0x24f
 882 0154 02       		.byte	0x2
 883 0155 23       		.byte	0x23
 884 0156 10       		.uleb128 0x10
 885 0157 06       		.uleb128 0x6
 886 0158 78030000 		.4byte	.LASF28
 887 015c 06       		.byte	0x6
 888 015d 67       		.byte	0x67
 889 015e 4F020000 		.4byte	0x24f
 890 0162 02       		.byte	0x2
 891 0163 23       		.byte	0x23
 892 0164 14       		.uleb128 0x14
 893 0165 06       		.uleb128 0x6
 894 0166 C9050000 		.4byte	.LASF29
 895 016a 06       		.byte	0x6
 896 016b 6E       		.byte	0x6e
 897 016c D8030000 		.4byte	0x3d8
 898 0170 02       		.byte	0x2
 899 0171 23       		.byte	0x23
 900 0172 18       		.uleb128 0x18
 901 0173 06       		.uleb128 0x6
 902 0174 0E020000 		.4byte	.LASF30
 903 0178 06       		.byte	0x6
 904 0179 74       		.byte	0x74
 905 017a EA030000 		.4byte	0x3ea
 906 017e 02       		.byte	0x2
 907 017f 23       		.byte	0x23
 908 0180 1C       		.uleb128 0x1c
 909 0181 06       		.uleb128 0x6
 910 0182 8C040000 		.4byte	.LASF31
 911 0186 06       		.byte	0x6
 912 0187 79       		.byte	0x79
 913 0188 B8000000 		.4byte	0xb8
 914 018c 02       		.byte	0x2
 915 018d 23       		.byte	0x23
 916 018e 20       		.uleb128 0x20
 917 018f 06       		.uleb128 0x6
 918 0190 AF040000 		.4byte	.LASF32
 919 0194 06       		.byte	0x6
 920 0195 7D       		.byte	0x7d
 921 0196 AD000000 		.4byte	0xad
 922 019a 02       		.byte	0x2
 923 019b 23       		.byte	0x23
 924 019c 21       		.uleb128 0x21
 925 019d 06       		.uleb128 0x6
ARM GAS  /tmp/ccx5RMa5.s 			page 18


 926 019e 77010000 		.4byte	.LASF33
 927 01a2 06       		.byte	0x6
 928 01a3 82       		.byte	0x82
 929 01a4 C3000000 		.4byte	0xc3
 930 01a8 02       		.byte	0x2
 931 01a9 23       		.byte	0x23
 932 01aa 22       		.uleb128 0x22
 933 01ab 06       		.uleb128 0x6
 934 01ac 96010000 		.4byte	.LASF34
 935 01b0 06       		.byte	0x6
 936 01b1 89       		.byte	0x89
 937 01b2 56030000 		.4byte	0x356
 938 01b6 02       		.byte	0x2
 939 01b7 23       		.byte	0x23
 940 01b8 24       		.uleb128 0x24
 941 01b9 07       		.uleb128 0x7
 942 01ba 705F7500 		.ascii	"p_u\000"
 943 01be 06       		.byte	0x6
 944 01bf AE       		.byte	0xae
 945 01c0 A3030000 		.4byte	0x3a3
 946 01c4 02       		.byte	0x2
 947 01c5 23       		.byte	0x23
 948 01c6 28       		.uleb128 0x28
 949 01c7 06       		.uleb128 0x6
 950 01c8 12060000 		.4byte	.LASF35
 951 01cc 06       		.byte	0x6
 952 01cd B3       		.byte	0xb3
 953 01ce 77020000 		.4byte	0x277
 954 01d2 02       		.byte	0x2
 955 01d3 23       		.byte	0x23
 956 01d4 2C       		.uleb128 0x2c
 957 01d5 06       		.uleb128 0x6
 958 01d6 7A020000 		.4byte	.LASF36
 959 01da 06       		.byte	0x6
 960 01db B9       		.byte	0xb9
 961 01dc 55020000 		.4byte	0x255
 962 01e0 02       		.byte	0x2
 963 01e1 23       		.byte	0x23
 964 01e2 30       		.uleb128 0x30
 965 01e3 06       		.uleb128 0x6
 966 01e4 D8050000 		.4byte	.LASF37
 967 01e8 06       		.byte	0x6
 968 01e9 BD       		.byte	0xbd
 969 01ea D9000000 		.4byte	0xd9
 970 01ee 02       		.byte	0x2
 971 01ef 23       		.byte	0x23
 972 01f0 38       		.uleb128 0x38
 973 01f1 06       		.uleb128 0x6
 974 01f2 DC040000 		.4byte	.LASF38
 975 01f6 06       		.byte	0x6
 976 01f7 C3       		.byte	0xc3
 977 01f8 E4000000 		.4byte	0xe4
 978 01fc 02       		.byte	0x2
 979 01fd 23       		.byte	0x23
 980 01fe 3C       		.uleb128 0x3c
 981 01ff 06       		.uleb128 0x6
 982 0200 77040000 		.4byte	.LASF39
ARM GAS  /tmp/ccx5RMa5.s 			page 19


 983 0204 06       		.byte	0x6
 984 0205 CA       		.byte	0xca
 985 0206 F0030000 		.4byte	0x3f0
 986 020a 02       		.byte	0x2
 987 020b 23       		.byte	0x23
 988 020c 40       		.uleb128 0x40
 989 020d 06       		.uleb128 0x6
 990 020e 3C050000 		.4byte	.LASF40
 991 0212 06       		.byte	0x6
 992 0213 CE       		.byte	0xce
 993 0214 CE000000 		.4byte	0xce
 994 0218 02       		.byte	0x2
 995 0219 23       		.byte	0x23
 996 021a 44       		.uleb128 0x44
 997 021b 06       		.uleb128 0x6
 998 021c 1E010000 		.4byte	.LASF41
 999 0220 06       		.byte	0x6
 1000 0221 D4       		.byte	0xd4
 1001 0222 8D020000 		.4byte	0x28d
 1002 0226 02       		.byte	0x2
 1003 0227 23       		.byte	0x23
 1004 0228 48       		.uleb128 0x48
 1005 0229 00       		.byte	0
 1006 022a 08       		.uleb128 0x8
 1007 022b 08       		.byte	0x8
 1008 022c 05       		.byte	0x5
 1009 022d 61       		.byte	0x61
 1010 022e 4F020000 		.4byte	0x24f
 1011 0232 06       		.uleb128 0x6
 1012 0233 A8040000 		.4byte	.LASF23
 1013 0237 05       		.byte	0x5
 1014 0238 62       		.byte	0x62
 1015 0239 4F020000 		.4byte	0x24f
 1016 023d 02       		.byte	0x2
 1017 023e 23       		.byte	0x23
 1018 023f 00       		.uleb128 0
 1019 0240 06       		.uleb128 0x6
 1020 0241 02040000 		.4byte	.LASF24
 1021 0245 05       		.byte	0x5
 1022 0246 64       		.byte	0x64
 1023 0247 4F020000 		.4byte	0x24f
 1024 024b 02       		.byte	0x2
 1025 024c 23       		.byte	0x23
 1026 024d 04       		.uleb128 0x4
 1027 024e 00       		.byte	0
 1028 024f 09       		.uleb128 0x9
 1029 0250 04       		.byte	0x4
 1030 0251 FA000000 		.4byte	0xfa
 1031 0255 03       		.uleb128 0x3
 1032 0256 90030000 		.4byte	.LASF42
 1033 025a 05       		.byte	0x5
 1034 025b 66       		.byte	0x66
 1035 025c 2A020000 		.4byte	0x22a
 1036 0260 08       		.uleb128 0x8
 1037 0261 04       		.byte	0x4
 1038 0262 05       		.byte	0x5
 1039 0263 6B       		.byte	0x6b
ARM GAS  /tmp/ccx5RMa5.s 			page 20


 1040 0264 77020000 		.4byte	0x277
 1041 0268 06       		.uleb128 0x6
 1042 0269 A8040000 		.4byte	.LASF23
 1043 026d 05       		.byte	0x5
 1044 026e 6D       		.byte	0x6d
 1045 026f 4F020000 		.4byte	0x24f
 1046 0273 02       		.byte	0x2
 1047 0274 23       		.byte	0x23
 1048 0275 00       		.uleb128 0
 1049 0276 00       		.byte	0
 1050 0277 03       		.uleb128 0x3
 1051 0278 F0020000 		.4byte	.LASF43
 1052 027c 05       		.byte	0x5
 1053 027d 70       		.byte	0x70
 1054 027e 60020000 		.4byte	0x260
 1055 0282 03       		.uleb128 0x3
 1056 0283 BD010000 		.4byte	.LASF44
 1057 0287 07       		.byte	0x7
 1058 0288 D7       		.byte	0xd7
 1059 0289 8D020000 		.4byte	0x28d
 1060 028d 0A       		.uleb128 0xa
 1061 028e 04       		.byte	0x4
 1062 028f 03       		.uleb128 0x3
 1063 0290 12030000 		.4byte	.LASF45
 1064 0294 07       		.byte	0x7
 1065 0295 DD       		.byte	0xdd
 1066 0296 9B000000 		.4byte	0x9b
 1067 029a 05       		.uleb128 0x5
 1068 029b 59050000 		.4byte	.LASF46
 1069 029f 24       		.byte	0x24
 1070 02a0 07       		.byte	0x7
 1071 02a1 FE       		.byte	0xfe
 1072 02a2 27030000 		.4byte	0x327
 1073 02a6 0B       		.uleb128 0xb
 1074 02a7 723400   		.ascii	"r4\000"
 1075 02aa 07       		.byte	0x7
 1076 02ab 1101     		.2byte	0x111
 1077 02ad 82020000 		.4byte	0x282
 1078 02b1 02       		.byte	0x2
 1079 02b2 23       		.byte	0x23
 1080 02b3 00       		.uleb128 0
 1081 02b4 0B       		.uleb128 0xb
 1082 02b5 723500   		.ascii	"r5\000"
 1083 02b8 07       		.byte	0x7
 1084 02b9 1201     		.2byte	0x112
 1085 02bb 82020000 		.4byte	0x282
 1086 02bf 02       		.byte	0x2
 1087 02c0 23       		.byte	0x23
 1088 02c1 04       		.uleb128 0x4
 1089 02c2 0B       		.uleb128 0xb
 1090 02c3 723600   		.ascii	"r6\000"
 1091 02c6 07       		.byte	0x7
 1092 02c7 1301     		.2byte	0x113
 1093 02c9 82020000 		.4byte	0x282
 1094 02cd 02       		.byte	0x2
 1095 02ce 23       		.byte	0x23
 1096 02cf 08       		.uleb128 0x8
ARM GAS  /tmp/ccx5RMa5.s 			page 21


 1097 02d0 0B       		.uleb128 0xb
 1098 02d1 723700   		.ascii	"r7\000"
 1099 02d4 07       		.byte	0x7
 1100 02d5 1401     		.2byte	0x114
 1101 02d7 82020000 		.4byte	0x282
 1102 02db 02       		.byte	0x2
 1103 02dc 23       		.byte	0x23
 1104 02dd 0C       		.uleb128 0xc
 1105 02de 0B       		.uleb128 0xb
 1106 02df 723800   		.ascii	"r8\000"
 1107 02e2 07       		.byte	0x7
 1108 02e3 1501     		.2byte	0x115
 1109 02e5 82020000 		.4byte	0x282
 1110 02e9 02       		.byte	0x2
 1111 02ea 23       		.byte	0x23
 1112 02eb 10       		.uleb128 0x10
 1113 02ec 0B       		.uleb128 0xb
 1114 02ed 723900   		.ascii	"r9\000"
 1115 02f0 07       		.byte	0x7
 1116 02f1 1601     		.2byte	0x116
 1117 02f3 82020000 		.4byte	0x282
 1118 02f7 02       		.byte	0x2
 1119 02f8 23       		.byte	0x23
 1120 02f9 14       		.uleb128 0x14
 1121 02fa 0B       		.uleb128 0xb
 1122 02fb 72313000 		.ascii	"r10\000"
 1123 02ff 07       		.byte	0x7
 1124 0300 1701     		.2byte	0x117
 1125 0302 82020000 		.4byte	0x282
 1126 0306 02       		.byte	0x2
 1127 0307 23       		.byte	0x23
 1128 0308 18       		.uleb128 0x18
 1129 0309 0B       		.uleb128 0xb
 1130 030a 72313100 		.ascii	"r11\000"
 1131 030e 07       		.byte	0x7
 1132 030f 1801     		.2byte	0x118
 1133 0311 82020000 		.4byte	0x282
 1134 0315 02       		.byte	0x2
 1135 0316 23       		.byte	0x23
 1136 0317 1C       		.uleb128 0x1c
 1137 0318 0B       		.uleb128 0xb
 1138 0319 6C7200   		.ascii	"lr\000"
 1139 031c 07       		.byte	0x7
 1140 031d 1901     		.2byte	0x119
 1141 031f 82020000 		.4byte	0x282
 1142 0323 02       		.byte	0x2
 1143 0324 23       		.byte	0x23
 1144 0325 20       		.uleb128 0x20
 1145 0326 00       		.byte	0
 1146 0327 0C       		.uleb128 0xc
 1147 0328 51050000 		.4byte	.LASF47
 1148 032c 04       		.byte	0x4
 1149 032d 07       		.byte	0x7
 1150 032e 2301     		.2byte	0x123
 1151 0330 44030000 		.4byte	0x344
 1152 0334 0B       		.uleb128 0xb
 1153 0335 72313300 		.ascii	"r13\000"
ARM GAS  /tmp/ccx5RMa5.s 			page 22


 1154 0339 07       		.byte	0x7
 1155 033a 2401     		.2byte	0x124
 1156 033c 44030000 		.4byte	0x344
 1157 0340 02       		.byte	0x2
 1158 0341 23       		.byte	0x23
 1159 0342 00       		.uleb128 0
 1160 0343 00       		.byte	0
 1161 0344 09       		.uleb128 0x9
 1162 0345 04       		.byte	0x4
 1163 0346 9A020000 		.4byte	0x29a
 1164 034a 0D       		.uleb128 0xd
 1165 034b 82000000 		.4byte	0x82
 1166 034f 04       		.uleb128 0x4
 1167 0350 04       		.byte	0x4
 1168 0351 07       		.byte	0x7
 1169 0352 38030000 		.4byte	.LASF48
 1170 0356 0D       		.uleb128 0xd
 1171 0357 EF000000 		.4byte	0xef
 1172 035b 05       		.uleb128 0x5
 1173 035c 41030000 		.4byte	.LASF49
 1174 0360 10       		.byte	0x10
 1175 0361 08       		.byte	0x8
 1176 0362 2C       		.byte	0x2c
 1177 0363 92030000 		.4byte	0x392
 1178 0367 06       		.uleb128 0x6
 1179 0368 26010000 		.4byte	.LASF50
 1180 036c 08       		.byte	0x8
 1181 036d 2D       		.byte	0x2d
 1182 036e 55020000 		.4byte	0x255
 1183 0372 02       		.byte	0x2
 1184 0373 23       		.byte	0x23
 1185 0374 00       		.uleb128 0
 1186 0375 06       		.uleb128 0x6
 1187 0376 04060000 		.4byte	.LASF51
 1188 037a 08       		.byte	0x8
 1189 037b 2F       		.byte	0x2f
 1190 037c 4F020000 		.4byte	0x24f
 1191 0380 02       		.byte	0x2
 1192 0381 23       		.byte	0x23
 1193 0382 08       		.uleb128 0x8
 1194 0383 06       		.uleb128 0x6
 1195 0384 2B050000 		.4byte	.LASF52
 1196 0388 08       		.byte	0x8
 1197 0389 31       		.byte	0x31
 1198 038a 92030000 		.4byte	0x392
 1199 038e 02       		.byte	0x2
 1200 038f 23       		.byte	0x23
 1201 0390 0C       		.uleb128 0xc
 1202 0391 00       		.byte	0
 1203 0392 09       		.uleb128 0x9
 1204 0393 04       		.byte	0x4
 1205 0394 5B030000 		.4byte	0x35b
 1206 0398 03       		.uleb128 0x3
 1207 0399 41030000 		.4byte	.LASF49
 1208 039d 08       		.byte	0x8
 1209 039e 33       		.byte	0x33
 1210 039f 5B030000 		.4byte	0x35b
ARM GAS  /tmp/ccx5RMa5.s 			page 23


 1211 03a3 0E       		.uleb128 0xe
 1212 03a4 04       		.byte	0x4
 1213 03a5 06       		.byte	0x6
 1214 03a6 90       		.byte	0x90
 1215 03a7 D8030000 		.4byte	0x3d8
 1216 03ab 0F       		.uleb128 0xf
 1217 03ac 36000000 		.4byte	.LASF53
 1218 03b0 06       		.byte	0x6
 1219 03b1 97       		.byte	0x97
 1220 03b2 D9000000 		.4byte	0xd9
 1221 03b6 0F       		.uleb128 0xf
 1222 03b7 9F000000 		.4byte	.LASF54
 1223 03bb 06       		.byte	0x6
 1224 03bc 9E       		.byte	0x9e
 1225 03bd D9000000 		.4byte	0xd9
 1226 03c1 0F       		.uleb128 0xf
 1227 03c2 C2050000 		.4byte	.LASF55
 1228 03c6 06       		.byte	0x6
 1229 03c7 A5       		.byte	0xa5
 1230 03c8 8D020000 		.4byte	0x28d
 1231 03cc 0F       		.uleb128 0xf
 1232 03cd A1040000 		.4byte	.LASF56
 1233 03d1 06       		.byte	0x6
 1234 03d2 AC       		.byte	0xac
 1235 03d3 E4000000 		.4byte	0xe4
 1236 03d7 00       		.byte	0
 1237 03d8 09       		.uleb128 0x9
 1238 03d9 04       		.byte	0x4
 1239 03da DE030000 		.4byte	0x3de
 1240 03de 10       		.uleb128 0x10
 1241 03df E3030000 		.4byte	0x3e3
 1242 03e3 04       		.uleb128 0x4
 1243 03e4 01       		.byte	0x1
 1244 03e5 08       		.byte	0x8
 1245 03e6 1F050000 		.4byte	.LASF57
 1246 03ea 09       		.uleb128 0x9
 1247 03eb 04       		.byte	0x4
 1248 03ec 8F020000 		.4byte	0x28f
 1249 03f0 09       		.uleb128 0x9
 1250 03f1 04       		.byte	0x4
 1251 03f2 98030000 		.4byte	0x398
 1252 03f6 09       		.uleb128 0x9
 1253 03f7 04       		.byte	0x4
 1254 03f8 45000000 		.4byte	0x45
 1255 03fc 09       		.uleb128 0x9
 1256 03fd 04       		.byte	0x4
 1257 03fe 02040000 		.4byte	0x402
 1258 0402 10       		.uleb128 0x10
 1259 0403 45000000 		.4byte	0x45
 1260 0407 0D       		.uleb128 0xd
 1261 0408 5E000000 		.4byte	0x5e
 1262 040c 0D       		.uleb128 0xd
 1263 040d 70000000 		.4byte	0x70
 1264 0411 11       		.uleb128 0x11
 1265 0412 10       		.byte	0x10
 1266 0413 09       		.byte	0x9
 1267 0414 2D03     		.2byte	0x32d
ARM GAS  /tmp/ccx5RMa5.s 			page 24


 1268 0416 57040000 		.4byte	0x457
 1269 041a 0B       		.uleb128 0xb
 1270 041b 43435200 		.ascii	"CCR\000"
 1271 041f 09       		.byte	0x9
 1272 0420 2F03     		.2byte	0x32f
 1273 0422 4A030000 		.4byte	0x34a
 1274 0426 02       		.byte	0x2
 1275 0427 23       		.byte	0x23
 1276 0428 00       		.uleb128 0
 1277 0429 12       		.uleb128 0x12
 1278 042a 85050000 		.4byte	.LASF58
 1279 042e 09       		.byte	0x9
 1280 042f 3003     		.2byte	0x330
 1281 0431 4A030000 		.4byte	0x34a
 1282 0435 02       		.byte	0x2
 1283 0436 23       		.byte	0x23
 1284 0437 04       		.uleb128 0x4
 1285 0438 12       		.uleb128 0x12
 1286 0439 2C020000 		.4byte	.LASF59
 1287 043d 09       		.byte	0x9
 1288 043e 3103     		.2byte	0x331
 1289 0440 4A030000 		.4byte	0x34a
 1290 0444 02       		.byte	0x2
 1291 0445 23       		.byte	0x23
 1292 0446 08       		.uleb128 0x8
 1293 0447 12       		.uleb128 0x12
 1294 0448 8B050000 		.4byte	.LASF60
 1295 044c 09       		.byte	0x9
 1296 044d 3203     		.2byte	0x332
 1297 044f 4A030000 		.4byte	0x34a
 1298 0453 02       		.byte	0x2
 1299 0454 23       		.byte	0x23
 1300 0455 0C       		.uleb128 0xc
 1301 0456 00       		.byte	0
 1302 0457 13       		.uleb128 0x13
 1303 0458 8D020000 		.4byte	.LASF61
 1304 045c 09       		.byte	0x9
 1305 045d 3303     		.2byte	0x333
 1306 045f 11040000 		.4byte	0x411
 1307 0463 11       		.uleb128 0x11
 1308 0464 24       		.byte	0x24
 1309 0465 09       		.byte	0x9
 1310 0466 1304     		.2byte	0x413
 1311 0468 7A050000 		.4byte	0x57a
 1312 046c 0B       		.uleb128 0xb
 1313 046d 43523100 		.ascii	"CR1\000"
 1314 0471 09       		.byte	0x9
 1315 0472 1504     		.2byte	0x415
 1316 0474 07040000 		.4byte	0x407
 1317 0478 02       		.byte	0x2
 1318 0479 23       		.byte	0x23
 1319 047a 00       		.uleb128 0
 1320 047b 12       		.uleb128 0x12
 1321 047c D0030000 		.4byte	.LASF62
 1322 0480 09       		.byte	0x9
 1323 0481 1604     		.2byte	0x416
 1324 0483 5E000000 		.4byte	0x5e
ARM GAS  /tmp/ccx5RMa5.s 			page 25


 1325 0487 02       		.byte	0x2
 1326 0488 23       		.byte	0x23
 1327 0489 02       		.uleb128 0x2
 1328 048a 0B       		.uleb128 0xb
 1329 048b 43523200 		.ascii	"CR2\000"
 1330 048f 09       		.byte	0x9
 1331 0490 1704     		.2byte	0x417
 1332 0492 07040000 		.4byte	0x407
 1333 0496 02       		.byte	0x2
 1334 0497 23       		.byte	0x23
 1335 0498 04       		.uleb128 0x4
 1336 0499 12       		.uleb128 0x12
 1337 049a DA030000 		.4byte	.LASF63
 1338 049e 09       		.byte	0x9
 1339 049f 1804     		.2byte	0x418
 1340 04a1 5E000000 		.4byte	0x5e
 1341 04a5 02       		.byte	0x2
 1342 04a6 23       		.byte	0x23
 1343 04a7 06       		.uleb128 0x6
 1344 04a8 12       		.uleb128 0x12
 1345 04a9 98050000 		.4byte	.LASF64
 1346 04ad 09       		.byte	0x9
 1347 04ae 1904     		.2byte	0x419
 1348 04b0 07040000 		.4byte	0x407
 1349 04b4 02       		.byte	0x2
 1350 04b5 23       		.byte	0x23
 1351 04b6 08       		.uleb128 0x8
 1352 04b7 12       		.uleb128 0x12
 1353 04b8 E4030000 		.4byte	.LASF65
 1354 04bc 09       		.byte	0x9
 1355 04bd 1A04     		.2byte	0x41a
 1356 04bf 5E000000 		.4byte	0x5e
 1357 04c3 02       		.byte	0x2
 1358 04c4 23       		.byte	0x23
 1359 04c5 0A       		.uleb128 0xa
 1360 04c6 12       		.uleb128 0x12
 1361 04c7 9D050000 		.4byte	.LASF66
 1362 04cb 09       		.byte	0x9
 1363 04cc 1B04     		.2byte	0x41b
 1364 04ce 07040000 		.4byte	0x407
 1365 04d2 02       		.byte	0x2
 1366 04d3 23       		.byte	0x23
 1367 04d4 0C       		.uleb128 0xc
 1368 04d5 12       		.uleb128 0x12
 1369 04d6 EE030000 		.4byte	.LASF67
 1370 04da 09       		.byte	0x9
 1371 04db 1C04     		.2byte	0x41c
 1372 04dd 5E000000 		.4byte	0x5e
 1373 04e1 02       		.byte	0x2
 1374 04e2 23       		.byte	0x23
 1375 04e3 0E       		.uleb128 0xe
 1376 04e4 0B       		.uleb128 0xb
 1377 04e5 445200   		.ascii	"DR\000"
 1378 04e8 09       		.byte	0x9
 1379 04e9 1D04     		.2byte	0x41d
 1380 04eb 07040000 		.4byte	0x407
 1381 04ef 02       		.byte	0x2
ARM GAS  /tmp/ccx5RMa5.s 			page 26


 1382 04f0 23       		.byte	0x23
 1383 04f1 10       		.uleb128 0x10
 1384 04f2 12       		.uleb128 0x12
 1385 04f3 F8030000 		.4byte	.LASF68
 1386 04f7 09       		.byte	0x9
 1387 04f8 1E04     		.2byte	0x41e
 1388 04fa 5E000000 		.4byte	0x5e
 1389 04fe 02       		.byte	0x2
 1390 04ff 23       		.byte	0x23
 1391 0500 12       		.uleb128 0x12
 1392 0501 0B       		.uleb128 0xb
 1393 0502 53523100 		.ascii	"SR1\000"
 1394 0506 09       		.byte	0x9
 1395 0507 1F04     		.2byte	0x41f
 1396 0509 07040000 		.4byte	0x407
 1397 050d 02       		.byte	0x2
 1398 050e 23       		.byte	0x23
 1399 050f 14       		.uleb128 0x14
 1400 0510 12       		.uleb128 0x12
 1401 0511 EC040000 		.4byte	.LASF69
 1402 0515 09       		.byte	0x9
 1403 0516 2004     		.2byte	0x420
 1404 0518 5E000000 		.4byte	0x5e
 1405 051c 02       		.byte	0x2
 1406 051d 23       		.byte	0x23
 1407 051e 16       		.uleb128 0x16
 1408 051f 0B       		.uleb128 0xb
 1409 0520 53523200 		.ascii	"SR2\000"
 1410 0524 09       		.byte	0x9
 1411 0525 2104     		.2byte	0x421
 1412 0527 07040000 		.4byte	0x407
 1413 052b 02       		.byte	0x2
 1414 052c 23       		.byte	0x23
 1415 052d 18       		.uleb128 0x18
 1416 052e 12       		.uleb128 0x12
 1417 052f 09040000 		.4byte	.LASF70
 1418 0533 09       		.byte	0x9
 1419 0534 2204     		.2byte	0x422
 1420 0536 5E000000 		.4byte	0x5e
 1421 053a 02       		.byte	0x2
 1422 053b 23       		.byte	0x23
 1423 053c 1A       		.uleb128 0x1a
 1424 053d 0B       		.uleb128 0xb
 1425 053e 43435200 		.ascii	"CCR\000"
 1426 0542 09       		.byte	0x9
 1427 0543 2304     		.2byte	0x423
 1428 0545 07040000 		.4byte	0x407
 1429 0549 02       		.byte	0x2
 1430 054a 23       		.byte	0x23
 1431 054b 1C       		.uleb128 0x1c
 1432 054c 12       		.uleb128 0x12
 1433 054d 13040000 		.4byte	.LASF71
 1434 0551 09       		.byte	0x9
 1435 0552 2404     		.2byte	0x424
 1436 0554 5E000000 		.4byte	0x5e
 1437 0558 02       		.byte	0x2
 1438 0559 23       		.byte	0x23
ARM GAS  /tmp/ccx5RMa5.s 			page 27


 1439 055a 1E       		.uleb128 0x1e
 1440 055b 12       		.uleb128 0x12
 1441 055c 6E000000 		.4byte	.LASF72
 1442 0560 09       		.byte	0x9
 1443 0561 2504     		.2byte	0x425
 1444 0563 07040000 		.4byte	0x407
 1445 0567 02       		.byte	0x2
 1446 0568 23       		.byte	0x23
 1447 0569 20       		.uleb128 0x20
 1448 056a 12       		.uleb128 0x12
 1449 056b 1D040000 		.4byte	.LASF73
 1450 056f 09       		.byte	0x9
 1451 0570 2604     		.2byte	0x426
 1452 0572 5E000000 		.4byte	0x5e
 1453 0576 02       		.byte	0x2
 1454 0577 23       		.byte	0x23
 1455 0578 22       		.uleb128 0x22
 1456 0579 00       		.byte	0
 1457 057a 13       		.uleb128 0x13
 1458 057b DE050000 		.4byte	.LASF74
 1459 057f 09       		.byte	0x9
 1460 0580 2704     		.2byte	0x427
 1461 0582 63040000 		.4byte	0x463
 1462 0586 08       		.uleb128 0x8
 1463 0587 0C       		.byte	0xc
 1464 0588 0A       		.byte	0xa
 1465 0589 C2       		.byte	0xc2
 1466 058a D5050000 		.4byte	0x5d5
 1467 058e 06       		.uleb128 0x6
 1468 058f C9040000 		.4byte	.LASF75
 1469 0593 0A       		.byte	0xa
 1470 0594 C3       		.byte	0xc3
 1471 0595 D5050000 		.4byte	0x5d5
 1472 0599 02       		.byte	0x2
 1473 059a 23       		.byte	0x23
 1474 059b 00       		.uleb128 0
 1475 059c 06       		.uleb128 0x6
 1476 059d E7040000 		.4byte	.LASF76
 1477 05a1 0A       		.byte	0xa
 1478 05a2 C4       		.byte	0xc4
 1479 05a3 DB050000 		.4byte	0x5db
 1480 05a7 02       		.byte	0x2
 1481 05a8 23       		.byte	0x23
 1482 05a9 04       		.uleb128 0x4
 1483 05aa 06       		.uleb128 0x6
 1484 05ab A1020000 		.4byte	.LASF77
 1485 05af 0A       		.byte	0xa
 1486 05b0 C5       		.byte	0xc5
 1487 05b1 45000000 		.4byte	0x45
 1488 05b5 02       		.byte	0x2
 1489 05b6 23       		.byte	0x23
 1490 05b7 08       		.uleb128 0x8
 1491 05b8 06       		.uleb128 0x6
 1492 05b9 C6010000 		.4byte	.LASF78
 1493 05bd 0A       		.byte	0xa
 1494 05be C7       		.byte	0xc7
 1495 05bf 45000000 		.4byte	0x45
ARM GAS  /tmp/ccx5RMa5.s 			page 28


 1496 05c3 02       		.byte	0x2
 1497 05c4 23       		.byte	0x23
 1498 05c5 09       		.uleb128 0x9
 1499 05c6 06       		.uleb128 0x6
 1500 05c7 A8000000 		.4byte	.LASF79
 1501 05cb 0A       		.byte	0xa
 1502 05cc C8       		.byte	0xc8
 1503 05cd 45000000 		.4byte	0x45
 1504 05d1 02       		.byte	0x2
 1505 05d2 23       		.byte	0x23
 1506 05d3 0A       		.uleb128 0xa
 1507 05d4 00       		.byte	0
 1508 05d5 09       		.uleb128 0x9
 1509 05d6 04       		.byte	0x4
 1510 05d7 57040000 		.4byte	0x457
 1511 05db 09       		.uleb128 0x9
 1512 05dc 04       		.byte	0x4
 1513 05dd 4A030000 		.4byte	0x34a
 1514 05e1 03       		.uleb128 0x3
 1515 05e2 64040000 		.4byte	.LASF80
 1516 05e6 0A       		.byte	0xa
 1517 05e7 C9       		.byte	0xc9
 1518 05e8 86050000 		.4byte	0x586
 1519 05ec 14       		.uleb128 0x14
 1520 05ed 01       		.byte	0x1
 1521 05ee 0B       		.byte	0xb
 1522 05ef 5B       		.byte	0x5b
 1523 05f0 19060000 		.4byte	0x619
 1524 05f4 15       		.uleb128 0x15
 1525 05f5 81040000 		.4byte	.LASF81
 1526 05f9 00       		.sleb128 0
 1527 05fa 15       		.uleb128 0x15
 1528 05fb 46000000 		.4byte	.LASF82
 1529 05ff 01       		.sleb128 1
 1530 0600 15       		.uleb128 0x15
 1531 0601 47050000 		.4byte	.LASF83
 1532 0605 02       		.sleb128 2
 1533 0606 15       		.uleb128 0x15
 1534 0607 2F040000 		.4byte	.LASF84
 1535 060b 03       		.sleb128 3
 1536 060c 15       		.uleb128 0x15
 1537 060d FF040000 		.4byte	.LASF85
 1538 0611 04       		.sleb128 4
 1539 0612 15       		.uleb128 0x15
 1540 0613 D1040000 		.4byte	.LASF86
 1541 0617 05       		.sleb128 5
 1542 0618 00       		.byte	0
 1543 0619 03       		.uleb128 0x3
 1544 061a 24000000 		.4byte	.LASF87
 1545 061e 0B       		.byte	0xb
 1546 061f 62       		.byte	0x62
 1547 0620 EC050000 		.4byte	0x5ec
 1548 0624 13       		.uleb128 0x13
 1549 0625 4E010000 		.4byte	.LASF88
 1550 0629 0C       		.byte	0xc
 1551 062a 4001     		.2byte	0x140
 1552 062c 5E000000 		.4byte	0x5e
ARM GAS  /tmp/ccx5RMa5.s 			page 29


 1553 0630 13       		.uleb128 0x13
 1554 0631 3D040000 		.4byte	.LASF89
 1555 0635 0C       		.byte	0xc
 1556 0636 4501     		.2byte	0x145
 1557 0638 82000000 		.4byte	0x82
 1558 063c 16       		.uleb128 0x16
 1559 063d 01       		.byte	0x1
 1560 063e 0C       		.byte	0xc
 1561 063f 4A01     		.2byte	0x14a
 1562 0641 58060000 		.4byte	0x658
 1563 0645 15       		.uleb128 0x15
 1564 0646 9D030000 		.4byte	.LASF90
 1565 064a 01       		.sleb128 1
 1566 064b 15       		.uleb128 0x15
 1567 064c A8020000 		.4byte	.LASF91
 1568 0650 02       		.sleb128 2
 1569 0651 15       		.uleb128 0x15
 1570 0652 AB010000 		.4byte	.LASF92
 1571 0656 03       		.sleb128 3
 1572 0657 00       		.byte	0
 1573 0658 13       		.uleb128 0x13
 1574 0659 EA050000 		.4byte	.LASF93
 1575 065d 0C       		.byte	0xc
 1576 065e 4E01     		.2byte	0x14e
 1577 0660 3C060000 		.4byte	0x63c
 1578 0664 16       		.uleb128 0x16
 1579 0665 01       		.byte	0x1
 1580 0666 0C       		.byte	0xc
 1581 0667 5301     		.2byte	0x153
 1582 0669 80060000 		.4byte	0x680
 1583 066d 15       		.uleb128 0x15
 1584 066e 00000000 		.4byte	.LASF94
 1585 0672 01       		.sleb128 1
 1586 0673 15       		.uleb128 0x15
 1587 0674 B7040000 		.4byte	.LASF95
 1588 0678 02       		.sleb128 2
 1589 0679 15       		.uleb128 0x15
 1590 067a 59030000 		.4byte	.LASF96
 1591 067e 03       		.sleb128 3
 1592 067f 00       		.byte	0
 1593 0680 13       		.uleb128 0x13
 1594 0681 15000000 		.4byte	.LASF97
 1595 0685 0C       		.byte	0xc
 1596 0686 5701     		.2byte	0x157
 1597 0688 64060000 		.4byte	0x664
 1598 068c 11       		.uleb128 0x11
 1599 068d 0C       		.byte	0xc
 1600 068e 0C       		.byte	0xc
 1601 068f 5C01     		.2byte	0x15c
 1602 0691 C3060000 		.4byte	0x6c3
 1603 0695 12       		.uleb128 0x12
 1604 0696 D0010000 		.4byte	.LASF98
 1605 069a 0C       		.byte	0xc
 1606 069b 5D01     		.2byte	0x15d
 1607 069d 58060000 		.4byte	0x658
 1608 06a1 02       		.byte	0x2
 1609 06a2 23       		.byte	0x23
ARM GAS  /tmp/ccx5RMa5.s 			page 30


 1610 06a3 00       		.uleb128 0
 1611 06a4 12       		.uleb128 0x12
 1612 06a5 12010000 		.4byte	.LASF99
 1613 06a9 0C       		.byte	0xc
 1614 06aa 5E01     		.2byte	0x15e
 1615 06ac 82000000 		.4byte	0x82
 1616 06b0 02       		.byte	0x2
 1617 06b1 23       		.byte	0x23
 1618 06b2 04       		.uleb128 0x4
 1619 06b3 12       		.uleb128 0x12
 1620 06b4 4E030000 		.4byte	.LASF100
 1621 06b8 0C       		.byte	0xc
 1622 06b9 6101     		.2byte	0x161
 1623 06bb 80060000 		.4byte	0x680
 1624 06bf 02       		.byte	0x2
 1625 06c0 23       		.byte	0x23
 1626 06c1 08       		.uleb128 0x8
 1627 06c2 00       		.byte	0
 1628 06c3 13       		.uleb128 0x13
 1629 06c4 8C010000 		.4byte	.LASF101
 1630 06c8 0C       		.byte	0xc
 1631 06c9 6301     		.2byte	0x163
 1632 06cb 8C060000 		.4byte	0x68c
 1633 06cf 13       		.uleb128 0x13
 1634 06d0 CF020000 		.4byte	.LASF102
 1635 06d4 0C       		.byte	0xc
 1636 06d5 6801     		.2byte	0x168
 1637 06d7 DB060000 		.4byte	0x6db
 1638 06db 0C       		.uleb128 0xc
 1639 06dc CF020000 		.4byte	.LASF102
 1640 06e0 34       		.byte	0x34
 1641 06e1 0C       		.byte	0xc
 1642 06e2 6D01     		.2byte	0x16d
 1643 06e4 7F070000 		.4byte	0x77f
 1644 06e8 12       		.uleb128 0x12
 1645 06e9 58010000 		.4byte	.LASF103
 1646 06ed 0C       		.byte	0xc
 1647 06ee 7101     		.2byte	0x171
 1648 06f0 19060000 		.4byte	0x619
 1649 06f4 02       		.byte	0x2
 1650 06f5 23       		.byte	0x23
 1651 06f6 00       		.uleb128 0
 1652 06f7 12       		.uleb128 0x12
 1653 06f8 24050000 		.4byte	.LASF104
 1654 06fc 0C       		.byte	0xc
 1655 06fd 7501     		.2byte	0x175
 1656 06ff 7F070000 		.4byte	0x77f
 1657 0703 02       		.byte	0x2
 1658 0704 23       		.byte	0x23
 1659 0705 04       		.uleb128 0x4
 1660 0706 12       		.uleb128 0x12
 1661 0707 47030000 		.4byte	.LASF105
 1662 070b 0C       		.byte	0xc
 1663 070c 7901     		.2byte	0x179
 1664 070e 30060000 		.4byte	0x630
 1665 0712 02       		.byte	0x2
 1666 0713 23       		.byte	0x23
ARM GAS  /tmp/ccx5RMa5.s 			page 31


 1667 0714 08       		.uleb128 0x8
 1668 0715 12       		.uleb128 0x12
 1669 0716 48040000 		.4byte	.LASF106
 1670 071a 0C       		.byte	0xc
 1671 071b 7F01     		.2byte	0x17f
 1672 071d 98030000 		.4byte	0x398
 1673 0721 02       		.byte	0x2
 1674 0722 23       		.byte	0x23
 1675 0723 0C       		.uleb128 0xc
 1676 0724 12       		.uleb128 0x12
 1677 0725 70010000 		.4byte	.LASF107
 1678 0729 0C       		.byte	0xc
 1679 072a 8B01     		.2byte	0x18b
 1680 072c 4F020000 		.4byte	0x24f
 1681 0730 02       		.byte	0x2
 1682 0731 23       		.byte	0x23
 1683 0732 1C       		.uleb128 0x1c
 1684 0733 12       		.uleb128 0x12
 1685 0734 91000000 		.4byte	.LASF108
 1686 0738 0C       		.byte	0xc
 1687 0739 8F01     		.2byte	0x18f
 1688 073b 24060000 		.4byte	0x624
 1689 073f 02       		.byte	0x2
 1690 0740 23       		.byte	0x23
 1691 0741 20       		.uleb128 0x20
 1692 0742 12       		.uleb128 0x12
 1693 0743 BA050000 		.4byte	.LASF109
 1694 0747 0C       		.byte	0xc
 1695 0748 9301     		.2byte	0x193
 1696 074a 82000000 		.4byte	0x82
 1697 074e 02       		.byte	0x2
 1698 074f 23       		.byte	0x23
 1699 0750 24       		.uleb128 0x24
 1700 0751 12       		.uleb128 0x12
 1701 0752 0F000000 		.4byte	.LASF110
 1702 0756 0C       		.byte	0xc
 1703 0757 9701     		.2byte	0x197
 1704 0759 8A070000 		.4byte	0x78a
 1705 075d 02       		.byte	0x2
 1706 075e 23       		.byte	0x23
 1707 075f 28       		.uleb128 0x28
 1708 0760 12       		.uleb128 0x12
 1709 0761 A5010000 		.4byte	.LASF111
 1710 0765 0C       		.byte	0xc
 1711 0766 9B01     		.2byte	0x19b
 1712 0768 8A070000 		.4byte	0x78a
 1713 076c 02       		.byte	0x2
 1714 076d 23       		.byte	0x23
 1715 076e 2C       		.uleb128 0x2c
 1716 076f 0B       		.uleb128 0xb
 1717 0770 69326300 		.ascii	"i2c\000"
 1718 0774 0C       		.byte	0xc
 1719 0775 9F01     		.2byte	0x19f
 1720 0777 95070000 		.4byte	0x795
 1721 077b 02       		.byte	0x2
 1722 077c 23       		.byte	0x23
 1723 077d 30       		.uleb128 0x30
ARM GAS  /tmp/ccx5RMa5.s 			page 32


 1724 077e 00       		.byte	0
 1725 077f 09       		.uleb128 0x9
 1726 0780 04       		.byte	0x4
 1727 0781 85070000 		.4byte	0x785
 1728 0785 10       		.uleb128 0x10
 1729 0786 C3060000 		.4byte	0x6c3
 1730 078a 09       		.uleb128 0x9
 1731 078b 04       		.byte	0x4
 1732 078c 90070000 		.4byte	0x790
 1733 0790 10       		.uleb128 0x10
 1734 0791 E1050000 		.4byte	0x5e1
 1735 0795 09       		.uleb128 0x9
 1736 0796 04       		.byte	0x4
 1737 0797 7A050000 		.4byte	0x57a
 1738 079b 17       		.uleb128 0x17
 1739 079c 01       		.byte	0x1
 1740 079d D0050000 		.4byte	.LASF112
 1741 07a1 01       		.byte	0x1
 1742 07a2 47       		.byte	0x47
 1743 07a3 01       		.byte	0x1
 1744 07a4 00000000 		.4byte	.LFB62
 1745 07a8 04000000 		.4byte	.LFE62
 1746 07ac 02       		.byte	0x2
 1747 07ad 7D       		.byte	0x7d
 1748 07ae 00       		.sleb128 0
 1749 07af 01       		.byte	0x1
 1750 07b0 BF070000 		.4byte	0x7bf
 1751 07b4 18       		.uleb128 0x18
 1752 07b5 04000000 		.4byte	.LVL0
 1753 07b9 01       		.byte	0x1
 1754 07ba CF0C0000 		.4byte	0xccf
 1755 07be 00       		.byte	0
 1756 07bf 17       		.uleb128 0x17
 1757 07c0 01       		.byte	0x1
 1758 07c1 F6050000 		.4byte	.LASF113
 1759 07c5 01       		.byte	0x1
 1760 07c6 52       		.byte	0x52
 1761 07c7 01       		.byte	0x1
 1762 07c8 00000000 		.4byte	.LFB63
 1763 07cc 0E000000 		.4byte	.LFE63
 1764 07d0 02       		.byte	0x2
 1765 07d1 7D       		.byte	0x7d
 1766 07d2 00       		.sleb128 0
 1767 07d3 01       		.byte	0x1
 1768 07d4 FC070000 		.4byte	0x7fc
 1769 07d8 19       		.uleb128 0x19
 1770 07d9 D5000000 		.4byte	.LASF115
 1771 07dd 01       		.byte	0x1
 1772 07de 52       		.byte	0x52
 1773 07df FC070000 		.4byte	0x7fc
 1774 07e3 00000000 		.4byte	.LLST0
 1775 07e7 1A       		.uleb128 0x1a
 1776 07e8 0E000000 		.4byte	.LVL3
 1777 07ec 01       		.byte	0x1
 1778 07ed DA0C0000 		.4byte	0xcda
 1779 07f1 1B       		.uleb128 0x1b
 1780 07f2 01       		.byte	0x1
ARM GAS  /tmp/ccx5RMa5.s 			page 33


 1781 07f3 50       		.byte	0x50
 1782 07f4 05       		.byte	0x5
 1783 07f5 F3       		.byte	0xf3
 1784 07f6 01       		.uleb128 0x1
 1785 07f7 50       		.byte	0x50
 1786 07f8 23       		.byte	0x23
 1787 07f9 0C       		.uleb128 0xc
 1788 07fa 00       		.byte	0
 1789 07fb 00       		.byte	0
 1790 07fc 09       		.uleb128 0x9
 1791 07fd 04       		.byte	0x4
 1792 07fe CF060000 		.4byte	0x6cf
 1793 0802 1C       		.uleb128 0x1c
 1794 0803 01       		.byte	0x1
 1795 0804 96000000 		.4byte	.LASF114
 1796 0808 01       		.byte	0x1
 1797 0809 6C       		.byte	0x6c
 1798 080a 01       		.byte	0x1
 1799 080b 00000000 		.4byte	.LFB64
 1800 080f 50000000 		.4byte	.LFE64
 1801 0813 2E000000 		.4byte	.LLST1
 1802 0817 01       		.byte	0x1
 1803 0818 C5080000 		.4byte	0x8c5
 1804 081c 19       		.uleb128 0x19
 1805 081d D5000000 		.4byte	.LASF115
 1806 0821 01       		.byte	0x1
 1807 0822 6C       		.byte	0x6c
 1808 0823 FC070000 		.4byte	0x7fc
 1809 0827 4E000000 		.4byte	.LLST2
 1810 082b 19       		.uleb128 0x19
 1811 082c 24050000 		.4byte	.LASF104
 1812 0830 01       		.byte	0x1
 1813 0831 6C       		.byte	0x6c
 1814 0832 7F070000 		.4byte	0x77f
 1815 0836 82000000 		.4byte	.LLST3
 1816 083a 1D       		.uleb128 0x1d
 1817 083b 1C000000 		.4byte	.LBB2
 1818 083f 22000000 		.4byte	.LBE2
 1819 0843 57080000 		.4byte	0x857
 1820 0847 1E       		.uleb128 0x1e
 1821 0848 746D7000 		.ascii	"tmp\000"
 1822 084c 01       		.byte	0x1
 1823 084d 74       		.byte	0x74
 1824 084e 82000000 		.4byte	0x82
 1825 0852 B6000000 		.4byte	.LLST4
 1826 0856 00       		.byte	0
 1827 0857 1D       		.uleb128 0x1d
 1828 0858 36000000 		.4byte	.LBB3
 1829 085c 3E000000 		.4byte	.LBE3
 1830 0860 74080000 		.4byte	0x874
 1831 0864 1E       		.uleb128 0x1e
 1832 0865 746D7000 		.ascii	"tmp\000"
 1833 0869 01       		.byte	0x1
 1834 086a 78       		.byte	0x78
 1835 086b 82000000 		.4byte	0x82
 1836 086f C9000000 		.4byte	.LLST5
 1837 0873 00       		.byte	0
ARM GAS  /tmp/ccx5RMa5.s 			page 34


 1838 0874 1F       		.uleb128 0x1f
 1839 0875 1C000000 		.4byte	.LVL6
 1840 0879 EE0C0000 		.4byte	0xcee
 1841 087d 8B080000 		.4byte	0x88b
 1842 0881 1B       		.uleb128 0x1b
 1843 0882 01       		.byte	0x1
 1844 0883 50       		.byte	0x50
 1845 0884 05       		.byte	0x5
 1846 0885 03       		.byte	0x3
 1847 0886 10000000 		.4byte	.LC1
 1848 088a 00       		.byte	0
 1849 088b 20       		.uleb128 0x20
 1850 088c 26000000 		.4byte	.LVL9
 1851 0890 080D0000 		.4byte	0xd08
 1852 0894 1F       		.uleb128 0x1f
 1853 0895 2E000000 		.4byte	.LVL10
 1854 0899 120D0000 		.4byte	0xd12
 1855 089d A8080000 		.4byte	0x8a8
 1856 08a1 1B       		.uleb128 0x1b
 1857 08a2 01       		.byte	0x1
 1858 08a3 50       		.byte	0x50
 1859 08a4 02       		.byte	0x2
 1860 08a5 74       		.byte	0x74
 1861 08a6 00       		.sleb128 0
 1862 08a7 00       		.byte	0
 1863 08a8 20       		.uleb128 0x20
 1864 08a9 36000000 		.4byte	.LVL11
 1865 08ad 270D0000 		.4byte	0xd27
 1866 08b1 21       		.uleb128 0x21
 1867 08b2 44000000 		.4byte	.LVL16
 1868 08b6 EE0C0000 		.4byte	0xcee
 1869 08ba 1B       		.uleb128 0x1b
 1870 08bb 01       		.byte	0x1
 1871 08bc 50       		.byte	0x50
 1872 08bd 05       		.byte	0x5
 1873 08be 03       		.byte	0x3
 1874 08bf 00000000 		.4byte	.LC0
 1875 08c3 00       		.byte	0
 1876 08c4 00       		.byte	0
 1877 08c5 1C       		.uleb128 0x1c
 1878 08c6 01       		.byte	0x1
 1879 08c7 88030000 		.4byte	.LASF116
 1880 08cb 01       		.byte	0x1
 1881 08cc 82       		.byte	0x82
 1882 08cd 01       		.byte	0x1
 1883 08ce 00000000 		.4byte	.LFB65
 1884 08d2 48000000 		.4byte	.LFE65
 1885 08d6 DC000000 		.4byte	.LLST6
 1886 08da 01       		.byte	0x1
 1887 08db 79090000 		.4byte	0x979
 1888 08df 19       		.uleb128 0x19
 1889 08e0 D5000000 		.4byte	.LASF115
 1890 08e4 01       		.byte	0x1
 1891 08e5 82       		.byte	0x82
 1892 08e6 FC070000 		.4byte	0x7fc
 1893 08ea FC000000 		.4byte	.LLST7
 1894 08ee 1D       		.uleb128 0x1d
ARM GAS  /tmp/ccx5RMa5.s 			page 35


 1895 08ef 18000000 		.4byte	.LBB4
 1896 08f3 1E000000 		.4byte	.LBE4
 1897 08f7 0B090000 		.4byte	0x90b
 1898 08fb 1E       		.uleb128 0x1e
 1899 08fc 746D7000 		.ascii	"tmp\000"
 1900 0900 01       		.byte	0x1
 1901 0901 8A       		.byte	0x8a
 1902 0902 82000000 		.4byte	0x82
 1903 0906 30010000 		.4byte	.LLST8
 1904 090a 00       		.byte	0
 1905 090b 1D       		.uleb128 0x1d
 1906 090c 30000000 		.4byte	.LBB5
 1907 0910 38000000 		.4byte	.LBE5
 1908 0914 28090000 		.4byte	0x928
 1909 0918 1E       		.uleb128 0x1e
 1910 0919 746D7000 		.ascii	"tmp\000"
 1911 091d 01       		.byte	0x1
 1912 091e 8D       		.byte	0x8d
 1913 091f 82000000 		.4byte	0x82
 1914 0923 43010000 		.4byte	.LLST9
 1915 0927 00       		.byte	0
 1916 0928 1F       		.uleb128 0x1f
 1917 0929 18000000 		.4byte	.LVL19
 1918 092d EE0C0000 		.4byte	0xcee
 1919 0931 3F090000 		.4byte	0x93f
 1920 0935 1B       		.uleb128 0x1b
 1921 0936 01       		.byte	0x1
 1922 0937 50       		.byte	0x50
 1923 0938 05       		.byte	0x5
 1924 0939 03       		.byte	0x3
 1925 093a 2C000000 		.4byte	.LC3
 1926 093e 00       		.byte	0
 1927 093f 20       		.uleb128 0x20
 1928 0940 22000000 		.4byte	.LVL22
 1929 0944 080D0000 		.4byte	0xd08
 1930 0948 1F       		.uleb128 0x1f
 1931 0949 28000000 		.4byte	.LVL23
 1932 094d 310D0000 		.4byte	0xd31
 1933 0951 5C090000 		.4byte	0x95c
 1934 0955 1B       		.uleb128 0x1b
 1935 0956 01       		.byte	0x1
 1936 0957 50       		.byte	0x50
 1937 0958 02       		.byte	0x2
 1938 0959 74       		.byte	0x74
 1939 095a 00       		.sleb128 0
 1940 095b 00       		.byte	0
 1941 095c 20       		.uleb128 0x20
 1942 095d 30000000 		.4byte	.LVL24
 1943 0961 270D0000 		.4byte	0xd27
 1944 0965 21       		.uleb128 0x21
 1945 0966 3E000000 		.4byte	.LVL29
 1946 096a EE0C0000 		.4byte	0xcee
 1947 096e 1B       		.uleb128 0x1b
 1948 096f 01       		.byte	0x1
 1949 0970 50       		.byte	0x50
 1950 0971 05       		.byte	0x5
 1951 0972 03       		.byte	0x3
ARM GAS  /tmp/ccx5RMa5.s 			page 36


 1952 0973 20000000 		.4byte	.LC2
 1953 0977 00       		.byte	0
 1954 0978 00       		.byte	0
 1955 0979 22       		.uleb128 0x22
 1956 097a 01       		.byte	0x1
 1957 097b 94040000 		.4byte	.LASF117
 1958 097f 01       		.byte	0x1
 1959 0980 98       		.byte	0x98
 1960 0981 01       		.byte	0x1
 1961 0982 30060000 		.4byte	0x630
 1962 0986 00000000 		.4byte	.LFB66
 1963 098a 18000000 		.4byte	.LFE66
 1964 098e 56010000 		.4byte	.LLST10
 1965 0992 01       		.byte	0x1
 1966 0993 BA090000 		.4byte	0x9ba
 1967 0997 19       		.uleb128 0x19
 1968 0998 D5000000 		.4byte	.LASF115
 1969 099c 01       		.byte	0x1
 1970 099d 98       		.byte	0x98
 1971 099e FC070000 		.4byte	0x7fc
 1972 09a2 76010000 		.4byte	.LLST11
 1973 09a6 21       		.uleb128 0x21
 1974 09a7 10000000 		.4byte	.LVL34
 1975 09ab EE0C0000 		.4byte	0xcee
 1976 09af 1B       		.uleb128 0x1b
 1977 09b0 01       		.byte	0x1
 1978 09b1 50       		.byte	0x50
 1979 09b2 05       		.byte	0x5
 1980 09b3 03       		.byte	0x3
 1981 09b4 3C000000 		.4byte	.LC4
 1982 09b8 00       		.byte	0
 1983 09b9 00       		.byte	0
 1984 09ba 22       		.uleb128 0x22
 1985 09bb 01       		.byte	0x1
 1986 09bc E1000000 		.4byte	.LASF118
 1987 09c0 01       		.byte	0x1
 1988 09c1 B9       		.byte	0xb9
 1989 09c2 01       		.byte	0x1
 1990 09c3 D9000000 		.4byte	0xd9
 1991 09c7 00000000 		.4byte	.LFB67
 1992 09cb 90000000 		.4byte	.LFE67
 1993 09cf AA010000 		.4byte	.LLST12
 1994 09d3 01       		.byte	0x1
 1995 09d4 040B0000 		.4byte	0xb04
 1996 09d8 19       		.uleb128 0x19
 1997 09d9 D5000000 		.4byte	.LASF115
 1998 09dd 01       		.byte	0x1
 1999 09de B9       		.byte	0xb9
 2000 09df FC070000 		.4byte	0x7fc
 2001 09e3 D6010000 		.4byte	.LLST13
 2002 09e7 19       		.uleb128 0x19
 2003 09e8 91000000 		.4byte	.LASF108
 2004 09ec 01       		.byte	0x1
 2005 09ed BA       		.byte	0xba
 2006 09ee 24060000 		.4byte	0x624
 2007 09f2 0A020000 		.4byte	.LLST14
 2008 09f6 19       		.uleb128 0x19
ARM GAS  /tmp/ccx5RMa5.s 			page 37


 2009 09f7 26020000 		.4byte	.LASF119
 2010 09fb 01       		.byte	0x1
 2011 09fc BB       		.byte	0xbb
 2012 09fd FC030000 		.4byte	0x3fc
 2013 0a01 44020000 		.4byte	.LLST15
 2014 0a05 19       		.uleb128 0x19
 2015 0a06 1C060000 		.4byte	.LASF120
 2016 0a0a 01       		.byte	0x1
 2017 0a0b BC       		.byte	0xbc
 2018 0a0c 2C000000 		.4byte	0x2c
 2019 0a10 78020000 		.4byte	.LLST16
 2020 0a14 23       		.uleb128 0x23
 2021 0a15 74000000 		.4byte	.LASF121
 2022 0a19 01       		.byte	0x1
 2023 0a1a BD       		.byte	0xbd
 2024 0a1b F6030000 		.4byte	0x3f6
 2025 0a1f 02       		.byte	0x2
 2026 0a20 91       		.byte	0x91
 2027 0a21 00       		.sleb128 0
 2028 0a22 23       		.uleb128 0x23
 2029 0a23 80030000 		.4byte	.LASF122
 2030 0a27 01       		.byte	0x1
 2031 0a28 BE       		.byte	0xbe
 2032 0a29 2C000000 		.4byte	0x2c
 2033 0a2d 02       		.byte	0x2
 2034 0a2e 91       		.byte	0x91
 2035 0a2f 04       		.sleb128 4
 2036 0a30 23       		.uleb128 0x23
 2037 0a31 85020000 		.4byte	.LASF123
 2038 0a35 01       		.byte	0x1
 2039 0a36 BF       		.byte	0xbf
 2040 0a37 EF000000 		.4byte	0xef
 2041 0a3b 02       		.byte	0x2
 2042 0a3c 91       		.byte	0x91
 2043 0a3d 08       		.sleb128 8
 2044 0a3e 24       		.uleb128 0x24
 2045 0a3f 36000000 		.4byte	.LASF53
 2046 0a43 01       		.byte	0x1
 2047 0a44 C0       		.byte	0xc0
 2048 0a45 D9000000 		.4byte	0xd9
 2049 0a49 AC020000 		.4byte	.LLST17
 2050 0a4d 1D       		.uleb128 0x1d
 2051 0a4e 2A000000 		.4byte	.LBB6
 2052 0a52 30000000 		.4byte	.LBE6
 2053 0a56 6A0A0000 		.4byte	0xa6a
 2054 0a5a 1E       		.uleb128 0x1e
 2055 0a5b 746D7000 		.ascii	"tmp\000"
 2056 0a5f 01       		.byte	0x1
 2057 0a60 CB       		.byte	0xcb
 2058 0a61 82000000 		.4byte	0x82
 2059 0a65 E0020000 		.4byte	.LLST18
 2060 0a69 00       		.byte	0
 2061 0a6a 1D       		.uleb128 0x1d
 2062 0a6b 5C000000 		.4byte	.LBB7
 2063 0a6f 62000000 		.4byte	.LBE7
 2064 0a73 870A0000 		.4byte	0xa87
 2065 0a77 1E       		.uleb128 0x1e
ARM GAS  /tmp/ccx5RMa5.s 			page 38


 2066 0a78 746D7000 		.ascii	"tmp\000"
 2067 0a7c 01       		.byte	0x1
 2068 0a7d D4       		.byte	0xd4
 2069 0a7e 82000000 		.4byte	0x82
 2070 0a82 F3020000 		.4byte	.LLST19
 2071 0a86 00       		.byte	0
 2072 0a87 1F       		.uleb128 0x1f
 2073 0a88 1E000000 		.4byte	.LVL38
 2074 0a8c EE0C0000 		.4byte	0xcee
 2075 0a90 9E0A0000 		.4byte	0xa9e
 2076 0a94 1B       		.uleb128 0x1b
 2077 0a95 01       		.byte	0x1
 2078 0a96 50       		.byte	0x50
 2079 0a97 05       		.byte	0x5
 2080 0a98 03       		.byte	0x3
 2081 0a99 50000000 		.4byte	.LC5
 2082 0a9d 00       		.byte	0
 2083 0a9e 1F       		.uleb128 0x1f
 2084 0a9f 2A000000 		.4byte	.LVL39
 2085 0aa3 EE0C0000 		.4byte	0xcee
 2086 0aa7 B50A0000 		.4byte	0xab5
 2087 0aab 1B       		.uleb128 0x1b
 2088 0aac 01       		.byte	0x1
 2089 0aad 50       		.byte	0x50
 2090 0aae 05       		.byte	0x5
 2091 0aaf 03       		.byte	0x3
 2092 0ab0 70000000 		.4byte	.LC6
 2093 0ab4 00       		.byte	0
 2094 0ab5 20       		.uleb128 0x20
 2095 0ab6 34000000 		.4byte	.LVL42
 2096 0aba 080D0000 		.4byte	0xd08
 2097 0abe 1F       		.uleb128 0x1f
 2098 0abf 4E000000 		.4byte	.LVL43
 2099 0ac3 460D0000 		.4byte	0xd46
 2100 0ac7 FA0A0000 		.4byte	0xafa
 2101 0acb 1B       		.uleb128 0x1b
 2102 0acc 01       		.byte	0x1
 2103 0acd 53       		.byte	0x53
 2104 0ace 02       		.byte	0x2
 2105 0acf 79       		.byte	0x79
 2106 0ad0 00       		.sleb128 0
 2107 0ad1 1B       		.uleb128 0x1b
 2108 0ad2 01       		.byte	0x1
 2109 0ad3 52       		.byte	0x52
 2110 0ad4 02       		.byte	0x2
 2111 0ad5 7A       		.byte	0x7a
 2112 0ad6 00       		.sleb128 0
 2113 0ad7 1B       		.uleb128 0x1b
 2114 0ad8 01       		.byte	0x1
 2115 0ad9 51       		.byte	0x51
 2116 0ada 02       		.byte	0x2
 2117 0adb 77       		.byte	0x77
 2118 0adc 00       		.sleb128 0
 2119 0add 1B       		.uleb128 0x1b
 2120 0ade 01       		.byte	0x1
 2121 0adf 50       		.byte	0x50
 2122 0ae0 02       		.byte	0x2
ARM GAS  /tmp/ccx5RMa5.s 			page 39


 2123 0ae1 74       		.byte	0x74
 2124 0ae2 00       		.sleb128 0
 2125 0ae3 1B       		.uleb128 0x1b
 2126 0ae4 02       		.byte	0x2
 2127 0ae5 7D       		.byte	0x7d
 2128 0ae6 08       		.sleb128 8
 2129 0ae7 02       		.byte	0x2
 2130 0ae8 76       		.byte	0x76
 2131 0ae9 00       		.sleb128 0
 2132 0aea 1B       		.uleb128 0x1b
 2133 0aeb 02       		.byte	0x2
 2134 0aec 7D       		.byte	0x7d
 2135 0aed 04       		.sleb128 4
 2136 0aee 02       		.byte	0x2
 2137 0aef 75       		.byte	0x75
 2138 0af0 00       		.sleb128 0
 2139 0af1 1B       		.uleb128 0x1b
 2140 0af2 02       		.byte	0x2
 2141 0af3 7D       		.byte	0x7d
 2142 0af4 00       		.sleb128 0
 2143 0af5 03       		.byte	0x3
 2144 0af6 91       		.byte	0x91
 2145 0af7 00       		.sleb128 0
 2146 0af8 06       		.byte	0x6
 2147 0af9 00       		.byte	0
 2148 0afa 20       		.uleb128 0x20
 2149 0afb 5C000000 		.4byte	.LVL46
 2150 0aff 270D0000 		.4byte	0xd27
 2151 0b03 00       		.byte	0
 2152 0b04 22       		.uleb128 0x22
 2153 0b05 01       		.byte	0x1
 2154 0b06 A2050000 		.4byte	.LASF124
 2155 0b0a 01       		.byte	0x1
 2156 0b0b EC       		.byte	0xec
 2157 0b0c 01       		.byte	0x1
 2158 0b0d D9000000 		.4byte	0xd9
 2159 0b11 00000000 		.4byte	.LFB68
 2160 0b15 80000000 		.4byte	.LFE68
 2161 0b19 06030000 		.4byte	.LLST20
 2162 0b1d 01       		.byte	0x1
 2163 0b1e 240C0000 		.4byte	0xc24
 2164 0b22 19       		.uleb128 0x19
 2165 0b23 D5000000 		.4byte	.LASF115
 2166 0b27 01       		.byte	0x1
 2167 0b28 EC       		.byte	0xec
 2168 0b29 FC070000 		.4byte	0x7fc
 2169 0b2d 32030000 		.4byte	.LLST21
 2170 0b31 19       		.uleb128 0x19
 2171 0b32 91000000 		.4byte	.LASF108
 2172 0b36 01       		.byte	0x1
 2173 0b37 ED       		.byte	0xed
 2174 0b38 24060000 		.4byte	0x624
 2175 0b3c 66030000 		.4byte	.LLST22
 2176 0b40 19       		.uleb128 0x19
 2177 0b41 74000000 		.4byte	.LASF121
 2178 0b45 01       		.byte	0x1
 2179 0b46 EE       		.byte	0xee
ARM GAS  /tmp/ccx5RMa5.s 			page 40


 2180 0b47 F6030000 		.4byte	0x3f6
 2181 0b4b A0030000 		.4byte	.LLST23
 2182 0b4f 19       		.uleb128 0x19
 2183 0b50 80030000 		.4byte	.LASF122
 2184 0b54 01       		.byte	0x1
 2185 0b55 EF       		.byte	0xef
 2186 0b56 2C000000 		.4byte	0x2c
 2187 0b5a D4030000 		.4byte	.LLST24
 2188 0b5e 23       		.uleb128 0x23
 2189 0b5f 85020000 		.4byte	.LASF123
 2190 0b63 01       		.byte	0x1
 2191 0b64 F0       		.byte	0xf0
 2192 0b65 EF000000 		.4byte	0xef
 2193 0b69 02       		.byte	0x2
 2194 0b6a 91       		.byte	0x91
 2195 0b6b 00       		.sleb128 0
 2196 0b6c 24       		.uleb128 0x24
 2197 0b6d 36000000 		.4byte	.LASF53
 2198 0b71 01       		.byte	0x1
 2199 0b72 F2       		.byte	0xf2
 2200 0b73 D9000000 		.4byte	0xd9
 2201 0b77 08040000 		.4byte	.LLST25
 2202 0b7b 1D       		.uleb128 0x1d
 2203 0b7c 28000000 		.4byte	.LBB8
 2204 0b80 2E000000 		.4byte	.LBE8
 2205 0b84 980B0000 		.4byte	0xb98
 2206 0b88 1E       		.uleb128 0x1e
 2207 0b89 746D7000 		.ascii	"tmp\000"
 2208 0b8d 01       		.byte	0x1
 2209 0b8e FC       		.byte	0xfc
 2210 0b8f 82000000 		.4byte	0x82
 2211 0b93 31040000 		.4byte	.LLST26
 2212 0b97 00       		.byte	0
 2213 0b98 1D       		.uleb128 0x1d
 2214 0b99 56000000 		.4byte	.LBB9
 2215 0b9d 5C000000 		.4byte	.LBE9
 2216 0ba1 B60B0000 		.4byte	0xbb6
 2217 0ba5 25       		.uleb128 0x25
 2218 0ba6 746D7000 		.ascii	"tmp\000"
 2219 0baa 01       		.byte	0x1
 2220 0bab 0401     		.2byte	0x104
 2221 0bad 82000000 		.4byte	0x82
 2222 0bb1 44040000 		.4byte	.LLST27
 2223 0bb5 00       		.byte	0
 2224 0bb6 1F       		.uleb128 0x1f
 2225 0bb7 1C000000 		.4byte	.LVL55
 2226 0bbb EE0C0000 		.4byte	0xcee
 2227 0bbf CD0B0000 		.4byte	0xbcd
 2228 0bc3 1B       		.uleb128 0x1b
 2229 0bc4 01       		.byte	0x1
 2230 0bc5 50       		.byte	0x50
 2231 0bc6 05       		.byte	0x5
 2232 0bc7 03       		.byte	0x3
 2233 0bc8 90000000 		.4byte	.LC7
 2234 0bcc 00       		.byte	0
 2235 0bcd 1F       		.uleb128 0x1f
 2236 0bce 28000000 		.4byte	.LVL56
ARM GAS  /tmp/ccx5RMa5.s 			page 41


 2237 0bd2 EE0C0000 		.4byte	0xcee
 2238 0bd6 E40B0000 		.4byte	0xbe4
 2239 0bda 1B       		.uleb128 0x1b
 2240 0bdb 01       		.byte	0x1
 2241 0bdc 50       		.byte	0x50
 2242 0bdd 05       		.byte	0x5
 2243 0bde 03       		.byte	0x3
 2244 0bdf AC000000 		.4byte	.LC8
 2245 0be3 00       		.byte	0
 2246 0be4 20       		.uleb128 0x20
 2247 0be5 32000000 		.4byte	.LVL59
 2248 0be9 080D0000 		.4byte	0xd08
 2249 0bed 1F       		.uleb128 0x1f
 2250 0bee 48000000 		.4byte	.LVL60
 2251 0bf2 7D0D0000 		.4byte	0xd7d
 2252 0bf6 1A0C0000 		.4byte	0xc1a
 2253 0bfa 1B       		.uleb128 0x1b
 2254 0bfb 01       		.byte	0x1
 2255 0bfc 53       		.byte	0x53
 2256 0bfd 02       		.byte	0x2
 2257 0bfe 76       		.byte	0x76
 2258 0bff 00       		.sleb128 0
 2259 0c00 1B       		.uleb128 0x1b
 2260 0c01 01       		.byte	0x1
 2261 0c02 52       		.byte	0x52
 2262 0c03 02       		.byte	0x2
 2263 0c04 78       		.byte	0x78
 2264 0c05 00       		.sleb128 0
 2265 0c06 1B       		.uleb128 0x1b
 2266 0c07 01       		.byte	0x1
 2267 0c08 51       		.byte	0x51
 2268 0c09 02       		.byte	0x2
 2269 0c0a 75       		.byte	0x75
 2270 0c0b 00       		.sleb128 0
 2271 0c0c 1B       		.uleb128 0x1b
 2272 0c0d 01       		.byte	0x1
 2273 0c0e 50       		.byte	0x50
 2274 0c0f 02       		.byte	0x2
 2275 0c10 74       		.byte	0x74
 2276 0c11 00       		.sleb128 0
 2277 0c12 1B       		.uleb128 0x1b
 2278 0c13 02       		.byte	0x2
 2279 0c14 7D       		.byte	0x7d
 2280 0c15 00       		.sleb128 0
 2281 0c16 02       		.byte	0x2
 2282 0c17 77       		.byte	0x77
 2283 0c18 00       		.sleb128 0
 2284 0c19 00       		.byte	0
 2285 0c1a 20       		.uleb128 0x20
 2286 0c1b 56000000 		.4byte	.LVL62
 2287 0c1f 270D0000 		.4byte	0xd27
 2288 0c23 00       		.byte	0
 2289 0c24 26       		.uleb128 0x26
 2290 0c25 01       		.byte	0x1
 2291 0c26 77050000 		.4byte	.LASF125
 2292 0c2a 01       		.byte	0x1
 2293 0c2b 1401     		.2byte	0x114
ARM GAS  /tmp/ccx5RMa5.s 			page 42


 2294 0c2d 01       		.byte	0x1
 2295 0c2e 00000000 		.4byte	.LFB69
 2296 0c32 20000000 		.4byte	.LFE69
 2297 0c36 57040000 		.4byte	.LLST28
 2298 0c3a 01       		.byte	0x1
 2299 0c3b 780C0000 		.4byte	0xc78
 2300 0c3f 27       		.uleb128 0x27
 2301 0c40 D5000000 		.4byte	.LASF115
 2302 0c44 01       		.byte	0x1
 2303 0c45 1401     		.2byte	0x114
 2304 0c47 FC070000 		.4byte	0x7fc
 2305 0c4b 77040000 		.4byte	.LLST29
 2306 0c4f 28       		.uleb128 0x28
 2307 0c50 12000000 		.4byte	.LVL69
 2308 0c54 01       		.byte	0x1
 2309 0c55 AA0D0000 		.4byte	0xdaa
 2310 0c59 640C0000 		.4byte	0xc64
 2311 0c5d 1B       		.uleb128 0x1b
 2312 0c5e 01       		.byte	0x1
 2313 0c5f 50       		.byte	0x50
 2314 0c60 02       		.byte	0x2
 2315 0c61 74       		.byte	0x74
 2316 0c62 0C       		.sleb128 12
 2317 0c63 00       		.byte	0
 2318 0c64 21       		.uleb128 0x21
 2319 0c65 18000000 		.4byte	.LVL71
 2320 0c69 EE0C0000 		.4byte	0xcee
 2321 0c6d 1B       		.uleb128 0x1b
 2322 0c6e 01       		.byte	0x1
 2323 0c6f 50       		.byte	0x50
 2324 0c70 05       		.byte	0x5
 2325 0c71 03       		.byte	0x3
 2326 0c72 C4000000 		.4byte	.LC9
 2327 0c76 00       		.byte	0
 2328 0c77 00       		.byte	0
 2329 0c78 26       		.uleb128 0x26
 2330 0c79 01       		.byte	0x1
 2331 0c7a AF000000 		.4byte	.LASF126
 2332 0c7e 01       		.byte	0x1
 2333 0c7f 2801     		.2byte	0x128
 2334 0c81 01       		.byte	0x1
 2335 0c82 00000000 		.4byte	.LFB70
 2336 0c86 18000000 		.4byte	.LFE70
 2337 0c8a AB040000 		.4byte	.LLST30
 2338 0c8e 01       		.byte	0x1
 2339 0c8f C10C0000 		.4byte	0xcc1
 2340 0c93 27       		.uleb128 0x27
 2341 0c94 D5000000 		.4byte	.LASF115
 2342 0c98 01       		.byte	0x1
 2343 0c99 2801     		.2byte	0x128
 2344 0c9b FC070000 		.4byte	0x7fc
 2345 0c9f CB040000 		.4byte	.LLST31
 2346 0ca3 18       		.uleb128 0x18
 2347 0ca4 0C000000 		.4byte	.LVL74
 2348 0ca8 01       		.byte	0x1
 2349 0ca9 BE0D0000 		.4byte	0xdbe
 2350 0cad 21       		.uleb128 0x21
ARM GAS  /tmp/ccx5RMa5.s 			page 43


 2351 0cae 12000000 		.4byte	.LVL76
 2352 0cb2 EE0C0000 		.4byte	0xcee
 2353 0cb6 1B       		.uleb128 0x1b
 2354 0cb7 01       		.byte	0x1
 2355 0cb8 50       		.byte	0x50
 2356 0cb9 05       		.byte	0x5
 2357 0cba 03       		.byte	0x3
 2358 0cbb D8000000 		.4byte	.LC10
 2359 0cbf 00       		.byte	0
 2360 0cc0 00       		.byte	0
 2361 0cc1 29       		.uleb128 0x29
 2362 0cc2 C8000000 		.4byte	.LASF139
 2363 0cc6 0E       		.byte	0xe
 2364 0cc7 9404     		.2byte	0x494
 2365 0cc9 0C040000 		.4byte	0x40c
 2366 0ccd 01       		.byte	0x1
 2367 0cce 01       		.byte	0x1
 2368 0ccf 2A       		.uleb128 0x2a
 2369 0cd0 01       		.byte	0x1
 2370 0cd1 6A050000 		.4byte	.LASF129
 2371 0cd5 0C       		.byte	0xc
 2372 0cd6 C401     		.2byte	0x1c4
 2373 0cd8 01       		.byte	0x1
 2374 0cd9 01       		.byte	0x1
 2375 0cda 2B       		.uleb128 0x2b
 2376 0cdb 01       		.byte	0x1
 2377 0cdc 60050000 		.4byte	.LASF127
 2378 0ce0 08       		.byte	0x8
 2379 0ce1 38       		.byte	0x38
 2380 0ce2 01       		.byte	0x1
 2381 0ce3 01       		.byte	0x1
 2382 0ce4 EE0C0000 		.4byte	0xcee
 2383 0ce8 2C       		.uleb128 0x2c
 2384 0ce9 F0030000 		.4byte	0x3f0
 2385 0ced 00       		.byte	0
 2386 0cee 2B       		.uleb128 0x2b
 2387 0cef 01       		.byte	0x1
 2388 0cf0 BD000000 		.4byte	.LASF128
 2389 0cf4 0D       		.byte	0xd
 2390 0cf5 F0       		.byte	0xf0
 2391 0cf6 01       		.byte	0x1
 2392 0cf7 01       		.byte	0x1
 2393 0cf8 020D0000 		.4byte	0xd02
 2394 0cfc 2C       		.uleb128 0x2c
 2395 0cfd 020D0000 		.4byte	0xd02
 2396 0d01 00       		.byte	0
 2397 0d02 09       		.uleb128 0x9
 2398 0d03 04       		.byte	0x4
 2399 0d04 E3030000 		.4byte	0x3e3
 2400 0d08 2D       		.uleb128 0x2d
 2401 0d09 01       		.byte	0x1
 2402 0d0a A8030000 		.4byte	.LASF130
 2403 0d0e 0D       		.byte	0xd
 2404 0d0f E2       		.byte	0xe2
 2405 0d10 01       		.byte	0x1
 2406 0d11 01       		.byte	0x1
 2407 0d12 2E       		.uleb128 0x2e
ARM GAS  /tmp/ccx5RMa5.s 			page 44


 2408 0d13 01       		.byte	0x1
 2409 0d14 2A030000 		.4byte	.LASF131
 2410 0d18 0C       		.byte	0xc
 2411 0d19 C501     		.2byte	0x1c5
 2412 0d1b 01       		.byte	0x1
 2413 0d1c 01       		.byte	0x1
 2414 0d1d 270D0000 		.4byte	0xd27
 2415 0d21 2C       		.uleb128 0x2c
 2416 0d22 FC070000 		.4byte	0x7fc
 2417 0d26 00       		.byte	0
 2418 0d27 2D       		.uleb128 0x2d
 2419 0d28 01       		.byte	0x1
 2420 0d29 B7030000 		.4byte	.LASF132
 2421 0d2d 0D       		.byte	0xd
 2422 0d2e E3       		.byte	0xe3
 2423 0d2f 01       		.byte	0x1
 2424 0d30 01       		.byte	0x1
 2425 0d31 2E       		.uleb128 0x2e
 2426 0d32 01       		.byte	0x1
 2427 0d33 1D030000 		.4byte	.LASF133
 2428 0d37 0C       		.byte	0xc
 2429 0d38 C601     		.2byte	0x1c6
 2430 0d3a 01       		.byte	0x1
 2431 0d3b 01       		.byte	0x1
 2432 0d3c 460D0000 		.4byte	0xd46
 2433 0d40 2C       		.uleb128 0x2c
 2434 0d41 FC070000 		.4byte	0x7fc
 2435 0d45 00       		.byte	0
 2436 0d46 2F       		.uleb128 0x2f
 2437 0d47 01       		.byte	0x1
 2438 0d48 2E010000 		.4byte	.LASF134
 2439 0d4c 0C       		.byte	0xc
 2440 0d4d C701     		.2byte	0x1c7
 2441 0d4f 01       		.byte	0x1
 2442 0d50 D9000000 		.4byte	0xd9
 2443 0d54 01       		.byte	0x1
 2444 0d55 7D0D0000 		.4byte	0xd7d
 2445 0d59 2C       		.uleb128 0x2c
 2446 0d5a FC070000 		.4byte	0x7fc
 2447 0d5e 2C       		.uleb128 0x2c
 2448 0d5f 24060000 		.4byte	0x624
 2449 0d63 2C       		.uleb128 0x2c
 2450 0d64 FC030000 		.4byte	0x3fc
 2451 0d68 2C       		.uleb128 0x2c
 2452 0d69 2C000000 		.4byte	0x2c
 2453 0d6d 2C       		.uleb128 0x2c
 2454 0d6e F6030000 		.4byte	0x3f6
 2455 0d72 2C       		.uleb128 0x2c
 2456 0d73 2C000000 		.4byte	0x2c
 2457 0d77 2C       		.uleb128 0x2c
 2458 0d78 EF000000 		.4byte	0xef
 2459 0d7c 00       		.byte	0
 2460 0d7d 2F       		.uleb128 0x2f
 2461 0d7e 01       		.byte	0x1
 2462 0d7f 4F000000 		.4byte	.LASF135
 2463 0d83 0C       		.byte	0xc
 2464 0d84 CB01     		.2byte	0x1cb
ARM GAS  /tmp/ccx5RMa5.s 			page 45


 2465 0d86 01       		.byte	0x1
 2466 0d87 D9000000 		.4byte	0xd9
 2467 0d8b 01       		.byte	0x1
 2468 0d8c AA0D0000 		.4byte	0xdaa
 2469 0d90 2C       		.uleb128 0x2c
 2470 0d91 FC070000 		.4byte	0x7fc
 2471 0d95 2C       		.uleb128 0x2c
 2472 0d96 24060000 		.4byte	0x624
 2473 0d9a 2C       		.uleb128 0x2c
 2474 0d9b F6030000 		.4byte	0x3f6
 2475 0d9f 2C       		.uleb128 0x2c
 2476 0da0 2C000000 		.4byte	0x2c
 2477 0da4 2C       		.uleb128 0x2c
 2478 0da5 EF000000 		.4byte	0xef
 2479 0da9 00       		.byte	0
 2480 0daa 2B       		.uleb128 0x2b
 2481 0dab 01       		.byte	0x1
 2482 0dac 6E030000 		.4byte	.LASF136
 2483 0db0 08       		.byte	0x8
 2484 0db1 39       		.byte	0x39
 2485 0db2 01       		.byte	0x1
 2486 0db3 01       		.byte	0x1
 2487 0db4 BE0D0000 		.4byte	0xdbe
 2488 0db8 2C       		.uleb128 0x2c
 2489 0db9 F0030000 		.4byte	0x3f0
 2490 0dbd 00       		.byte	0
 2491 0dbe 30       		.uleb128 0x30
 2492 0dbf 01       		.byte	0x1
 2493 0dc0 FA000000 		.4byte	.LASF140
 2494 0dc4 08       		.byte	0x8
 2495 0dc5 3D       		.byte	0x3d
 2496 0dc6 01       		.byte	0x1
 2497 0dc7 F0030000 		.4byte	0x3f0
 2498 0dcb 01       		.byte	0x1
 2499 0dcc 00       		.byte	0
 2500              		.section	.debug_abbrev,"",%progbits
 2501              	.Ldebug_abbrev0:
 2502 0000 01       		.uleb128 0x1
 2503 0001 11       		.uleb128 0x11
 2504 0002 01       		.byte	0x1
 2505 0003 25       		.uleb128 0x25
 2506 0004 0E       		.uleb128 0xe
 2507 0005 13       		.uleb128 0x13
 2508 0006 0B       		.uleb128 0xb
 2509 0007 03       		.uleb128 0x3
 2510 0008 0E       		.uleb128 0xe
 2511 0009 55       		.uleb128 0x55
 2512 000a 06       		.uleb128 0x6
 2513 000b 11       		.uleb128 0x11
 2514 000c 01       		.uleb128 0x1
 2515 000d 52       		.uleb128 0x52
 2516 000e 01       		.uleb128 0x1
 2517 000f 10       		.uleb128 0x10
 2518 0010 06       		.uleb128 0x6
 2519 0011 00       		.byte	0
 2520 0012 00       		.byte	0
 2521 0013 02       		.uleb128 0x2
ARM GAS  /tmp/ccx5RMa5.s 			page 46


 2522 0014 24       		.uleb128 0x24
 2523 0015 00       		.byte	0
 2524 0016 0B       		.uleb128 0xb
 2525 0017 0B       		.uleb128 0xb
 2526 0018 3E       		.uleb128 0x3e
 2527 0019 0B       		.uleb128 0xb
 2528 001a 03       		.uleb128 0x3
 2529 001b 08       		.uleb128 0x8
 2530 001c 00       		.byte	0
 2531 001d 00       		.byte	0
 2532 001e 03       		.uleb128 0x3
 2533 001f 16       		.uleb128 0x16
 2534 0020 00       		.byte	0
 2535 0021 03       		.uleb128 0x3
 2536 0022 0E       		.uleb128 0xe
 2537 0023 3A       		.uleb128 0x3a
 2538 0024 0B       		.uleb128 0xb
 2539 0025 3B       		.uleb128 0x3b
 2540 0026 0B       		.uleb128 0xb
 2541 0027 49       		.uleb128 0x49
 2542 0028 13       		.uleb128 0x13
 2543 0029 00       		.byte	0
 2544 002a 00       		.byte	0
 2545 002b 04       		.uleb128 0x4
 2546 002c 24       		.uleb128 0x24
 2547 002d 00       		.byte	0
 2548 002e 0B       		.uleb128 0xb
 2549 002f 0B       		.uleb128 0xb
 2550 0030 3E       		.uleb128 0x3e
 2551 0031 0B       		.uleb128 0xb
 2552 0032 03       		.uleb128 0x3
 2553 0033 0E       		.uleb128 0xe
 2554 0034 00       		.byte	0
 2555 0035 00       		.byte	0
 2556 0036 05       		.uleb128 0x5
 2557 0037 13       		.uleb128 0x13
 2558 0038 01       		.byte	0x1
 2559 0039 03       		.uleb128 0x3
 2560 003a 0E       		.uleb128 0xe
 2561 003b 0B       		.uleb128 0xb
 2562 003c 0B       		.uleb128 0xb
 2563 003d 3A       		.uleb128 0x3a
 2564 003e 0B       		.uleb128 0xb
 2565 003f 3B       		.uleb128 0x3b
 2566 0040 0B       		.uleb128 0xb
 2567 0041 01       		.uleb128 0x1
 2568 0042 13       		.uleb128 0x13
 2569 0043 00       		.byte	0
 2570 0044 00       		.byte	0
 2571 0045 06       		.uleb128 0x6
 2572 0046 0D       		.uleb128 0xd
 2573 0047 00       		.byte	0
 2574 0048 03       		.uleb128 0x3
 2575 0049 0E       		.uleb128 0xe
 2576 004a 3A       		.uleb128 0x3a
 2577 004b 0B       		.uleb128 0xb
 2578 004c 3B       		.uleb128 0x3b
ARM GAS  /tmp/ccx5RMa5.s 			page 47


 2579 004d 0B       		.uleb128 0xb
 2580 004e 49       		.uleb128 0x49
 2581 004f 13       		.uleb128 0x13
 2582 0050 38       		.uleb128 0x38
 2583 0051 0A       		.uleb128 0xa
 2584 0052 00       		.byte	0
 2585 0053 00       		.byte	0
 2586 0054 07       		.uleb128 0x7
 2587 0055 0D       		.uleb128 0xd
 2588 0056 00       		.byte	0
 2589 0057 03       		.uleb128 0x3
 2590 0058 08       		.uleb128 0x8
 2591 0059 3A       		.uleb128 0x3a
 2592 005a 0B       		.uleb128 0xb
 2593 005b 3B       		.uleb128 0x3b
 2594 005c 0B       		.uleb128 0xb
 2595 005d 49       		.uleb128 0x49
 2596 005e 13       		.uleb128 0x13
 2597 005f 38       		.uleb128 0x38
 2598 0060 0A       		.uleb128 0xa
 2599 0061 00       		.byte	0
 2600 0062 00       		.byte	0
 2601 0063 08       		.uleb128 0x8
 2602 0064 13       		.uleb128 0x13
 2603 0065 01       		.byte	0x1
 2604 0066 0B       		.uleb128 0xb
 2605 0067 0B       		.uleb128 0xb
 2606 0068 3A       		.uleb128 0x3a
 2607 0069 0B       		.uleb128 0xb
 2608 006a 3B       		.uleb128 0x3b
 2609 006b 0B       		.uleb128 0xb
 2610 006c 01       		.uleb128 0x1
 2611 006d 13       		.uleb128 0x13
 2612 006e 00       		.byte	0
 2613 006f 00       		.byte	0
 2614 0070 09       		.uleb128 0x9
 2615 0071 0F       		.uleb128 0xf
 2616 0072 00       		.byte	0
 2617 0073 0B       		.uleb128 0xb
 2618 0074 0B       		.uleb128 0xb
 2619 0075 49       		.uleb128 0x49
 2620 0076 13       		.uleb128 0x13
 2621 0077 00       		.byte	0
 2622 0078 00       		.byte	0
 2623 0079 0A       		.uleb128 0xa
 2624 007a 0F       		.uleb128 0xf
 2625 007b 00       		.byte	0
 2626 007c 0B       		.uleb128 0xb
 2627 007d 0B       		.uleb128 0xb
 2628 007e 00       		.byte	0
 2629 007f 00       		.byte	0
 2630 0080 0B       		.uleb128 0xb
 2631 0081 0D       		.uleb128 0xd
 2632 0082 00       		.byte	0
 2633 0083 03       		.uleb128 0x3
 2634 0084 08       		.uleb128 0x8
 2635 0085 3A       		.uleb128 0x3a
ARM GAS  /tmp/ccx5RMa5.s 			page 48


 2636 0086 0B       		.uleb128 0xb
 2637 0087 3B       		.uleb128 0x3b
 2638 0088 05       		.uleb128 0x5
 2639 0089 49       		.uleb128 0x49
 2640 008a 13       		.uleb128 0x13
 2641 008b 38       		.uleb128 0x38
 2642 008c 0A       		.uleb128 0xa
 2643 008d 00       		.byte	0
 2644 008e 00       		.byte	0
 2645 008f 0C       		.uleb128 0xc
 2646 0090 13       		.uleb128 0x13
 2647 0091 01       		.byte	0x1
 2648 0092 03       		.uleb128 0x3
 2649 0093 0E       		.uleb128 0xe
 2650 0094 0B       		.uleb128 0xb
 2651 0095 0B       		.uleb128 0xb
 2652 0096 3A       		.uleb128 0x3a
 2653 0097 0B       		.uleb128 0xb
 2654 0098 3B       		.uleb128 0x3b
 2655 0099 05       		.uleb128 0x5
 2656 009a 01       		.uleb128 0x1
 2657 009b 13       		.uleb128 0x13
 2658 009c 00       		.byte	0
 2659 009d 00       		.byte	0
 2660 009e 0D       		.uleb128 0xd
 2661 009f 35       		.uleb128 0x35
 2662 00a0 00       		.byte	0
 2663 00a1 49       		.uleb128 0x49
 2664 00a2 13       		.uleb128 0x13
 2665 00a3 00       		.byte	0
 2666 00a4 00       		.byte	0
 2667 00a5 0E       		.uleb128 0xe
 2668 00a6 17       		.uleb128 0x17
 2669 00a7 01       		.byte	0x1
 2670 00a8 0B       		.uleb128 0xb
 2671 00a9 0B       		.uleb128 0xb
 2672 00aa 3A       		.uleb128 0x3a
 2673 00ab 0B       		.uleb128 0xb
 2674 00ac 3B       		.uleb128 0x3b
 2675 00ad 0B       		.uleb128 0xb
 2676 00ae 01       		.uleb128 0x1
 2677 00af 13       		.uleb128 0x13
 2678 00b0 00       		.byte	0
 2679 00b1 00       		.byte	0
 2680 00b2 0F       		.uleb128 0xf
 2681 00b3 0D       		.uleb128 0xd
 2682 00b4 00       		.byte	0
 2683 00b5 03       		.uleb128 0x3
 2684 00b6 0E       		.uleb128 0xe
 2685 00b7 3A       		.uleb128 0x3a
 2686 00b8 0B       		.uleb128 0xb
 2687 00b9 3B       		.uleb128 0x3b
 2688 00ba 0B       		.uleb128 0xb
 2689 00bb 49       		.uleb128 0x49
 2690 00bc 13       		.uleb128 0x13
 2691 00bd 00       		.byte	0
 2692 00be 00       		.byte	0
ARM GAS  /tmp/ccx5RMa5.s 			page 49


 2693 00bf 10       		.uleb128 0x10
 2694 00c0 26       		.uleb128 0x26
 2695 00c1 00       		.byte	0
 2696 00c2 49       		.uleb128 0x49
 2697 00c3 13       		.uleb128 0x13
 2698 00c4 00       		.byte	0
 2699 00c5 00       		.byte	0
 2700 00c6 11       		.uleb128 0x11
 2701 00c7 13       		.uleb128 0x13
 2702 00c8 01       		.byte	0x1
 2703 00c9 0B       		.uleb128 0xb
 2704 00ca 0B       		.uleb128 0xb
 2705 00cb 3A       		.uleb128 0x3a
 2706 00cc 0B       		.uleb128 0xb
 2707 00cd 3B       		.uleb128 0x3b
 2708 00ce 05       		.uleb128 0x5
 2709 00cf 01       		.uleb128 0x1
 2710 00d0 13       		.uleb128 0x13
 2711 00d1 00       		.byte	0
 2712 00d2 00       		.byte	0
 2713 00d3 12       		.uleb128 0x12
 2714 00d4 0D       		.uleb128 0xd
 2715 00d5 00       		.byte	0
 2716 00d6 03       		.uleb128 0x3
 2717 00d7 0E       		.uleb128 0xe
 2718 00d8 3A       		.uleb128 0x3a
 2719 00d9 0B       		.uleb128 0xb
 2720 00da 3B       		.uleb128 0x3b
 2721 00db 05       		.uleb128 0x5
 2722 00dc 49       		.uleb128 0x49
 2723 00dd 13       		.uleb128 0x13
 2724 00de 38       		.uleb128 0x38
 2725 00df 0A       		.uleb128 0xa
 2726 00e0 00       		.byte	0
 2727 00e1 00       		.byte	0
 2728 00e2 13       		.uleb128 0x13
 2729 00e3 16       		.uleb128 0x16
 2730 00e4 00       		.byte	0
 2731 00e5 03       		.uleb128 0x3
 2732 00e6 0E       		.uleb128 0xe
 2733 00e7 3A       		.uleb128 0x3a
 2734 00e8 0B       		.uleb128 0xb
 2735 00e9 3B       		.uleb128 0x3b
 2736 00ea 05       		.uleb128 0x5
 2737 00eb 49       		.uleb128 0x49
 2738 00ec 13       		.uleb128 0x13
 2739 00ed 00       		.byte	0
 2740 00ee 00       		.byte	0
 2741 00ef 14       		.uleb128 0x14
 2742 00f0 04       		.uleb128 0x4
 2743 00f1 01       		.byte	0x1
 2744 00f2 0B       		.uleb128 0xb
 2745 00f3 0B       		.uleb128 0xb
 2746 00f4 3A       		.uleb128 0x3a
 2747 00f5 0B       		.uleb128 0xb
 2748 00f6 3B       		.uleb128 0x3b
 2749 00f7 0B       		.uleb128 0xb
ARM GAS  /tmp/ccx5RMa5.s 			page 50


 2750 00f8 01       		.uleb128 0x1
 2751 00f9 13       		.uleb128 0x13
 2752 00fa 00       		.byte	0
 2753 00fb 00       		.byte	0
 2754 00fc 15       		.uleb128 0x15
 2755 00fd 28       		.uleb128 0x28
 2756 00fe 00       		.byte	0
 2757 00ff 03       		.uleb128 0x3
 2758 0100 0E       		.uleb128 0xe
 2759 0101 1C       		.uleb128 0x1c
 2760 0102 0D       		.uleb128 0xd
 2761 0103 00       		.byte	0
 2762 0104 00       		.byte	0
 2763 0105 16       		.uleb128 0x16
 2764 0106 04       		.uleb128 0x4
 2765 0107 01       		.byte	0x1
 2766 0108 0B       		.uleb128 0xb
 2767 0109 0B       		.uleb128 0xb
 2768 010a 3A       		.uleb128 0x3a
 2769 010b 0B       		.uleb128 0xb
 2770 010c 3B       		.uleb128 0x3b
 2771 010d 05       		.uleb128 0x5
 2772 010e 01       		.uleb128 0x1
 2773 010f 13       		.uleb128 0x13
 2774 0110 00       		.byte	0
 2775 0111 00       		.byte	0
 2776 0112 17       		.uleb128 0x17
 2777 0113 2E       		.uleb128 0x2e
 2778 0114 01       		.byte	0x1
 2779 0115 3F       		.uleb128 0x3f
 2780 0116 0C       		.uleb128 0xc
 2781 0117 03       		.uleb128 0x3
 2782 0118 0E       		.uleb128 0xe
 2783 0119 3A       		.uleb128 0x3a
 2784 011a 0B       		.uleb128 0xb
 2785 011b 3B       		.uleb128 0x3b
 2786 011c 0B       		.uleb128 0xb
 2787 011d 27       		.uleb128 0x27
 2788 011e 0C       		.uleb128 0xc
 2789 011f 11       		.uleb128 0x11
 2790 0120 01       		.uleb128 0x1
 2791 0121 12       		.uleb128 0x12
 2792 0122 01       		.uleb128 0x1
 2793 0123 40       		.uleb128 0x40
 2794 0124 0A       		.uleb128 0xa
 2795 0125 9742     		.uleb128 0x2117
 2796 0127 0C       		.uleb128 0xc
 2797 0128 01       		.uleb128 0x1
 2798 0129 13       		.uleb128 0x13
 2799 012a 00       		.byte	0
 2800 012b 00       		.byte	0
 2801 012c 18       		.uleb128 0x18
 2802 012d 898201   		.uleb128 0x4109
 2803 0130 00       		.byte	0
 2804 0131 11       		.uleb128 0x11
 2805 0132 01       		.uleb128 0x1
 2806 0133 9542     		.uleb128 0x2115
ARM GAS  /tmp/ccx5RMa5.s 			page 51


 2807 0135 0C       		.uleb128 0xc
 2808 0136 31       		.uleb128 0x31
 2809 0137 13       		.uleb128 0x13
 2810 0138 00       		.byte	0
 2811 0139 00       		.byte	0
 2812 013a 19       		.uleb128 0x19
 2813 013b 05       		.uleb128 0x5
 2814 013c 00       		.byte	0
 2815 013d 03       		.uleb128 0x3
 2816 013e 0E       		.uleb128 0xe
 2817 013f 3A       		.uleb128 0x3a
 2818 0140 0B       		.uleb128 0xb
 2819 0141 3B       		.uleb128 0x3b
 2820 0142 0B       		.uleb128 0xb
 2821 0143 49       		.uleb128 0x49
 2822 0144 13       		.uleb128 0x13
 2823 0145 02       		.uleb128 0x2
 2824 0146 06       		.uleb128 0x6
 2825 0147 00       		.byte	0
 2826 0148 00       		.byte	0
 2827 0149 1A       		.uleb128 0x1a
 2828 014a 898201   		.uleb128 0x4109
 2829 014d 01       		.byte	0x1
 2830 014e 11       		.uleb128 0x11
 2831 014f 01       		.uleb128 0x1
 2832 0150 9542     		.uleb128 0x2115
 2833 0152 0C       		.uleb128 0xc
 2834 0153 31       		.uleb128 0x31
 2835 0154 13       		.uleb128 0x13
 2836 0155 00       		.byte	0
 2837 0156 00       		.byte	0
 2838 0157 1B       		.uleb128 0x1b
 2839 0158 8A8201   		.uleb128 0x410a
 2840 015b 00       		.byte	0
 2841 015c 02       		.uleb128 0x2
 2842 015d 0A       		.uleb128 0xa
 2843 015e 9142     		.uleb128 0x2111
 2844 0160 0A       		.uleb128 0xa
 2845 0161 00       		.byte	0
 2846 0162 00       		.byte	0
 2847 0163 1C       		.uleb128 0x1c
 2848 0164 2E       		.uleb128 0x2e
 2849 0165 01       		.byte	0x1
 2850 0166 3F       		.uleb128 0x3f
 2851 0167 0C       		.uleb128 0xc
 2852 0168 03       		.uleb128 0x3
 2853 0169 0E       		.uleb128 0xe
 2854 016a 3A       		.uleb128 0x3a
 2855 016b 0B       		.uleb128 0xb
 2856 016c 3B       		.uleb128 0x3b
 2857 016d 0B       		.uleb128 0xb
 2858 016e 27       		.uleb128 0x27
 2859 016f 0C       		.uleb128 0xc
 2860 0170 11       		.uleb128 0x11
 2861 0171 01       		.uleb128 0x1
 2862 0172 12       		.uleb128 0x12
 2863 0173 01       		.uleb128 0x1
ARM GAS  /tmp/ccx5RMa5.s 			page 52


 2864 0174 40       		.uleb128 0x40
 2865 0175 06       		.uleb128 0x6
 2866 0176 9742     		.uleb128 0x2117
 2867 0178 0C       		.uleb128 0xc
 2868 0179 01       		.uleb128 0x1
 2869 017a 13       		.uleb128 0x13
 2870 017b 00       		.byte	0
 2871 017c 00       		.byte	0
 2872 017d 1D       		.uleb128 0x1d
 2873 017e 0B       		.uleb128 0xb
 2874 017f 01       		.byte	0x1
 2875 0180 11       		.uleb128 0x11
 2876 0181 01       		.uleb128 0x1
 2877 0182 12       		.uleb128 0x12
 2878 0183 01       		.uleb128 0x1
 2879 0184 01       		.uleb128 0x1
 2880 0185 13       		.uleb128 0x13
 2881 0186 00       		.byte	0
 2882 0187 00       		.byte	0
 2883 0188 1E       		.uleb128 0x1e
 2884 0189 34       		.uleb128 0x34
 2885 018a 00       		.byte	0
 2886 018b 03       		.uleb128 0x3
 2887 018c 08       		.uleb128 0x8
 2888 018d 3A       		.uleb128 0x3a
 2889 018e 0B       		.uleb128 0xb
 2890 018f 3B       		.uleb128 0x3b
 2891 0190 0B       		.uleb128 0xb
 2892 0191 49       		.uleb128 0x49
 2893 0192 13       		.uleb128 0x13
 2894 0193 02       		.uleb128 0x2
 2895 0194 06       		.uleb128 0x6
 2896 0195 00       		.byte	0
 2897 0196 00       		.byte	0
 2898 0197 1F       		.uleb128 0x1f
 2899 0198 898201   		.uleb128 0x4109
 2900 019b 01       		.byte	0x1
 2901 019c 11       		.uleb128 0x11
 2902 019d 01       		.uleb128 0x1
 2903 019e 31       		.uleb128 0x31
 2904 019f 13       		.uleb128 0x13
 2905 01a0 01       		.uleb128 0x1
 2906 01a1 13       		.uleb128 0x13
 2907 01a2 00       		.byte	0
 2908 01a3 00       		.byte	0
 2909 01a4 20       		.uleb128 0x20
 2910 01a5 898201   		.uleb128 0x4109
 2911 01a8 00       		.byte	0
 2912 01a9 11       		.uleb128 0x11
 2913 01aa 01       		.uleb128 0x1
 2914 01ab 31       		.uleb128 0x31
 2915 01ac 13       		.uleb128 0x13
 2916 01ad 00       		.byte	0
 2917 01ae 00       		.byte	0
 2918 01af 21       		.uleb128 0x21
 2919 01b0 898201   		.uleb128 0x4109
 2920 01b3 01       		.byte	0x1
ARM GAS  /tmp/ccx5RMa5.s 			page 53


 2921 01b4 11       		.uleb128 0x11
 2922 01b5 01       		.uleb128 0x1
 2923 01b6 31       		.uleb128 0x31
 2924 01b7 13       		.uleb128 0x13
 2925 01b8 00       		.byte	0
 2926 01b9 00       		.byte	0
 2927 01ba 22       		.uleb128 0x22
 2928 01bb 2E       		.uleb128 0x2e
 2929 01bc 01       		.byte	0x1
 2930 01bd 3F       		.uleb128 0x3f
 2931 01be 0C       		.uleb128 0xc
 2932 01bf 03       		.uleb128 0x3
 2933 01c0 0E       		.uleb128 0xe
 2934 01c1 3A       		.uleb128 0x3a
 2935 01c2 0B       		.uleb128 0xb
 2936 01c3 3B       		.uleb128 0x3b
 2937 01c4 0B       		.uleb128 0xb
 2938 01c5 27       		.uleb128 0x27
 2939 01c6 0C       		.uleb128 0xc
 2940 01c7 49       		.uleb128 0x49
 2941 01c8 13       		.uleb128 0x13
 2942 01c9 11       		.uleb128 0x11
 2943 01ca 01       		.uleb128 0x1
 2944 01cb 12       		.uleb128 0x12
 2945 01cc 01       		.uleb128 0x1
 2946 01cd 40       		.uleb128 0x40
 2947 01ce 06       		.uleb128 0x6
 2948 01cf 9742     		.uleb128 0x2117
 2949 01d1 0C       		.uleb128 0xc
 2950 01d2 01       		.uleb128 0x1
 2951 01d3 13       		.uleb128 0x13
 2952 01d4 00       		.byte	0
 2953 01d5 00       		.byte	0
 2954 01d6 23       		.uleb128 0x23
 2955 01d7 05       		.uleb128 0x5
 2956 01d8 00       		.byte	0
 2957 01d9 03       		.uleb128 0x3
 2958 01da 0E       		.uleb128 0xe
 2959 01db 3A       		.uleb128 0x3a
 2960 01dc 0B       		.uleb128 0xb
 2961 01dd 3B       		.uleb128 0x3b
 2962 01de 0B       		.uleb128 0xb
 2963 01df 49       		.uleb128 0x49
 2964 01e0 13       		.uleb128 0x13
 2965 01e1 02       		.uleb128 0x2
 2966 01e2 0A       		.uleb128 0xa
 2967 01e3 00       		.byte	0
 2968 01e4 00       		.byte	0
 2969 01e5 24       		.uleb128 0x24
 2970 01e6 34       		.uleb128 0x34
 2971 01e7 00       		.byte	0
 2972 01e8 03       		.uleb128 0x3
 2973 01e9 0E       		.uleb128 0xe
 2974 01ea 3A       		.uleb128 0x3a
 2975 01eb 0B       		.uleb128 0xb
 2976 01ec 3B       		.uleb128 0x3b
 2977 01ed 0B       		.uleb128 0xb
ARM GAS  /tmp/ccx5RMa5.s 			page 54


 2978 01ee 49       		.uleb128 0x49
 2979 01ef 13       		.uleb128 0x13
 2980 01f0 02       		.uleb128 0x2
 2981 01f1 06       		.uleb128 0x6
 2982 01f2 00       		.byte	0
 2983 01f3 00       		.byte	0
 2984 01f4 25       		.uleb128 0x25
 2985 01f5 34       		.uleb128 0x34
 2986 01f6 00       		.byte	0
 2987 01f7 03       		.uleb128 0x3
 2988 01f8 08       		.uleb128 0x8
 2989 01f9 3A       		.uleb128 0x3a
 2990 01fa 0B       		.uleb128 0xb
 2991 01fb 3B       		.uleb128 0x3b
 2992 01fc 05       		.uleb128 0x5
 2993 01fd 49       		.uleb128 0x49
 2994 01fe 13       		.uleb128 0x13
 2995 01ff 02       		.uleb128 0x2
 2996 0200 06       		.uleb128 0x6
 2997 0201 00       		.byte	0
 2998 0202 00       		.byte	0
 2999 0203 26       		.uleb128 0x26
 3000 0204 2E       		.uleb128 0x2e
 3001 0205 01       		.byte	0x1
 3002 0206 3F       		.uleb128 0x3f
 3003 0207 0C       		.uleb128 0xc
 3004 0208 03       		.uleb128 0x3
 3005 0209 0E       		.uleb128 0xe
 3006 020a 3A       		.uleb128 0x3a
 3007 020b 0B       		.uleb128 0xb
 3008 020c 3B       		.uleb128 0x3b
 3009 020d 05       		.uleb128 0x5
 3010 020e 27       		.uleb128 0x27
 3011 020f 0C       		.uleb128 0xc
 3012 0210 11       		.uleb128 0x11
 3013 0211 01       		.uleb128 0x1
 3014 0212 12       		.uleb128 0x12
 3015 0213 01       		.uleb128 0x1
 3016 0214 40       		.uleb128 0x40
 3017 0215 06       		.uleb128 0x6
 3018 0216 9742     		.uleb128 0x2117
 3019 0218 0C       		.uleb128 0xc
 3020 0219 01       		.uleb128 0x1
 3021 021a 13       		.uleb128 0x13
 3022 021b 00       		.byte	0
 3023 021c 00       		.byte	0
 3024 021d 27       		.uleb128 0x27
 3025 021e 05       		.uleb128 0x5
 3026 021f 00       		.byte	0
 3027 0220 03       		.uleb128 0x3
 3028 0221 0E       		.uleb128 0xe
 3029 0222 3A       		.uleb128 0x3a
 3030 0223 0B       		.uleb128 0xb
 3031 0224 3B       		.uleb128 0x3b
 3032 0225 05       		.uleb128 0x5
 3033 0226 49       		.uleb128 0x49
 3034 0227 13       		.uleb128 0x13
ARM GAS  /tmp/ccx5RMa5.s 			page 55


 3035 0228 02       		.uleb128 0x2
 3036 0229 06       		.uleb128 0x6
 3037 022a 00       		.byte	0
 3038 022b 00       		.byte	0
 3039 022c 28       		.uleb128 0x28
 3040 022d 898201   		.uleb128 0x4109
 3041 0230 01       		.byte	0x1
 3042 0231 11       		.uleb128 0x11
 3043 0232 01       		.uleb128 0x1
 3044 0233 9542     		.uleb128 0x2115
 3045 0235 0C       		.uleb128 0xc
 3046 0236 31       		.uleb128 0x31
 3047 0237 13       		.uleb128 0x13
 3048 0238 01       		.uleb128 0x1
 3049 0239 13       		.uleb128 0x13
 3050 023a 00       		.byte	0
 3051 023b 00       		.byte	0
 3052 023c 29       		.uleb128 0x29
 3053 023d 34       		.uleb128 0x34
 3054 023e 00       		.byte	0
 3055 023f 03       		.uleb128 0x3
 3056 0240 0E       		.uleb128 0xe
 3057 0241 3A       		.uleb128 0x3a
 3058 0242 0B       		.uleb128 0xb
 3059 0243 3B       		.uleb128 0x3b
 3060 0244 05       		.uleb128 0x5
 3061 0245 49       		.uleb128 0x49
 3062 0246 13       		.uleb128 0x13
 3063 0247 3F       		.uleb128 0x3f
 3064 0248 0C       		.uleb128 0xc
 3065 0249 3C       		.uleb128 0x3c
 3066 024a 0C       		.uleb128 0xc
 3067 024b 00       		.byte	0
 3068 024c 00       		.byte	0
 3069 024d 2A       		.uleb128 0x2a
 3070 024e 2E       		.uleb128 0x2e
 3071 024f 00       		.byte	0
 3072 0250 3F       		.uleb128 0x3f
 3073 0251 0C       		.uleb128 0xc
 3074 0252 03       		.uleb128 0x3
 3075 0253 0E       		.uleb128 0xe
 3076 0254 3A       		.uleb128 0x3a
 3077 0255 0B       		.uleb128 0xb
 3078 0256 3B       		.uleb128 0x3b
 3079 0257 05       		.uleb128 0x5
 3080 0258 27       		.uleb128 0x27
 3081 0259 0C       		.uleb128 0xc
 3082 025a 3C       		.uleb128 0x3c
 3083 025b 0C       		.uleb128 0xc
 3084 025c 00       		.byte	0
 3085 025d 00       		.byte	0
 3086 025e 2B       		.uleb128 0x2b
 3087 025f 2E       		.uleb128 0x2e
 3088 0260 01       		.byte	0x1
 3089 0261 3F       		.uleb128 0x3f
 3090 0262 0C       		.uleb128 0xc
 3091 0263 03       		.uleb128 0x3
ARM GAS  /tmp/ccx5RMa5.s 			page 56


 3092 0264 0E       		.uleb128 0xe
 3093 0265 3A       		.uleb128 0x3a
 3094 0266 0B       		.uleb128 0xb
 3095 0267 3B       		.uleb128 0x3b
 3096 0268 0B       		.uleb128 0xb
 3097 0269 27       		.uleb128 0x27
 3098 026a 0C       		.uleb128 0xc
 3099 026b 3C       		.uleb128 0x3c
 3100 026c 0C       		.uleb128 0xc
 3101 026d 01       		.uleb128 0x1
 3102 026e 13       		.uleb128 0x13
 3103 026f 00       		.byte	0
 3104 0270 00       		.byte	0
 3105 0271 2C       		.uleb128 0x2c
 3106 0272 05       		.uleb128 0x5
 3107 0273 00       		.byte	0
 3108 0274 49       		.uleb128 0x49
 3109 0275 13       		.uleb128 0x13
 3110 0276 00       		.byte	0
 3111 0277 00       		.byte	0
 3112 0278 2D       		.uleb128 0x2d
 3113 0279 2E       		.uleb128 0x2e
 3114 027a 00       		.byte	0
 3115 027b 3F       		.uleb128 0x3f
 3116 027c 0C       		.uleb128 0xc
 3117 027d 03       		.uleb128 0x3
 3118 027e 0E       		.uleb128 0xe
 3119 027f 3A       		.uleb128 0x3a
 3120 0280 0B       		.uleb128 0xb
 3121 0281 3B       		.uleb128 0x3b
 3122 0282 0B       		.uleb128 0xb
 3123 0283 27       		.uleb128 0x27
 3124 0284 0C       		.uleb128 0xc
 3125 0285 3C       		.uleb128 0x3c
 3126 0286 0C       		.uleb128 0xc
 3127 0287 00       		.byte	0
 3128 0288 00       		.byte	0
 3129 0289 2E       		.uleb128 0x2e
 3130 028a 2E       		.uleb128 0x2e
 3131 028b 01       		.byte	0x1
 3132 028c 3F       		.uleb128 0x3f
 3133 028d 0C       		.uleb128 0xc
 3134 028e 03       		.uleb128 0x3
 3135 028f 0E       		.uleb128 0xe
 3136 0290 3A       		.uleb128 0x3a
 3137 0291 0B       		.uleb128 0xb
 3138 0292 3B       		.uleb128 0x3b
 3139 0293 05       		.uleb128 0x5
 3140 0294 27       		.uleb128 0x27
 3141 0295 0C       		.uleb128 0xc
 3142 0296 3C       		.uleb128 0x3c
 3143 0297 0C       		.uleb128 0xc
 3144 0298 01       		.uleb128 0x1
 3145 0299 13       		.uleb128 0x13
 3146 029a 00       		.byte	0
 3147 029b 00       		.byte	0
 3148 029c 2F       		.uleb128 0x2f
ARM GAS  /tmp/ccx5RMa5.s 			page 57


 3149 029d 2E       		.uleb128 0x2e
 3150 029e 01       		.byte	0x1
 3151 029f 3F       		.uleb128 0x3f
 3152 02a0 0C       		.uleb128 0xc
 3153 02a1 03       		.uleb128 0x3
 3154 02a2 0E       		.uleb128 0xe
 3155 02a3 3A       		.uleb128 0x3a
 3156 02a4 0B       		.uleb128 0xb
 3157 02a5 3B       		.uleb128 0x3b
 3158 02a6 05       		.uleb128 0x5
 3159 02a7 27       		.uleb128 0x27
 3160 02a8 0C       		.uleb128 0xc
 3161 02a9 49       		.uleb128 0x49
 3162 02aa 13       		.uleb128 0x13
 3163 02ab 3C       		.uleb128 0x3c
 3164 02ac 0C       		.uleb128 0xc
 3165 02ad 01       		.uleb128 0x1
 3166 02ae 13       		.uleb128 0x13
 3167 02af 00       		.byte	0
 3168 02b0 00       		.byte	0
 3169 02b1 30       		.uleb128 0x30
 3170 02b2 2E       		.uleb128 0x2e
 3171 02b3 00       		.byte	0
 3172 02b4 3F       		.uleb128 0x3f
 3173 02b5 0C       		.uleb128 0xc
 3174 02b6 03       		.uleb128 0x3
 3175 02b7 0E       		.uleb128 0xe
 3176 02b8 3A       		.uleb128 0x3a
 3177 02b9 0B       		.uleb128 0xb
 3178 02ba 3B       		.uleb128 0x3b
 3179 02bb 0B       		.uleb128 0xb
 3180 02bc 27       		.uleb128 0x27
 3181 02bd 0C       		.uleb128 0xc
 3182 02be 49       		.uleb128 0x49
 3183 02bf 13       		.uleb128 0x13
 3184 02c0 3C       		.uleb128 0x3c
 3185 02c1 0C       		.uleb128 0xc
 3186 02c2 00       		.byte	0
 3187 02c3 00       		.byte	0
 3188 02c4 00       		.byte	0
 3189              		.section	.debug_loc,"",%progbits
 3190              	.Ldebug_loc0:
 3191              	.LLST0:
 3192 0000 00000000 		.4byte	.LVL1
 3193 0004 0A000000 		.4byte	.LVL2
 3194 0008 0100     		.2byte	0x1
 3195 000a 50       		.byte	0x50
 3196 000b 0A000000 		.4byte	.LVL2
 3197 000f 0D000000 		.4byte	.LVL3-1
 3198 0013 0300     		.2byte	0x3
 3199 0015 70       		.byte	0x70
 3200 0016 74       		.sleb128 -12
 3201 0017 9F       		.byte	0x9f
 3202 0018 0D000000 		.4byte	.LVL3-1
 3203 001c 0E000000 		.4byte	.LFE63
 3204 0020 0400     		.2byte	0x4
 3205 0022 F3       		.byte	0xf3
ARM GAS  /tmp/ccx5RMa5.s 			page 58


 3206 0023 01       		.uleb128 0x1
 3207 0024 50       		.byte	0x50
 3208 0025 9F       		.byte	0x9f
 3209 0026 00000000 		.4byte	0
 3210 002a 00000000 		.4byte	0
 3211              	.LLST1:
 3212 002e 00000000 		.4byte	.LFB64
 3213 0032 02000000 		.4byte	.LCFI0
 3214 0036 0200     		.2byte	0x2
 3215 0038 7D       		.byte	0x7d
 3216 0039 00       		.sleb128 0
 3217 003a 02000000 		.4byte	.LCFI0
 3218 003e 50000000 		.4byte	.LFE64
 3219 0042 0200     		.2byte	0x2
 3220 0044 7D       		.byte	0x7d
 3221 0045 10       		.sleb128 16
 3222 0046 00000000 		.4byte	0
 3223 004a 00000000 		.4byte	0
 3224              	.LLST2:
 3225 004e 00000000 		.4byte	.LVL4
 3226 0052 0A000000 		.4byte	.LVL5
 3227 0056 0100     		.2byte	0x1
 3228 0058 50       		.byte	0x50
 3229 0059 0A000000 		.4byte	.LVL5
 3230 005d 3E000000 		.4byte	.LVL14
 3231 0061 0100     		.2byte	0x1
 3232 0063 54       		.byte	0x54
 3233 0064 3E000000 		.4byte	.LVL14
 3234 0068 40000000 		.4byte	.LVL15
 3235 006c 0100     		.2byte	0x1
 3236 006e 50       		.byte	0x50
 3237 006f 40000000 		.4byte	.LVL15
 3238 0073 50000000 		.4byte	.LFE64
 3239 0077 0100     		.2byte	0x1
 3240 0079 54       		.byte	0x54
 3241 007a 00000000 		.4byte	0
 3242 007e 00000000 		.4byte	0
 3243              	.LLST3:
 3244 0082 00000000 		.4byte	.LVL4
 3245 0086 0A000000 		.4byte	.LVL5
 3246 008a 0100     		.2byte	0x1
 3247 008c 51       		.byte	0x51
 3248 008d 0A000000 		.4byte	.LVL5
 3249 0091 3E000000 		.4byte	.LVL14
 3250 0095 0100     		.2byte	0x1
 3251 0097 55       		.byte	0x55
 3252 0098 3E000000 		.4byte	.LVL14
 3253 009c 43000000 		.4byte	.LVL16-1
 3254 00a0 0100     		.2byte	0x1
 3255 00a2 51       		.byte	0x51
 3256 00a3 43000000 		.4byte	.LVL16-1
 3257 00a7 50000000 		.4byte	.LFE64
 3258 00ab 0100     		.2byte	0x1
 3259 00ad 55       		.byte	0x55
 3260 00ae 00000000 		.4byte	0
 3261 00b2 00000000 		.4byte	0
 3262              	.LLST4:
ARM GAS  /tmp/ccx5RMa5.s 			page 59


 3263 00b6 22000000 		.4byte	.LVL8
 3264 00ba 25000000 		.4byte	.LVL9-1
 3265 00be 0100     		.2byte	0x1
 3266 00c0 53       		.byte	0x53
 3267 00c1 00000000 		.4byte	0
 3268 00c5 00000000 		.4byte	0
 3269              	.LLST5:
 3270 00c9 3C000000 		.4byte	.LVL13
 3271 00cd 3E000000 		.4byte	.LVL14
 3272 00d1 0100     		.2byte	0x1
 3273 00d3 53       		.byte	0x53
 3274 00d4 00000000 		.4byte	0
 3275 00d8 00000000 		.4byte	0
 3276              	.LLST6:
 3277 00dc 00000000 		.4byte	.LFB65
 3278 00e0 02000000 		.4byte	.LCFI1
 3279 00e4 0200     		.2byte	0x2
 3280 00e6 7D       		.byte	0x7d
 3281 00e7 00       		.sleb128 0
 3282 00e8 02000000 		.4byte	.LCFI1
 3283 00ec 48000000 		.4byte	.LFE65
 3284 00f0 0200     		.2byte	0x2
 3285 00f2 7D       		.byte	0x7d
 3286 00f3 08       		.sleb128 8
 3287 00f4 00000000 		.4byte	0
 3288 00f8 00000000 		.4byte	0
 3289              	.LLST7:
 3290 00fc 00000000 		.4byte	.LVL17
 3291 0100 06000000 		.4byte	.LVL18
 3292 0104 0100     		.2byte	0x1
 3293 0106 50       		.byte	0x50
 3294 0107 06000000 		.4byte	.LVL18
 3295 010b 38000000 		.4byte	.LVL27
 3296 010f 0100     		.2byte	0x1
 3297 0111 54       		.byte	0x54
 3298 0112 38000000 		.4byte	.LVL27
 3299 0116 3A000000 		.4byte	.LVL28
 3300 011a 0100     		.2byte	0x1
 3301 011c 50       		.byte	0x50
 3302 011d 3A000000 		.4byte	.LVL28
 3303 0121 48000000 		.4byte	.LFE65
 3304 0125 0100     		.2byte	0x1
 3305 0127 54       		.byte	0x54
 3306 0128 00000000 		.4byte	0
 3307 012c 00000000 		.4byte	0
 3308              	.LLST8:
 3309 0130 1E000000 		.4byte	.LVL21
 3310 0134 21000000 		.4byte	.LVL22-1
 3311 0138 0100     		.2byte	0x1
 3312 013a 53       		.byte	0x53
 3313 013b 00000000 		.4byte	0
 3314 013f 00000000 		.4byte	0
 3315              	.LLST9:
 3316 0143 36000000 		.4byte	.LVL26
 3317 0147 38000000 		.4byte	.LVL27
 3318 014b 0100     		.2byte	0x1
 3319 014d 53       		.byte	0x53
ARM GAS  /tmp/ccx5RMa5.s 			page 60


 3320 014e 00000000 		.4byte	0
 3321 0152 00000000 		.4byte	0
 3322              	.LLST10:
 3323 0156 00000000 		.4byte	.LFB66
 3324 015a 02000000 		.4byte	.LCFI2
 3325 015e 0200     		.2byte	0x2
 3326 0160 7D       		.byte	0x7d
 3327 0161 00       		.sleb128 0
 3328 0162 02000000 		.4byte	.LCFI2
 3329 0166 18000000 		.4byte	.LFE66
 3330 016a 0200     		.2byte	0x2
 3331 016c 7D       		.byte	0x7d
 3332 016d 08       		.sleb128 8
 3333 016e 00000000 		.4byte	0
 3334 0172 00000000 		.4byte	0
 3335              	.LLST11:
 3336 0176 00000000 		.4byte	.LVL30
 3337 017a 08000000 		.4byte	.LVL31
 3338 017e 0100     		.2byte	0x1
 3339 0180 50       		.byte	0x50
 3340 0181 08000000 		.4byte	.LVL31
 3341 0185 0A000000 		.4byte	.LVL32
 3342 0189 0100     		.2byte	0x1
 3343 018b 54       		.byte	0x54
 3344 018c 0A000000 		.4byte	.LVL32
 3345 0190 0C000000 		.4byte	.LVL33
 3346 0194 0100     		.2byte	0x1
 3347 0196 50       		.byte	0x50
 3348 0197 0C000000 		.4byte	.LVL33
 3349 019b 18000000 		.4byte	.LFE66
 3350 019f 0100     		.2byte	0x1
 3351 01a1 54       		.byte	0x54
 3352 01a2 00000000 		.4byte	0
 3353 01a6 00000000 		.4byte	0
 3354              	.LLST12:
 3355 01aa 00000000 		.4byte	.LFB67
 3356 01ae 04000000 		.4byte	.LCFI3
 3357 01b2 0200     		.2byte	0x2
 3358 01b4 7D       		.byte	0x7d
 3359 01b5 00       		.sleb128 0
 3360 01b6 04000000 		.4byte	.LCFI3
 3361 01ba 06000000 		.4byte	.LCFI4
 3362 01be 0200     		.2byte	0x2
 3363 01c0 7D       		.byte	0x7d
 3364 01c1 1C       		.sleb128 28
 3365 01c2 06000000 		.4byte	.LCFI4
 3366 01c6 90000000 		.4byte	.LFE67
 3367 01ca 0200     		.2byte	0x2
 3368 01cc 7D       		.byte	0x7d
 3369 01cd 30       		.sleb128 48
 3370 01ce 00000000 		.4byte	0
 3371 01d2 00000000 		.4byte	0
 3372              	.LLST13:
 3373 01d6 00000000 		.4byte	.LVL35
 3374 01da 1A000000 		.4byte	.LVL37
 3375 01de 0100     		.2byte	0x1
 3376 01e0 50       		.byte	0x50
ARM GAS  /tmp/ccx5RMa5.s 			page 61


 3377 01e1 1A000000 		.4byte	.LVL37
 3378 01e5 6A000000 		.4byte	.LVL49
 3379 01e9 0100     		.2byte	0x1
 3380 01eb 54       		.byte	0x54
 3381 01ec 6A000000 		.4byte	.LVL49
 3382 01f0 80000000 		.4byte	.LVL51
 3383 01f4 0100     		.2byte	0x1
 3384 01f6 50       		.byte	0x50
 3385 01f7 80000000 		.4byte	.LVL51
 3386 01fb 90000000 		.4byte	.LFE67
 3387 01ff 0100     		.2byte	0x1
 3388 0201 54       		.byte	0x54
 3389 0202 00000000 		.4byte	0
 3390 0206 00000000 		.4byte	0
 3391              	.LLST14:
 3392 020a 00000000 		.4byte	.LVL35
 3393 020e 1D000000 		.4byte	.LVL38-1
 3394 0212 0100     		.2byte	0x1
 3395 0214 51       		.byte	0x51
 3396 0215 1D000000 		.4byte	.LVL38-1
 3397 0219 6A000000 		.4byte	.LVL49
 3398 021d 0400     		.2byte	0x4
 3399 021f F3       		.byte	0xf3
 3400 0220 01       		.uleb128 0x1
 3401 0221 51       		.byte	0x51
 3402 0222 9F       		.byte	0x9f
 3403 0223 6A000000 		.4byte	.LVL49
 3404 0227 80000000 		.4byte	.LVL51
 3405 022b 0100     		.2byte	0x1
 3406 022d 51       		.byte	0x51
 3407 022e 80000000 		.4byte	.LVL51
 3408 0232 90000000 		.4byte	.LFE67
 3409 0236 0400     		.2byte	0x4
 3410 0238 F3       		.byte	0xf3
 3411 0239 01       		.uleb128 0x1
 3412 023a 51       		.byte	0x51
 3413 023b 9F       		.byte	0x9f
 3414 023c 00000000 		.4byte	0
 3415 0240 00000000 		.4byte	0
 3416              	.LLST15:
 3417 0244 00000000 		.4byte	.LVL35
 3418 0248 1D000000 		.4byte	.LVL38-1
 3419 024c 0100     		.2byte	0x1
 3420 024e 52       		.byte	0x52
 3421 024f 1D000000 		.4byte	.LVL38-1
 3422 0253 6A000000 		.4byte	.LVL49
 3423 0257 0100     		.2byte	0x1
 3424 0259 5A       		.byte	0x5a
 3425 025a 6A000000 		.4byte	.LVL49
 3426 025e 80000000 		.4byte	.LVL51
 3427 0262 0100     		.2byte	0x1
 3428 0264 52       		.byte	0x52
 3429 0265 80000000 		.4byte	.LVL51
 3430 0269 90000000 		.4byte	.LFE67
 3431 026d 0100     		.2byte	0x1
 3432 026f 5A       		.byte	0x5a
 3433 0270 00000000 		.4byte	0
ARM GAS  /tmp/ccx5RMa5.s 			page 62


 3434 0274 00000000 		.4byte	0
 3435              	.LLST16:
 3436 0278 00000000 		.4byte	.LVL35
 3437 027c 18000000 		.4byte	.LVL36
 3438 0280 0100     		.2byte	0x1
 3439 0282 53       		.byte	0x53
 3440 0283 18000000 		.4byte	.LVL36
 3441 0287 6A000000 		.4byte	.LVL49
 3442 028b 0100     		.2byte	0x1
 3443 028d 59       		.byte	0x59
 3444 028e 6A000000 		.4byte	.LVL49
 3445 0292 76000000 		.4byte	.LVL50
 3446 0296 0100     		.2byte	0x1
 3447 0298 53       		.byte	0x53
 3448 0299 76000000 		.4byte	.LVL50
 3449 029d 90000000 		.4byte	.LFE67
 3450 02a1 0100     		.2byte	0x1
 3451 02a3 59       		.byte	0x59
 3452 02a4 00000000 		.4byte	0
 3453 02a8 00000000 		.4byte	0
 3454              	.LLST17:
 3455 02ac 52000000 		.4byte	.LVL44
 3456 02b0 58000000 		.4byte	.LVL45
 3457 02b4 0100     		.2byte	0x1
 3458 02b6 50       		.byte	0x50
 3459 02b7 58000000 		.4byte	.LVL45
 3460 02bb 6A000000 		.4byte	.LVL49
 3461 02bf 0100     		.2byte	0x1
 3462 02c1 55       		.byte	0x55
 3463 02c2 80000000 		.4byte	.LVL51
 3464 02c6 82000000 		.4byte	.LVL52
 3465 02ca 0100     		.2byte	0x1
 3466 02cc 50       		.byte	0x50
 3467 02cd 82000000 		.4byte	.LVL52
 3468 02d1 90000000 		.4byte	.LFE67
 3469 02d5 0100     		.2byte	0x1
 3470 02d7 55       		.byte	0x55
 3471 02d8 00000000 		.4byte	0
 3472 02dc 00000000 		.4byte	0
 3473              	.LLST18:
 3474 02e0 30000000 		.4byte	.LVL41
 3475 02e4 33000000 		.4byte	.LVL42-1
 3476 02e8 0100     		.2byte	0x1
 3477 02ea 53       		.byte	0x53
 3478 02eb 00000000 		.4byte	0
 3479 02ef 00000000 		.4byte	0
 3480              	.LLST19:
 3481 02f3 62000000 		.4byte	.LVL48
 3482 02f7 6A000000 		.4byte	.LVL49
 3483 02fb 0100     		.2byte	0x1
 3484 02fd 53       		.byte	0x53
 3485 02fe 00000000 		.4byte	0
 3486 0302 00000000 		.4byte	0
 3487              	.LLST20:
 3488 0306 00000000 		.4byte	.LFB68
 3489 030a 04000000 		.4byte	.LCFI5
 3490 030e 0200     		.2byte	0x2
ARM GAS  /tmp/ccx5RMa5.s 			page 63


 3491 0310 7D       		.byte	0x7d
 3492 0311 00       		.sleb128 0
 3493 0312 04000000 		.4byte	.LCFI5
 3494 0316 06000000 		.4byte	.LCFI6
 3495 031a 0200     		.2byte	0x2
 3496 031c 7D       		.byte	0x7d
 3497 031d 18       		.sleb128 24
 3498 031e 06000000 		.4byte	.LCFI6
 3499 0322 80000000 		.4byte	.LFE68
 3500 0326 0200     		.2byte	0x2
 3501 0328 7D       		.byte	0x7d
 3502 0329 20       		.sleb128 32
 3503 032a 00000000 		.4byte	0
 3504 032e 00000000 		.4byte	0
 3505              	.LLST21:
 3506 0332 00000000 		.4byte	.LVL53
 3507 0336 18000000 		.4byte	.LVL54
 3508 033a 0100     		.2byte	0x1
 3509 033c 50       		.byte	0x50
 3510 033d 18000000 		.4byte	.LVL54
 3511 0341 64000000 		.4byte	.LVL65
 3512 0345 0100     		.2byte	0x1
 3513 0347 54       		.byte	0x54
 3514 0348 64000000 		.4byte	.LVL65
 3515 034c 72000000 		.4byte	.LVL66
 3516 0350 0100     		.2byte	0x1
 3517 0352 50       		.byte	0x50
 3518 0353 72000000 		.4byte	.LVL66
 3519 0357 80000000 		.4byte	.LFE68
 3520 035b 0100     		.2byte	0x1
 3521 035d 54       		.byte	0x54
 3522 035e 00000000 		.4byte	0
 3523 0362 00000000 		.4byte	0
 3524              	.LLST22:
 3525 0366 00000000 		.4byte	.LVL53
 3526 036a 1B000000 		.4byte	.LVL55-1
 3527 036e 0100     		.2byte	0x1
 3528 0370 51       		.byte	0x51
 3529 0371 1B000000 		.4byte	.LVL55-1
 3530 0375 64000000 		.4byte	.LVL65
 3531 0379 0400     		.2byte	0x4
 3532 037b F3       		.byte	0xf3
 3533 037c 01       		.uleb128 0x1
 3534 037d 51       		.byte	0x51
 3535 037e 9F       		.byte	0x9f
 3536 037f 64000000 		.4byte	.LVL65
 3537 0383 72000000 		.4byte	.LVL66
 3538 0387 0100     		.2byte	0x1
 3539 0389 51       		.byte	0x51
 3540 038a 72000000 		.4byte	.LVL66
 3541 038e 80000000 		.4byte	.LFE68
 3542 0392 0400     		.2byte	0x4
 3543 0394 F3       		.byte	0xf3
 3544 0395 01       		.uleb128 0x1
 3545 0396 51       		.byte	0x51
 3546 0397 9F       		.byte	0x9f
 3547 0398 00000000 		.4byte	0
ARM GAS  /tmp/ccx5RMa5.s 			page 64


 3548 039c 00000000 		.4byte	0
 3549              	.LLST23:
 3550 03a0 00000000 		.4byte	.LVL53
 3551 03a4 1B000000 		.4byte	.LVL55-1
 3552 03a8 0100     		.2byte	0x1
 3553 03aa 52       		.byte	0x52
 3554 03ab 1B000000 		.4byte	.LVL55-1
 3555 03af 64000000 		.4byte	.LVL65
 3556 03b3 0100     		.2byte	0x1
 3557 03b5 58       		.byte	0x58
 3558 03b6 64000000 		.4byte	.LVL65
 3559 03ba 72000000 		.4byte	.LVL66
 3560 03be 0100     		.2byte	0x1
 3561 03c0 52       		.byte	0x52
 3562 03c1 72000000 		.4byte	.LVL66
 3563 03c5 80000000 		.4byte	.LFE68
 3564 03c9 0100     		.2byte	0x1
 3565 03cb 58       		.byte	0x58
 3566 03cc 00000000 		.4byte	0
 3567 03d0 00000000 		.4byte	0
 3568              	.LLST24:
 3569 03d4 00000000 		.4byte	.LVL53
 3570 03d8 1B000000 		.4byte	.LVL55-1
 3571 03dc 0100     		.2byte	0x1
 3572 03de 53       		.byte	0x53
 3573 03df 1B000000 		.4byte	.LVL55-1
 3574 03e3 64000000 		.4byte	.LVL65
 3575 03e7 0100     		.2byte	0x1
 3576 03e9 56       		.byte	0x56
 3577 03ea 64000000 		.4byte	.LVL65
 3578 03ee 72000000 		.4byte	.LVL66
 3579 03f2 0100     		.2byte	0x1
 3580 03f4 53       		.byte	0x53
 3581 03f5 72000000 		.4byte	.LVL66
 3582 03f9 80000000 		.4byte	.LFE68
 3583 03fd 0100     		.2byte	0x1
 3584 03ff 56       		.byte	0x56
 3585 0400 00000000 		.4byte	0
 3586 0404 00000000 		.4byte	0
 3587              	.LLST25:
 3588 0408 4C000000 		.4byte	.LVL61
 3589 040c 55000000 		.4byte	.LVL62-1
 3590 0410 0100     		.2byte	0x1
 3591 0412 50       		.byte	0x50
 3592 0413 55000000 		.4byte	.LVL62-1
 3593 0417 64000000 		.4byte	.LVL65
 3594 041b 0100     		.2byte	0x1
 3595 041d 55       		.byte	0x55
 3596 041e 72000000 		.4byte	.LVL66
 3597 0422 80000000 		.4byte	.LFE68
 3598 0426 0100     		.2byte	0x1
 3599 0428 50       		.byte	0x50
 3600 0429 00000000 		.4byte	0
 3601 042d 00000000 		.4byte	0
 3602              	.LLST26:
 3603 0431 2E000000 		.4byte	.LVL58
 3604 0435 31000000 		.4byte	.LVL59-1
ARM GAS  /tmp/ccx5RMa5.s 			page 65


 3605 0439 0100     		.2byte	0x1
 3606 043b 53       		.byte	0x53
 3607 043c 00000000 		.4byte	0
 3608 0440 00000000 		.4byte	0
 3609              	.LLST27:
 3610 0444 5C000000 		.4byte	.LVL64
 3611 0448 64000000 		.4byte	.LVL65
 3612 044c 0100     		.2byte	0x1
 3613 044e 53       		.byte	0x53
 3614 044f 00000000 		.4byte	0
 3615 0453 00000000 		.4byte	0
 3616              	.LLST28:
 3617 0457 00000000 		.4byte	.LFB69
 3618 045b 02000000 		.4byte	.LCFI7
 3619 045f 0200     		.2byte	0x2
 3620 0461 7D       		.byte	0x7d
 3621 0462 00       		.sleb128 0
 3622 0463 02000000 		.4byte	.LCFI7
 3623 0467 20000000 		.4byte	.LFE69
 3624 046b 0200     		.2byte	0x2
 3625 046d 7D       		.byte	0x7d
 3626 046e 08       		.sleb128 8
 3627 046f 00000000 		.4byte	0
 3628 0473 00000000 		.4byte	0
 3629              	.LLST29:
 3630 0477 00000000 		.4byte	.LVL67
 3631 047b 06000000 		.4byte	.LVL68
 3632 047f 0100     		.2byte	0x1
 3633 0481 50       		.byte	0x50
 3634 0482 06000000 		.4byte	.LVL68
 3635 0486 12000000 		.4byte	.LVL69
 3636 048a 0100     		.2byte	0x1
 3637 048c 54       		.byte	0x54
 3638 048d 12000000 		.4byte	.LVL69
 3639 0491 14000000 		.4byte	.LVL70
 3640 0495 0100     		.2byte	0x1
 3641 0497 50       		.byte	0x50
 3642 0498 14000000 		.4byte	.LVL70
 3643 049c 20000000 		.4byte	.LFE69
 3644 04a0 0100     		.2byte	0x1
 3645 04a2 54       		.byte	0x54
 3646 04a3 00000000 		.4byte	0
 3647 04a7 00000000 		.4byte	0
 3648              	.LLST30:
 3649 04ab 00000000 		.4byte	.LFB70
 3650 04af 02000000 		.4byte	.LCFI8
 3651 04b3 0200     		.2byte	0x2
 3652 04b5 7D       		.byte	0x7d
 3653 04b6 00       		.sleb128 0
 3654 04b7 02000000 		.4byte	.LCFI8
 3655 04bb 18000000 		.4byte	.LFE70
 3656 04bf 0200     		.2byte	0x2
 3657 04c1 7D       		.byte	0x7d
 3658 04c2 08       		.sleb128 8
 3659 04c3 00000000 		.4byte	0
 3660 04c7 00000000 		.4byte	0
 3661              	.LLST31:
ARM GAS  /tmp/ccx5RMa5.s 			page 66


 3662 04cb 00000000 		.4byte	.LVL72
 3663 04cf 04000000 		.4byte	.LVL73
 3664 04d3 0100     		.2byte	0x1
 3665 04d5 50       		.byte	0x50
 3666 04d6 04000000 		.4byte	.LVL73
 3667 04da 0C000000 		.4byte	.LVL74
 3668 04de 0400     		.2byte	0x4
 3669 04e0 F3       		.byte	0xf3
 3670 04e1 01       		.uleb128 0x1
 3671 04e2 50       		.byte	0x50
 3672 04e3 9F       		.byte	0x9f
 3673 04e4 0C000000 		.4byte	.LVL74
 3674 04e8 0E000000 		.4byte	.LVL75
 3675 04ec 0100     		.2byte	0x1
 3676 04ee 50       		.byte	0x50
 3677 04ef 0E000000 		.4byte	.LVL75
 3678 04f3 18000000 		.4byte	.LFE70
 3679 04f7 0400     		.2byte	0x4
 3680 04f9 F3       		.byte	0xf3
 3681 04fa 01       		.uleb128 0x1
 3682 04fb 50       		.byte	0x50
 3683 04fc 9F       		.byte	0x9f
 3684 04fd 00000000 		.4byte	0
 3685 0501 00000000 		.4byte	0
 3686              		.section	.debug_aranges,"",%progbits
 3687 0000 5C000000 		.4byte	0x5c
 3688 0004 0200     		.2byte	0x2
 3689 0006 00000000 		.4byte	.Ldebug_info0
 3690 000a 04       		.byte	0x4
 3691 000b 00       		.byte	0
 3692 000c 0000     		.2byte	0
 3693 000e 0000     		.2byte	0
 3694 0010 00000000 		.4byte	.LFB62
 3695 0014 04000000 		.4byte	.LFE62-.LFB62
 3696 0018 00000000 		.4byte	.LFB63
 3697 001c 0E000000 		.4byte	.LFE63-.LFB63
 3698 0020 00000000 		.4byte	.LFB64
 3699 0024 50000000 		.4byte	.LFE64-.LFB64
 3700 0028 00000000 		.4byte	.LFB65
 3701 002c 48000000 		.4byte	.LFE65-.LFB65
 3702 0030 00000000 		.4byte	.LFB66
 3703 0034 18000000 		.4byte	.LFE66-.LFB66
 3704 0038 00000000 		.4byte	.LFB67
 3705 003c 90000000 		.4byte	.LFE67-.LFB67
 3706 0040 00000000 		.4byte	.LFB68
 3707 0044 80000000 		.4byte	.LFE68-.LFB68
 3708 0048 00000000 		.4byte	.LFB69
 3709 004c 20000000 		.4byte	.LFE69-.LFB69
 3710 0050 00000000 		.4byte	.LFB70
 3711 0054 18000000 		.4byte	.LFE70-.LFB70
 3712 0058 00000000 		.4byte	0
 3713 005c 00000000 		.4byte	0
 3714              		.section	.debug_ranges,"",%progbits
 3715              	.Ldebug_ranges0:
 3716 0000 00000000 		.4byte	.LFB62
 3717 0004 04000000 		.4byte	.LFE62
 3718 0008 00000000 		.4byte	.LFB63
ARM GAS  /tmp/ccx5RMa5.s 			page 67


 3719 000c 0E000000 		.4byte	.LFE63
 3720 0010 00000000 		.4byte	.LFB64
 3721 0014 50000000 		.4byte	.LFE64
 3722 0018 00000000 		.4byte	.LFB65
 3723 001c 48000000 		.4byte	.LFE65
 3724 0020 00000000 		.4byte	.LFB66
 3725 0024 18000000 		.4byte	.LFE66
 3726 0028 00000000 		.4byte	.LFB67
 3727 002c 90000000 		.4byte	.LFE67
 3728 0030 00000000 		.4byte	.LFB68
 3729 0034 80000000 		.4byte	.LFE68
 3730 0038 00000000 		.4byte	.LFB69
 3731 003c 20000000 		.4byte	.LFE69
 3732 0040 00000000 		.4byte	.LFB70
 3733 0044 18000000 		.4byte	.LFE70
 3734 0048 00000000 		.4byte	0
 3735 004c 00000000 		.4byte	0
 3736              		.section	.debug_line,"",%progbits
 3737              	.Ldebug_line0:
 3738 0000 86040000 		.section	.debug_str,"MS",%progbits,1
 3738      02000C03 
 3738      00000201 
 3738      FB0E0D00 
 3738      01010101 
 3739              	.LASF94:
 3740 0000 5354445F 		.ascii	"STD_DUTY_CYCLE\000"
 3740      44555459 
 3740      5F435943 
 3740      4C4500
 3741              	.LASF110:
 3742 000f 646D6172 		.ascii	"dmarx\000"
 3742      7800
 3743              	.LASF97:
 3744 0015 69326364 		.ascii	"i2cdutycycle_t\000"
 3744      75747963 
 3744      79636C65 
 3744      5F7400
 3745              	.LASF87:
 3746 0024 69326373 		.ascii	"i2cstate_t\000"
 3746      74617465 
 3746      5F7400
 3747              	.LASF2:
 3748 002f 73697A65 		.ascii	"size_t\000"
 3748      5F7400
 3749              	.LASF53:
 3750 0036 7264796D 		.ascii	"rdymsg\000"
 3750      736700
 3751              	.LASF13:
 3752 003d 75696E74 		.ascii	"uint64_t\000"
 3752      36345F74 
 3752      00
 3753              	.LASF82:
 3754 0046 4932435F 		.ascii	"I2C_STOP\000"
 3754      53544F50 
 3754      00
 3755              	.LASF135:
 3756 004f 6932635F 		.ascii	"i2c_lld_master_receive_timeout\000"
ARM GAS  /tmp/ccx5RMa5.s 			page 68


 3756      6C6C645F 
 3756      6D617374 
 3756      65725F72 
 3756      65636569 
 3757              	.LASF72:
 3758 006e 54524953 		.ascii	"TRISE\000"
 3758      4500
 3759              	.LASF121:
 3760 0074 72786275 		.ascii	"rxbuf\000"
 3760      6600
 3761              	.LASF14:
 3762 007a 6C6F6E67 		.ascii	"long long unsigned int\000"
 3762      206C6F6E 
 3762      6720756E 
 3762      7369676E 
 3762      65642069 
 3763              	.LASF108:
 3764 0091 61646472 		.ascii	"addr\000"
 3764      00
 3765              	.LASF114:
 3766 0096 69326353 		.ascii	"i2cStart\000"
 3766      74617274 
 3766      00
 3767              	.LASF54:
 3768 009f 65786974 		.ascii	"exitcode\000"
 3768      636F6465 
 3768      00
 3769              	.LASF79:
 3770 00a8 76656374 		.ascii	"vector\000"
 3770      6F7200
 3771              	.LASF126:
 3772 00af 69326352 		.ascii	"i2cReleaseBus\000"
 3772      656C6561 
 3772      73654275 
 3772      7300
 3773              	.LASF128:
 3774 00bd 63684462 		.ascii	"chDbgPanic\000"
 3774      6750616E 
 3774      696300
 3775              	.LASF139:
 3776 00c8 49544D5F 		.ascii	"ITM_RxBuffer\000"
 3776      52784275 
 3776      66666572 
 3776      00
 3777              	.LASF115:
 3778 00d5 69326370 		.ascii	"i2cp\000"
 3778      00
 3779              	.LASF25:
 3780 00da 705F7072 		.ascii	"p_prio\000"
 3780      696F00
 3781              	.LASF118:
 3782 00e1 6932634D 		.ascii	"i2cMasterTransmitTimeout\000"
 3782      61737465 
 3782      72547261 
 3782      6E736D69 
 3782      7454696D 
 3783              	.LASF140:
ARM GAS  /tmp/ccx5RMa5.s 			page 69


 3784 00fa 63684D74 		.ascii	"chMtxUnlock\000"
 3784      78556E6C 
 3784      6F636B00 
 3785              	.LASF1:
 3786 0106 7369676E 		.ascii	"signed char\000"
 3786      65642063 
 3786      68617200 
 3787              	.LASF99:
 3788 0112 636C6F63 		.ascii	"clock_speed\000"
 3788      6B5F7370 
 3788      65656400 
 3789              	.LASF41:
 3790 011e 705F6D70 		.ascii	"p_mpool\000"
 3790      6F6F6C00 
 3791              	.LASF50:
 3792 0126 6D5F7175 		.ascii	"m_queue\000"
 3792      65756500 
 3793              	.LASF134:
 3794 012e 6932635F 		.ascii	"i2c_lld_master_transmit_timeout\000"
 3794      6C6C645F 
 3794      6D617374 
 3794      65725F74 
 3794      72616E73 
 3795              	.LASF88:
 3796 014e 69326361 		.ascii	"i2caddr_t\000"
 3796      6464725F 
 3796      7400
 3797              	.LASF103:
 3798 0158 73746174 		.ascii	"state\000"
 3798      6500
 3799              	.LASF9:
 3800 015e 6C6F6E67 		.ascii	"long int\000"
 3800      20696E74 
 3800      00
 3801              	.LASF16:
 3802 0167 74737461 		.ascii	"tstate_t\000"
 3802      74655F74 
 3802      00
 3803              	.LASF107:
 3804 0170 74687265 		.ascii	"thread\000"
 3804      616400
 3805              	.LASF33:
 3806 0177 705F7265 		.ascii	"p_refs\000"
 3806      667300
 3807              	.LASF12:
 3808 017e 6C6F6E67 		.ascii	"long long int\000"
 3808      206C6F6E 
 3808      6720696E 
 3808      7400
 3809              	.LASF101:
 3810 018c 49324343 		.ascii	"I2CConfig\000"
 3810      6F6E6669 
 3810      6700
 3811              	.LASF34:
 3812 0196 705F7469 		.ascii	"p_time\000"
 3812      6D6500
 3813              	.LASF27:
ARM GAS  /tmp/ccx5RMa5.s 			page 70


 3814 019d 705F6E65 		.ascii	"p_newer\000"
 3814      77657200 
 3815              	.LASF111:
 3816 01a5 646D6174 		.ascii	"dmatx\000"
 3816      7800
 3817              	.LASF92:
 3818 01ab 4F504D4F 		.ascii	"OPMODE_SMBUS_HOST\000"
 3818      44455F53 
 3818      4D425553 
 3818      5F484F53 
 3818      5400
 3819              	.LASF44:
 3820 01bd 72656761 		.ascii	"regarm_t\000"
 3820      726D5F74 
 3820      00
 3821              	.LASF78:
 3822 01c6 73656C66 		.ascii	"selfindex\000"
 3822      696E6465 
 3822      7800
 3823              	.LASF98:
 3824 01d0 6F705F6D 		.ascii	"op_mode\000"
 3824      6F646500 
 3825              	.LASF22:
 3826 01d8 54687265 		.ascii	"Thread\000"
 3826      616400
 3827              	.LASF138:
 3828 01df 2F686F6D 		.ascii	"/home/formica/chibios/chibios/os/hal/src/i2c.c\000"
 3828      652F666F 
 3828      726D6963 
 3828      612F6368 
 3828      6962696F 
 3829              	.LASF30:
 3830 020e 705F7374 		.ascii	"p_stklimit\000"
 3830      6B6C696D 
 3830      697400
 3831              	.LASF0:
 3832 0219 756E7369 		.ascii	"unsigned int\000"
 3832      676E6564 
 3832      20696E74 
 3832      00
 3833              	.LASF119:
 3834 0226 74786275 		.ascii	"txbuf\000"
 3834      6600
 3835              	.LASF59:
 3836 022c 43504152 		.ascii	"CPAR\000"
 3836      00
 3837              	.LASF137:
 3838 0231 474E5520 		.ascii	"GNU C 4.7.3 20121207 (release) [ARM/embedded-4_7-br"
 3838      4320342E 
 3838      372E3320 
 3838      32303132 
 3838      31323037 
 3839 0264 616E6368 		.ascii	"anch revision 194305]\000"
 3839      20726576 
 3839      6973696F 
 3839      6E203139 
 3839      34333035 
ARM GAS  /tmp/ccx5RMa5.s 			page 71


 3840              	.LASF36:
 3841 027a 705F6D73 		.ascii	"p_msgqueue\000"
 3841      67717565 
 3841      756500
 3842              	.LASF123:
 3843 0285 74696D65 		.ascii	"timeout\000"
 3843      6F757400 
 3844              	.LASF61:
 3845 028d 444D415F 		.ascii	"DMA_Channel_TypeDef\000"
 3845      4368616E 
 3845      6E656C5F 
 3845      54797065 
 3845      44656600 
 3846              	.LASF77:
 3847 02a1 69736869 		.ascii	"ishift\000"
 3847      667400
 3848              	.LASF91:
 3849 02a8 4F504D4F 		.ascii	"OPMODE_SMBUS_DEVICE\000"
 3849      44455F53 
 3849      4D425553 
 3849      5F444556 
 3849      49434500 
 3850              	.LASF7:
 3851 02bc 73686F72 		.ascii	"short unsigned int\000"
 3851      7420756E 
 3851      7369676E 
 3851      65642069 
 3851      6E7400
 3852              	.LASF102:
 3853 02cf 49324344 		.ascii	"I2CDriver\000"
 3853      72697665 
 3853      7200
 3854              	.LASF19:
 3855 02d9 6D73675F 		.ascii	"msg_t\000"
 3855      7400
 3856              	.LASF15:
 3857 02df 746D6F64 		.ascii	"tmode_t\000"
 3857      655F7400 
 3858              	.LASF6:
 3859 02e7 75696E74 		.ascii	"uint16_t\000"
 3859      31365F74 
 3859      00
 3860              	.LASF43:
 3861 02f0 54687265 		.ascii	"ThreadsList\000"
 3861      6164734C 
 3861      69737400 
 3862              	.LASF20:
 3863 02fc 6576656E 		.ascii	"eventmask_t\000"
 3863      746D6173 
 3863      6B5F7400 
 3864              	.LASF5:
 3865 0308 73686F72 		.ascii	"short int\000"
 3865      7420696E 
 3865      7400
 3866              	.LASF45:
 3867 0312 73746B61 		.ascii	"stkalign_t\000"
 3867      6C69676E 
ARM GAS  /tmp/ccx5RMa5.s 			page 72


 3867      5F7400
 3868              	.LASF133:
 3869 031d 6932635F 		.ascii	"i2c_lld_stop\000"
 3869      6C6C645F 
 3869      73746F70 
 3869      00
 3870              	.LASF131:
 3871 032a 6932635F 		.ascii	"i2c_lld_start\000"
 3871      6C6C645F 
 3871      73746172 
 3871      7400
 3872              	.LASF48:
 3873 0338 73697A65 		.ascii	"sizetype\000"
 3873      74797065 
 3873      00
 3874              	.LASF49:
 3875 0341 4D757465 		.ascii	"Mutex\000"
 3875      7800
 3876              	.LASF105:
 3877 0347 6572726F 		.ascii	"errors\000"
 3877      727300
 3878              	.LASF100:
 3879 034e 64757479 		.ascii	"duty_cycle\000"
 3879      5F637963 
 3879      6C6500
 3880              	.LASF96:
 3881 0359 46415354 		.ascii	"FAST_DUTY_CYCLE_16_9\000"
 3881      5F445554 
 3881      595F4359 
 3881      434C455F 
 3881      31365F39 
 3882              	.LASF136:
 3883 036e 63684D74 		.ascii	"chMtxLock\000"
 3883      784C6F63 
 3883      6B00
 3884              	.LASF28:
 3885 0378 705F6F6C 		.ascii	"p_older\000"
 3885      64657200 
 3886              	.LASF122:
 3887 0380 72786279 		.ascii	"rxbytes\000"
 3887      74657300 
 3888              	.LASF116:
 3889 0388 69326353 		.ascii	"i2cStop\000"
 3889      746F7000 
 3890              	.LASF42:
 3891 0390 54687265 		.ascii	"ThreadsQueue\000"
 3891      61647351 
 3891      75657565 
 3891      00
 3892              	.LASF90:
 3893 039d 4F504D4F 		.ascii	"OPMODE_I2C\000"
 3893      44455F49 
 3893      324300
 3894              	.LASF130:
 3895 03a8 6462675F 		.ascii	"dbg_check_lock\000"
 3895      63686563 
 3895      6B5F6C6F 
ARM GAS  /tmp/ccx5RMa5.s 			page 73


 3895      636B00
 3896              	.LASF132:
 3897 03b7 6462675F 		.ascii	"dbg_check_unlock\000"
 3897      63686563 
 3897      6B5F756E 
 3897      6C6F636B 
 3897      00
 3898              	.LASF17:
 3899 03c8 74726566 		.ascii	"trefs_t\000"
 3899      735F7400 
 3900              	.LASF62:
 3901 03d0 52455345 		.ascii	"RESERVED0\000"
 3901      52564544 
 3901      3000
 3902              	.LASF63:
 3903 03da 52455345 		.ascii	"RESERVED1\000"
 3903      52564544 
 3903      3100
 3904              	.LASF65:
 3905 03e4 52455345 		.ascii	"RESERVED2\000"
 3905      52564544 
 3905      3200
 3906              	.LASF67:
 3907 03ee 52455345 		.ascii	"RESERVED3\000"
 3907      52564544 
 3907      3300
 3908              	.LASF68:
 3909 03f8 52455345 		.ascii	"RESERVED4\000"
 3909      52564544 
 3909      3400
 3910              	.LASF24:
 3911 0402 705F7072 		.ascii	"p_prev\000"
 3911      657600
 3912              	.LASF70:
 3913 0409 52455345 		.ascii	"RESERVED6\000"
 3913      52564544 
 3913      3600
 3914              	.LASF71:
 3915 0413 52455345 		.ascii	"RESERVED7\000"
 3915      52564544 
 3915      3700
 3916              	.LASF73:
 3917 041d 52455345 		.ascii	"RESERVED8\000"
 3917      52564544 
 3917      3800
 3918              	.LASF18:
 3919 0427 74707269 		.ascii	"tprio_t\000"
 3919      6F5F7400 
 3920              	.LASF84:
 3921 042f 4932435F 		.ascii	"I2C_ACTIVE_TX\000"
 3921      41435449 
 3921      56455F54 
 3921      5800
 3922              	.LASF89:
 3923 043d 69326366 		.ascii	"i2cflags_t\000"
 3923      6C616773 
 3923      5F7400
ARM GAS  /tmp/ccx5RMa5.s 			page 74


 3924              	.LASF106:
 3925 0448 6D757465 		.ascii	"mutex\000"
 3925      7800
 3926              	.LASF8:
 3927 044e 696E7433 		.ascii	"int32_t\000"
 3927      325F7400 
 3928              	.LASF4:
 3929 0456 756E7369 		.ascii	"unsigned char\000"
 3929      676E6564 
 3929      20636861 
 3929      7200
 3930              	.LASF80:
 3931 0464 73746D33 		.ascii	"stm32_dma_stream_t\000"
 3931      325F646D 
 3931      615F7374 
 3931      7265616D 
 3931      5F7400
 3932              	.LASF39:
 3933 0477 705F6D74 		.ascii	"p_mtxlist\000"
 3933      786C6973 
 3933      7400
 3934              	.LASF81:
 3935 0481 4932435F 		.ascii	"I2C_UNINIT\000"
 3935      554E494E 
 3935      495400
 3936              	.LASF31:
 3937 048c 705F7374 		.ascii	"p_state\000"
 3937      61746500 
 3938              	.LASF117:
 3939 0494 69326347 		.ascii	"i2cGetErrors\000"
 3939      65744572 
 3939      726F7273 
 3939      00
 3940              	.LASF56:
 3941 04a1 65776D61 		.ascii	"ewmask\000"
 3941      736B00
 3942              	.LASF23:
 3943 04a8 705F6E65 		.ascii	"p_next\000"
 3943      787400
 3944              	.LASF32:
 3945 04af 705F666C 		.ascii	"p_flags\000"
 3945      61677300 
 3946              	.LASF95:
 3947 04b7 46415354 		.ascii	"FAST_DUTY_CYCLE_2\000"
 3947      5F445554 
 3947      595F4359 
 3947      434C455F 
 3947      3200
 3948              	.LASF75:
 3949 04c9 6368616E 		.ascii	"channel\000"
 3949      6E656C00 
 3950              	.LASF86:
 3951 04d1 4932435F 		.ascii	"I2C_LOCKED\000"
 3951      4C4F434B 
 3951      454400
 3952              	.LASF38:
 3953 04dc 705F6570 		.ascii	"p_epending\000"
ARM GAS  /tmp/ccx5RMa5.s 			page 75


 3953      656E6469 
 3953      6E6700
 3954              	.LASF76:
 3955 04e7 69666372 		.ascii	"ifcr\000"
 3955      00
 3956              	.LASF69:
 3957 04ec 52455345 		.ascii	"RESERVED5\000"
 3957      52564544 
 3957      3500
 3958              	.LASF10:
 3959 04f6 75696E74 		.ascii	"uint32_t\000"
 3959      33325F74 
 3959      00
 3960              	.LASF85:
 3961 04ff 4932435F 		.ascii	"I2C_ACTIVE_RX\000"
 3961      41435449 
 3961      56455F52 
 3961      5800
 3962              	.LASF11:
 3963 050d 6C6F6E67 		.ascii	"long unsigned int\000"
 3963      20756E73 
 3963      69676E65 
 3963      6420696E 
 3963      7400
 3964              	.LASF57:
 3965 051f 63686172 		.ascii	"char\000"
 3965      00
 3966              	.LASF104:
 3967 0524 636F6E66 		.ascii	"config\000"
 3967      696700
 3968              	.LASF52:
 3969 052b 6D5F6E65 		.ascii	"m_next\000"
 3969      787400
 3970              	.LASF21:
 3971 0532 73797374 		.ascii	"systime_t\000"
 3971      696D655F 
 3971      7400
 3972              	.LASF40:
 3973 053c 705F7265 		.ascii	"p_realprio\000"
 3973      616C7072 
 3973      696F00
 3974              	.LASF83:
 3975 0547 4932435F 		.ascii	"I2C_READY\000"
 3975      52454144 
 3975      5900
 3976              	.LASF47:
 3977 0551 636F6E74 		.ascii	"context\000"
 3977      65787400 
 3978              	.LASF46:
 3979 0559 696E7463 		.ascii	"intctx\000"
 3979      747800
 3980              	.LASF127:
 3981 0560 63684D74 		.ascii	"chMtxInit\000"
 3981      78496E69 
 3981      7400
 3982              	.LASF129:
 3983 056a 6932635F 		.ascii	"i2c_lld_init\000"
ARM GAS  /tmp/ccx5RMa5.s 			page 76


 3983      6C6C645F 
 3983      696E6974 
 3983      00
 3984              	.LASF125:
 3985 0577 69326341 		.ascii	"i2cAcquireBus\000"
 3985      63717569 
 3985      72654275 
 3985      7300
 3986              	.LASF58:
 3987 0585 434E4454 		.ascii	"CNDTR\000"
 3987      5200
 3988              	.LASF60:
 3989 058b 434D4152 		.ascii	"CMAR\000"
 3989      00
 3990              	.LASF3:
 3991 0590 75696E74 		.ascii	"uint8_t\000"
 3991      385F7400 
 3992              	.LASF64:
 3993 0598 4F415231 		.ascii	"OAR1\000"
 3993      00
 3994              	.LASF66:
 3995 059d 4F415232 		.ascii	"OAR2\000"
 3995      00
 3996              	.LASF124:
 3997 05a2 6932634D 		.ascii	"i2cMasterReceiveTimeout\000"
 3997      61737465 
 3997      72526563 
 3997      65697665 
 3997      54696D65 
 3998              	.LASF109:
 3999 05ba 646D616D 		.ascii	"dmamode\000"
 3999      6F646500 
 4000              	.LASF55:
 4001 05c2 77746F62 		.ascii	"wtobjp\000"
 4001      6A7000
 4002              	.LASF29:
 4003 05c9 705F6E61 		.ascii	"p_name\000"
 4003      6D6500
 4004              	.LASF112:
 4005 05d0 69326349 		.ascii	"i2cInit\000"
 4005      6E697400 
 4006              	.LASF37:
 4007 05d8 705F6D73 		.ascii	"p_msg\000"
 4007      6700
 4008              	.LASF74:
 4009 05de 4932435F 		.ascii	"I2C_TypeDef\000"
 4009      54797065 
 4009      44656600 
 4010              	.LASF93:
 4011 05ea 6932636F 		.ascii	"i2copmode_t\000"
 4011      706D6F64 
 4011      655F7400 
 4012              	.LASF113:
 4013 05f6 6932634F 		.ascii	"i2cObjectInit\000"
 4013      626A6563 
 4013      74496E69 
 4013      7400
ARM GAS  /tmp/ccx5RMa5.s 			page 77


 4014              	.LASF51:
 4015 0604 6D5F6F77 		.ascii	"m_owner\000"
 4015      6E657200 
 4016              	.LASF26:
 4017 060c 705F6374 		.ascii	"p_ctx\000"
 4017      7800
 4018              	.LASF35:
 4019 0612 705F7761 		.ascii	"p_waiting\000"
 4019      6974696E 
 4019      6700
 4020              	.LASF120:
 4021 061c 74786279 		.ascii	"txbytes\000"
 4021      74657300 
 4022              		.ident	"GCC: (GNU Tools for ARM Embedded Processors) 4.7.3 20121207 (release) [ARM/embedded-4_7-br
ARM GAS  /tmp/ccx5RMa5.s 			page 78


DEFINED SYMBOLS
                            *ABS*:00000000 i2c.c
     /tmp/ccx5RMa5.s:19     .text.i2cInit:00000000 $t
     /tmp/ccx5RMa5.s:25     .text.i2cInit:00000000 i2cInit
     /tmp/ccx5RMa5.s:41     .text.i2cObjectInit:00000000 $t
     /tmp/ccx5RMa5.s:47     .text.i2cObjectInit:00000000 i2cObjectInit
     /tmp/ccx5RMa5.s:74     .text.i2cStart:00000000 $t
     /tmp/ccx5RMa5.s:80     .text.i2cStart:00000000 i2cStart
     /tmp/ccx5RMa5.s:163    .text.i2cStart:00000048 $d
     /tmp/ccx5RMa5.s:169    .text.i2cStop:00000000 $t
     /tmp/ccx5RMa5.s:175    .text.i2cStop:00000000 i2cStop
     /tmp/ccx5RMa5.s:248    .text.i2cStop:00000040 $d
     /tmp/ccx5RMa5.s:254    .text.i2cGetErrors:00000000 $t
     /tmp/ccx5RMa5.s:260    .text.i2cGetErrors:00000000 i2cGetErrors
     /tmp/ccx5RMa5.s:292    .text.i2cGetErrors:00000014 $d
     /tmp/ccx5RMa5.s:297    .text.i2cMasterTransmitTimeout:00000000 $t
     /tmp/ccx5RMa5.s:303    .text.i2cMasterTransmitTimeout:00000000 i2cMasterTransmitTimeout
     /tmp/ccx5RMa5.s:441    .text.i2cMasterTransmitTimeout:00000088 $d
     /tmp/ccx5RMa5.s:447    .text.i2cMasterReceiveTimeout:00000000 $t
     /tmp/ccx5RMa5.s:453    .text.i2cMasterReceiveTimeout:00000000 i2cMasterReceiveTimeout
     /tmp/ccx5RMa5.s:576    .text.i2cMasterReceiveTimeout:00000078 $d
     /tmp/ccx5RMa5.s:582    .text.i2cAcquireBus:00000000 $t
     /tmp/ccx5RMa5.s:588    .text.i2cAcquireBus:00000000 i2cAcquireBus
     /tmp/ccx5RMa5.s:622    .text.i2cAcquireBus:0000001c $d
     /tmp/ccx5RMa5.s:627    .text.i2cReleaseBus:00000000 $t
     /tmp/ccx5RMa5.s:633    .text.i2cReleaseBus:00000000 i2cReleaseBus
     /tmp/ccx5RMa5.s:664    .text.i2cReleaseBus:00000014 $d
     /tmp/ccx5RMa5.s:669    .rodata.str1.4:00000000 $d
                     .debug_frame:00000010 $d
     /tmp/ccx5RMa5.s:253    .text.i2cStop:00000048 $t
     /tmp/ccx5RMa5.s:296    .text.i2cGetErrors:00000018 $t
     /tmp/ccx5RMa5.s:668    .text.i2cReleaseBus:00000018 $t

UNDEFINED SYMBOLS
i2c_lld_init
chMtxInit
chDbgPanic
dbg_check_lock
i2c_lld_start
dbg_check_unlock
i2c_lld_stop
i2c_lld_master_transmit_timeout
i2c_lld_master_receive_timeout
chMtxLock
chMtxUnlock
