ARM GAS  /tmp/ccJEhE2E.s 			page 1


   1              		.syntax unified
   2              		.cpu cortex-m3
   3              		.fpu softvfp
   4              		.eabi_attribute 20, 1
   5              		.eabi_attribute 21, 1
   6              		.eabi_attribute 23, 3
   7              		.eabi_attribute 24, 1
   8              		.eabi_attribute 25, 1
   9              		.eabi_attribute 26, 1
  10              		.eabi_attribute 30, 2
  11              		.eabi_attribute 34, 1
  12              		.eabi_attribute 18, 4
  13              		.thumb
  14              		.file	"i2c_lld.c"
  15              		.text
  16              	.Ltext0:
  17              		.cfi_sections	.debug_frame
  18              		.section	.text.i2c_lld_abort_operation,"ax",%progbits
  19              		.align	2
  20              		.p2align 4,,15
  21              		.thumb
  22              		.thumb_func
  23              		.type	i2c_lld_abort_operation, %function
  24              	i2c_lld_abort_operation:
  25              	.LFB62:
  26              		.file 1 "/home/formica/chibios/chibios/os/hal/platforms/STM32/i2c_lld.c"
  27              		.loc 1 151 0
  28              		.cfi_startproc
  29              		@ args = 0, pretend = 0, frame = 0
  30              		@ frame_needed = 0, uses_anonymous_args = 0
  31              		@ link register save eliminated.
  32              	.LVL0:
  33              		.loc 1 161 0
  34 0000 C26A     		ldr	r2, [r0, #44]
  35              		.loc 1 152 0
  36 0002 036B     		ldr	r3, [r0, #48]
  37              	.LVL1:
  38              		.loc 1 151 0
  39 0004 30B4     		push	{r4, r5}
  40              	.LCFI0:
  41              		.cfi_def_cfa_offset 8
  42              		.cfi_offset 4, -8
  43              		.cfi_offset 5, -4
  44              		.loc 1 156 0
  45 0006 0021     		movs	r1, #0
  46              		.loc 1 161 0
  47 0008 1468     		ldr	r4, [r2, #0]
  48              		.loc 1 155 0
  49 000a 4FF40045 		mov	r5, #32768
  50 000e 1D80     		strh	r5, [r3, #0]	@ movhi
  51              		.loc 1 156 0
  52 0010 1980     		strh	r1, [r3, #0]	@ movhi
  53              		.loc 1 157 0
  54 0012 9980     		strh	r1, [r3, #4]	@ movhi
  55              		.loc 1 158 0
  56 0014 9982     		strh	r1, [r3, #20]	@ movhi
  57              		.loc 1 161 0
ARM GAS  /tmp/ccJEhE2E.s 			page 2


  58 0016 2368     		ldr	r3, [r4, #0]
  59              	.LVL2:
  60 0018 0F21     		movs	r1, #15
  61 001a 23F00103 		bic	r3, r3, #1
  62 001e 2360     		str	r3, [r4, #0]
  63 0020 147A     		ldrb	r4, [r2, #8]	@ zero_extendqisi2
  64              		.loc 1 162 0
  65 0022 836A     		ldr	r3, [r0, #40]
  66              		.loc 1 161 0
  67 0024 01FA04F4 		lsl	r4, r1, r4
  68 0028 5068     		ldr	r0, [r2, #4]
  69              	.LVL3:
  70              		.loc 1 162 0
  71 002a 1A68     		ldr	r2, [r3, #0]
  72              		.loc 1 161 0
  73 002c 0460     		str	r4, [r0, #0]
  74              		.loc 1 162 0
  75 002e 1468     		ldr	r4, [r2, #0]
  76 0030 5868     		ldr	r0, [r3, #4]
  77 0032 24F00104 		bic	r4, r4, #1
  78 0036 1460     		str	r4, [r2, #0]
  79 0038 1B7A     		ldrb	r3, [r3, #8]	@ zero_extendqisi2
  80 003a 01FA03F1 		lsl	r1, r1, r3
  81 003e 0160     		str	r1, [r0, #0]
  82              		.loc 1 163 0
  83 0040 30BC     		pop	{r4, r5}
  84 0042 7047     		bx	lr
  85              		.cfi_endproc
  86              	.LFE62:
  87              		.size	i2c_lld_abort_operation, .-i2c_lld_abort_operation
  88 0044 AFF30080 		.section	.text.i2c_lld_safety_timeout,"ax",%progbits
  88      AFF30080 
  88      AFF30080 
  89              		.align	2
  90              		.p2align 4,,15
  91              		.thumb
  92              		.thumb_func
  93              		.type	i2c_lld_safety_timeout, %function
  94              	i2c_lld_safety_timeout:
  95              	.LFB63:
  96              		.loc 1 172 0
  97              		.cfi_startproc
  98              		@ args = 0, pretend = 0, frame = 0
  99              		@ frame_needed = 0, uses_anonymous_args = 0
 100              	.LVL4:
 101 0000 38B5     		push	{r3, r4, r5, lr}
 102              	.LCFI1:
 103              		.cfi_def_cfa_offset 16
 104              		.cfi_offset 3, -16
 105              		.cfi_offset 4, -12
 106              		.cfi_offset 5, -8
 107              		.cfi_offset 14, -4
 108              		.loc 1 175 0
 109 0002 C469     		ldr	r4, [r0, #28]
 110              		.loc 1 172 0
 111 0004 0546     		mov	r5, r0
 112              	.LVL5:
ARM GAS  /tmp/ccJEhE2E.s 			page 3


 113              		.loc 1 175 0
 114 0006 5CB1     		cbz	r4, .L2
 115              	.LVL6:
 116              	.LBB10:
 117              		.loc 1 177 0
 118 0008 FFF7FEFF 		bl	i2c_lld_abort_operation
 119              	.LVL7:
 120              		.loc 1 178 0
 121 000c 0023     		movs	r3, #0
 122              		.loc 1 179 0
 123 000e 4FF0FF31 		mov	r1, #-1
 124              		.loc 1 180 0
 125 0012 2046     		mov	r0, r4
 126              		.loc 1 178 0
 127 0014 EB61     		str	r3, [r5, #28]
 128              		.loc 1 179 0
 129 0016 A162     		str	r1, [r4, #40]
 130              	.LBE10:
 131              		.loc 1 182 0
 132 0018 BDE83840 		pop	{r3, r4, r5, lr}
 133              	.LBB11:
 134              		.loc 1 180 0
 135 001c FFF7FEBF 		b	chSchReadyI
 136              	.LVL8:
 137              	.L2:
 138 0020 38BD     		pop	{r3, r4, r5, pc}
 139              	.LBE11:
 140              		.cfi_endproc
 141              	.LFE63:
 142              		.size	i2c_lld_safety_timeout, .-i2c_lld_safety_timeout
 143 0022 00BFAFF3 		.section	.text.i2c_lld_serve_tx_end_irq,"ax",%progbits
 143      0080AFF3 
 143      0080AFF3 
 143      0080
 144              		.align	2
 145              		.p2align 4,,15
 146              		.thumb
 147              		.thumb_func
 148              		.type	i2c_lld_serve_tx_end_irq, %function
 149              	i2c_lld_serve_tx_end_irq:
 150              	.LFB68:
 151              		.loc 1 378 0
 152              		.cfi_startproc
 153              		@ args = 0, pretend = 0, frame = 0
 154              		@ frame_needed = 0, uses_anonymous_args = 0
 155              	.LVL9:
 156 0000 38B5     		push	{r3, r4, r5, lr}
 157              	.LCFI2:
 158              		.cfi_def_cfa_offset 16
 159              		.cfi_offset 3, -16
 160              		.cfi_offset 4, -12
 161              		.cfi_offset 5, -8
 162              		.cfi_offset 14, -4
 163              		.loc 1 383 0
 164 0002 0B07     		lsls	r3, r1, #28
 165              		.loc 1 378 0
 166 0004 0546     		mov	r5, r0
ARM GAS  /tmp/ccJEhE2E.s 			page 4


 167              		.loc 1 379 0
 168 0006 046B     		ldr	r4, [r0, #48]
 169              	.LVL10:
 170              		.loc 1 383 0
 171 0008 01D5     		bpl	.L6
 172              		.loc 1 384 0
 173 000a FFF7FEFF 		bl	port_halt
 174              	.LVL11:
 175              	.L6:
 176              		.loc 1 390 0
 177 000e EB6A     		ldr	r3, [r5, #44]
 178 0010 1A68     		ldr	r2, [r3, #0]
 179 0012 5968     		ldr	r1, [r3, #4]
 180 0014 1068     		ldr	r0, [r2, #0]
 181 0016 20F00100 		bic	r0, r0, #1
 182 001a 1060     		str	r0, [r2, #0]
 183 001c 1B7A     		ldrb	r3, [r3, #8]	@ zero_extendqisi2
 184 001e 0F22     		movs	r2, #15
 185 0020 02FA03F0 		lsl	r0, r2, r3
 186 0024 0860     		str	r0, [r1, #0]
 187              		.loc 1 394 0
 188 0026 A188     		ldrh	r1, [r4, #4]
 189 0028 8BB2     		uxth	r3, r1
 190 002a 43F40072 		orr	r2, r3, #512
 191 002e A280     		strh	r2, [r4, #4]	@ movhi
 192 0030 38BD     		pop	{r3, r4, r5, pc}
 193              		.cfi_endproc
 194              	.LFE68:
 195              		.size	i2c_lld_serve_tx_end_irq, .-i2c_lld_serve_tx_end_irq
 196 0032 00BFAFF3 		.section	.text.i2c_lld_serve_rx_end_irq,"ax",%progbits
 196      0080AFF3 
 196      0080AFF3 
 196      0080
 197              		.align	2
 198              		.p2align 4,,15
 199              		.thumb
 200              		.thumb_func
 201              		.type	i2c_lld_serve_rx_end_irq, %function
 202              	i2c_lld_serve_rx_end_irq:
 203              	.LFB67:
 204              		.loc 1 351 0
 205              		.cfi_startproc
 206              		@ args = 0, pretend = 0, frame = 0
 207              		@ frame_needed = 0, uses_anonymous_args = 0
 208              	.LVL12:
 209              		.loc 1 356 0
 210 0000 0A07     		lsls	r2, r1, #28
 211              		.loc 1 351 0
 212 0002 70B5     		push	{r4, r5, r6, lr}
 213              	.LCFI3:
 214              		.cfi_def_cfa_offset 16
 215              		.cfi_offset 4, -16
 216              		.cfi_offset 5, -12
 217              		.cfi_offset 6, -8
 218              		.cfi_offset 14, -4
 219              		.loc 1 351 0
 220 0004 0546     		mov	r5, r0
ARM GAS  /tmp/ccJEhE2E.s 			page 5


 221              		.loc 1 352 0
 222 0006 046B     		ldr	r4, [r0, #48]
 223              	.LVL13:
 224              		.loc 1 356 0
 225 0008 2FD4     		bmi	.L19
 226              	.LVL14:
 227              	.L11:
 228              		.loc 1 363 0
 229 000a AA6A     		ldr	r2, [r5, #40]
 230              	.LBB12:
 231              		.loc 1 368 0
 232 000c 2023     		movs	r3, #32
 233              	.LVL15:
 234              	.LBE12:
 235              		.loc 1 363 0
 236 000e 1168     		ldr	r1, [r2, #0]
 237 0010 5068     		ldr	r0, [r2, #4]
 238 0012 0E68     		ldr	r6, [r1, #0]
 239 0014 26F00106 		bic	r6, r6, #1
 240 0018 0E60     		str	r6, [r1, #0]
 241 001a 127A     		ldrb	r2, [r2, #8]	@ zero_extendqisi2
 242 001c 0F21     		movs	r1, #15
 243 001e 01FA02F2 		lsl	r2, r1, r2
 244 0022 0260     		str	r2, [r0, #0]
 245              		.loc 1 365 0
 246 0024 A088     		ldrh	r0, [r4, #4]
 247 0026 20F48051 		bic	r1, r0, #4096
 248 002a 0A04     		lsls	r2, r1, #16
 249 002c 100C     		lsrs	r0, r2, #16
 250 002e A080     		strh	r0, [r4, #4]	@ movhi
 251              		.loc 1 366 0
 252 0030 2188     		ldrh	r1, [r4, #0]
 253 0032 21F48062 		bic	r2, r1, #1024
 254 0036 1004     		lsls	r0, r2, #16
 255 0038 010C     		lsrs	r1, r0, #16
 256 003a 2180     		strh	r1, [r4, #0]	@ movhi
 257              		.loc 1 367 0
 258 003c 2288     		ldrh	r2, [r4, #0]
 259 003e 90B2     		uxth	r0, r2
 260 0040 40F40071 		orr	r1, r0, #512
 261 0044 2180     		strh	r1, [r4, #0]	@ movhi
 262              	.LBB13:
 263              		.loc 1 368 0
 264              	@ 368 "/home/formica/chibios/chibios/os/hal/platforms/STM32/i2c_lld.c" 1
 265 0046 83F31188 		msr     BASEPRI, r3
 266              	@ 0 "" 2
 267              	.LVL16:
 268              		.thumb
 269              	.LBE13:
 270 004a FFF7FEFF 		bl	dbg_check_lock_from_isr
 271              	.LVL17:
 272 004e EB69     		ldr	r3, [r5, #28]
 273 0050 2BB1     		cbz	r3, .L12
 274              	.LVL18:
 275              	.LBB14:
 276              		.loc 1 368 0 is_stmt 0 discriminator 1
 277 0052 0022     		movs	r2, #0
ARM GAS  /tmp/ccJEhE2E.s 			page 6


 278 0054 EA61     		str	r2, [r5, #28]
 279 0056 1846     		mov	r0, r3
 280 0058 9A62     		str	r2, [r3, #40]
 281 005a FFF7FEFF 		bl	chSchReadyI
 282              	.LVL19:
 283              	.L12:
 284              	.LBE14:
 285              		.loc 1 368 0 discriminator 2
 286 005e FFF7FEFF 		bl	dbg_check_unlock_from_isr
 287              	.LVL20:
 288              	.LBB15:
 289 0062 0023     		movs	r3, #0
 290              	.LVL21:
 291              	@ 368 "/home/formica/chibios/chibios/os/hal/platforms/STM32/i2c_lld.c" 1
 292 0064 83F31188 		msr     BASEPRI, r3
 293              	@ 0 "" 2
 294              	.LVL22:
 295              		.thumb
 296 0068 70BD     		pop	{r4, r5, r6, pc}
 297              	.LVL23:
 298              	.L19:
 299              	.LBE15:
 300              		.loc 1 357 0 is_stmt 1
 301 006a FFF7FEFF 		bl	port_halt
 302              	.LVL24:
 303 006e CCE7     		b	.L11
 304              		.cfi_endproc
 305              	.LFE67:
 306              		.size	i2c_lld_serve_rx_end_irq, .-i2c_lld_serve_rx_end_irq
 307              		.section	.text.VectorBC,"ax",%progbits
 308              		.align	2
 309              		.p2align 4,,15
 310              		.global	VectorBC
 311              		.thumb
 312              		.thumb_func
 313              		.type	VectorBC, %function
 314              	VectorBC:
 315              	.LFB70:
 316              		.loc 1 464 0
 317              		.cfi_startproc
 318              		@ args = 0, pretend = 0, frame = 0
 319              		@ frame_needed = 0, uses_anonymous_args = 0
 320 0000 F8B5     		push	{r3, r4, r5, r6, r7, lr}
 321              	.LCFI4:
 322              		.cfi_def_cfa_offset 24
 323              		.cfi_offset 3, -24
 324              		.cfi_offset 4, -20
 325              		.cfi_offset 5, -16
 326              		.cfi_offset 6, -12
 327              		.cfi_offset 7, -8
 328              		.cfi_offset 14, -4
 329              	.LBB21:
 330              	.LBB22:
 331              		.loc 1 301 0
 332 0002 3F4D     		ldr	r5, .L36
 333              	.LBE22:
 334              	.LBE21:
ARM GAS  /tmp/ccJEhE2E.s 			page 7


 335              		.loc 1 466 0
 336 0004 FFF7FEFF 		bl	dbg_check_enter_isr
 337              	.LVL25:
 338              	.LBB29:
 339              	.LBB27:
 340              		.loc 1 301 0
 341 0008 2C6B     		ldr	r4, [r5, #48]
 342              	.LVL26:
 343              		.loc 1 308 0
 344 000a 0223     		movs	r3, #2
 345              		.loc 1 302 0
 346 000c 228B     		ldrh	r2, [r4, #24]
 347              	.LVL27:
 348              		.loc 1 303 0
 349 000e A68A     		ldrh	r6, [r4, #20]
 350              		.loc 1 308 0
 351 0010 C0F20303 		movt	r3, 3
 352              		.loc 1 303 0
 353 0014 B6B2     		uxth	r6, r6
 354              	.LVL28:
 355              		.loc 1 308 0
 356 0016 46EA0240 		orr	r0, r6, r2, lsl #16
 357 001a 20F07F41 		bic	r1, r0, #-16777216
 358 001e 9942     		cmp	r1, r3
 359 0020 37D0     		beq	.L23
 360 0022 10D8     		bhi	.L26
 361 0024 0123     		movs	r3, #1
 362 0026 C0F20303 		movt	r3, 3
 363 002a 9942     		cmp	r1, r3
 364 002c 01D1     		bne	.L21
 365              		.loc 1 310 0
 366 002e 2B8C     		ldrh	r3, [r5, #32]
 367 0030 2382     		strh	r3, [r4, #16]	@ movhi
 368              	.LVL29:
 369              	.L21:
 370              		.loc 1 339 0
 371 0032 16F00A0F 		tst	r6, #10
 372              		.loc 1 340 0
 373 0036 18BF     		it	ne
 374 0038 238B     		ldrhne	r3, [r4, #24]
 375              	.LVL30:
 376              	.L28:
 377              	.LBE27:
 378              	.LBE29:
 379              		.loc 1 470 0
 380 003a FFF7FEFF 		bl	dbg_check_leave_isr
 381              	.LVL31:
 382              		.loc 1 471 0
 383 003e BDE8F840 		pop	{r3, r4, r5, r6, r7, lr}
 384              		.loc 1 470 0
 385 0042 FFF7FEBF 		b	_port_irq_epilogue
 386              	.LVL32:
 387              	.L26:
 388              	.LBB30:
 389              	.LBB28:
 390              		.loc 1 308 0
 391 0046 8223     		movs	r3, #130
ARM GAS  /tmp/ccJEhE2E.s 			page 8


 392 0048 C0F20703 		movt	r3, 7
 393 004c 9942     		cmp	r1, r3
 394 004e 13D0     		beq	.L24
 395 0050 8423     		movs	r3, #132
 396 0052 C0F20703 		movt	r3, 7
 397 0056 9942     		cmp	r1, r3
 398 0058 EBD1     		bne	.L21
 399              		.loc 1 325 0
 400 005a AF6A     		ldr	r7, [r5, #40]
 401 005c 3A68     		ldr	r2, [r7, #0]
 402              	.LVL33:
 403 005e 5768     		ldr	r7, [r2, #4]
 404 0060 002F     		cmp	r7, #0
 405 0062 31D0     		beq	.L27
 406              		.loc 1 328 0
 407 0064 2388     		ldrh	r3, [r4, #0]
 408              		.loc 1 327 0
 409 0066 298C     		ldrh	r1, [r5, #32]
 410              		.loc 1 328 0
 411 0068 98B2     		uxth	r0, r3
 412              		.loc 1 327 0
 413 006a 41F00102 		orr	r2, r1, #1
 414              		.loc 1 328 0
 415 006e 40F4A063 		orr	r3, r0, #1280
 416              		.loc 1 327 0
 417 0072 2A84     		strh	r2, [r5, #32]	@ movhi
 418              		.loc 1 328 0
 419 0074 2380     		strh	r3, [r4, #0]	@ movhi
 420 0076 E0E7     		b	.L28
 421              	.LVL34:
 422              	.L24:
 423              		.loc 1 320 0
 424 0078 A188     		ldrh	r1, [r4, #4]
 425              		.loc 1 321 0
 426 007a E86A     		ldr	r0, [r5, #44]
 427              		.loc 1 320 0
 428 007c 21F40072 		bic	r2, r1, #512
 429              	.LVL35:
 430 0080 1304     		lsls	r3, r2, #16
 431              		.loc 1 321 0
 432 0082 0168     		ldr	r1, [r0, #0]
 433              		.loc 1 320 0
 434 0084 180C     		lsrs	r0, r3, #16
 435 0086 A080     		strh	r0, [r4, #4]	@ movhi
 436              		.loc 1 321 0
 437 0088 0A68     		ldr	r2, [r1, #0]
 438 008a 42F00103 		orr	r3, r2, #1
 439 008e 0B60     		str	r3, [r1, #0]
 440 0090 CFE7     		b	.L21
 441              	.LVL36:
 442              	.L23:
 443              		.loc 1 313 0
 444 0092 A388     		ldrh	r3, [r4, #4]
 445              		.loc 1 314 0
 446 0094 A96A     		ldr	r1, [r5, #40]
 447              		.loc 1 313 0
 448 0096 23F40070 		bic	r0, r3, #512
ARM GAS  /tmp/ccJEhE2E.s 			page 9


 449 009a 0304     		lsls	r3, r0, #16
 450              		.loc 1 314 0
 451 009c 0A68     		ldr	r2, [r1, #0]
 452              	.LVL37:
 453              		.loc 1 313 0
 454 009e 190C     		lsrs	r1, r3, #16
 455 00a0 A180     		strh	r1, [r4, #4]	@ movhi
 456              		.loc 1 314 0
 457 00a2 1068     		ldr	r0, [r2, #0]
 458 00a4 40F00103 		orr	r3, r0, #1
 459 00a8 1360     		str	r3, [r2, #0]
 460              		.loc 1 315 0
 461 00aa A188     		ldrh	r1, [r4, #4]
 462 00ac 88B2     		uxth	r0, r1
 463 00ae 40F48053 		orr	r3, r0, #4096
 464 00b2 A380     		strh	r3, [r4, #4]	@ movhi
 465              		.loc 1 316 0
 466 00b4 5368     		ldr	r3, [r2, #4]
 467 00b6 012B     		cmp	r3, #1
 468 00b8 BBD8     		bhi	.L21
 469              		.loc 1 317 0
 470 00ba 2288     		ldrh	r2, [r4, #0]
 471 00bc 22F48061 		bic	r1, r2, #1024
 472 00c0 0804     		lsls	r0, r1, #16
 473 00c2 030C     		lsrs	r3, r0, #16
 474 00c4 2380     		strh	r3, [r4, #0]	@ movhi
 475 00c6 B4E7     		b	.L21
 476              	.L27:
 477              		.loc 1 331 0
 478 00c8 A088     		ldrh	r0, [r4, #4]
 479              	.LBB23:
 480              		.loc 1 333 0
 481 00ca 2023     		movs	r3, #32
 482              	.LVL38:
 483              	.LBE23:
 484              		.loc 1 331 0
 485 00cc 20F40071 		bic	r1, r0, #512
 486 00d0 0A04     		lsls	r2, r1, #16
 487 00d2 100C     		lsrs	r0, r2, #16
 488 00d4 A080     		strh	r0, [r4, #4]	@ movhi
 489              		.loc 1 332 0
 490 00d6 2188     		ldrh	r1, [r4, #0]
 491 00d8 8AB2     		uxth	r2, r1
 492 00da 42F40070 		orr	r0, r2, #512
 493 00de 2080     		strh	r0, [r4, #0]	@ movhi
 494              	.LBB24:
 495              		.loc 1 333 0
 496              	@ 333 "/home/formica/chibios/chibios/os/hal/platforms/STM32/i2c_lld.c" 1
 497 00e0 83F31188 		msr     BASEPRI, r3
 498              	@ 0 "" 2
 499              	.LVL39:
 500              		.thumb
 501              	.LBE24:
 502 00e4 FFF7FEFF 		bl	dbg_check_lock_from_isr
 503              	.LVL40:
 504 00e8 E869     		ldr	r0, [r5, #28]
 505 00ea 18B1     		cbz	r0, .L29
ARM GAS  /tmp/ccJEhE2E.s 			page 10


 506              	.LVL41:
 507              	.LBB25:
 508 00ec 8762     		str	r7, [r0, #40]
 509 00ee EF61     		str	r7, [r5, #28]
 510 00f0 FFF7FEFF 		bl	chSchReadyI
 511              	.LVL42:
 512              	.L29:
 513              	.LBE25:
 514 00f4 FFF7FEFF 		bl	dbg_check_unlock_from_isr
 515              	.LVL43:
 516              	.LBB26:
 517 00f8 0023     		movs	r3, #0
 518              	@ 333 "/home/formica/chibios/chibios/os/hal/platforms/STM32/i2c_lld.c" 1
 519 00fa 83F31188 		msr     BASEPRI, r3
 520              	@ 0 "" 2
 521              	.LVL44:
 522              		.thumb
 523 00fe 98E7     		b	.L21
 524              	.L37:
 525              		.align	2
 526              	.L36:
 527 0100 00000000 		.word	.LANCHOR0
 528              	.LBE26:
 529              	.LBE28:
 530              	.LBE30:
 531              		.cfi_endproc
 532              	.LFE70:
 533              		.size	VectorBC, .-VectorBC
 534 0104 AFF30080 		.section	.text.VectorC0,"ax",%progbits
 534      AFF30080 
 534      AFF30080 
 535              		.align	2
 536              		.p2align 4,,15
 537              		.global	VectorC0
 538              		.thumb
 539              		.thumb_func
 540              		.type	VectorC0, %function
 541              	VectorC0:
 542              	.LFB71:
 543              		.loc 1 476 0
 544              		.cfi_startproc
 545              		@ args = 0, pretend = 0, frame = 0
 546              		@ frame_needed = 0, uses_anonymous_args = 0
 547 0000 F8B5     		push	{r3, r4, r5, r6, r7, lr}
 548              	.LCFI5:
 549              		.cfi_def_cfa_offset 24
 550              		.cfi_offset 3, -24
 551              		.cfi_offset 4, -20
 552              		.cfi_offset 5, -16
 553              		.cfi_offset 6, -12
 554              		.cfi_offset 7, -8
 555              		.cfi_offset 14, -4
 556              	.LBB38:
 557              	.LBB39:
 558              		.loc 1 405 0
 559 0002 554D     		ldr	r5, .L69
 560              	.LBE39:
ARM GAS  /tmp/ccJEhE2E.s 			page 11


 561              	.LBE38:
 562              		.loc 1 478 0
 563 0004 FFF7FEFF 		bl	dbg_check_enter_isr
 564              	.LVL45:
 565              	.LBB47:
 566              	.LBB45:
 567              		.loc 1 405 0
 568 0008 2C6B     		ldr	r4, [r5, #48]
 569              	.LVL46:
 570              	.LBB40:
 571              		.loc 1 409 0
 572 000a 2023     		movs	r3, #32
 573              	.LVL47:
 574              	@ 409 "/home/formica/chibios/chibios/os/hal/platforms/STM32/i2c_lld.c" 1
 575 000c 83F31188 		msr     BASEPRI, r3
 576              	@ 0 "" 2
 577              	.LVL48:
 578              		.thumb
 579              	.LBE40:
 580 0010 FFF7FEFF 		bl	dbg_check_lock_from_isr
 581              	.LVL49:
 582              		.loc 1 410 0
 583 0014 EA6A     		ldr	r2, [r5, #44]
 584              		.loc 1 411 0
 585 0016 AB6A     		ldr	r3, [r5, #40]
 586              		.loc 1 410 0
 587 0018 1068     		ldr	r0, [r2, #0]
 588 001a 5668     		ldr	r6, [r2, #4]
 589 001c 0768     		ldr	r7, [r0, #0]
 590 001e 0F21     		movs	r1, #15
 591 0020 27F00107 		bic	r7, r7, #1
 592 0024 0760     		str	r7, [r0, #0]
 593 0026 107A     		ldrb	r0, [r2, #8]	@ zero_extendqisi2
 594              		.loc 1 411 0
 595 0028 1A68     		ldr	r2, [r3, #0]
 596              		.loc 1 410 0
 597 002a 01FA00F0 		lsl	r0, r1, r0
 598 002e 3060     		str	r0, [r6, #0]
 599              		.loc 1 411 0
 600 0030 1668     		ldr	r6, [r2, #0]
 601 0032 5868     		ldr	r0, [r3, #4]
 602 0034 26F00106 		bic	r6, r6, #1
 603 0038 1660     		str	r6, [r2, #0]
 604 003a 1B7A     		ldrb	r3, [r3, #8]	@ zero_extendqisi2
 605 003c 01FA03F1 		lsl	r1, r1, r3
 606 0040 0160     		str	r1, [r0, #0]
 607              		.loc 1 412 0
 608 0042 FFF7FEFF 		bl	dbg_check_unlock_from_isr
 609              	.LVL50:
 610              	.LBB41:
 611 0046 0023     		movs	r3, #0
 612              	.LVL51:
 613              	@ 412 "/home/formica/chibios/chibios/os/hal/platforms/STM32/i2c_lld.c" 1
 614 0048 83F31188 		msr     BASEPRI, r3
 615              	@ 0 "" 2
 616              	.LVL52:
 617              		.thumb
ARM GAS  /tmp/ccJEhE2E.s 			page 12


 618              	.LBE41:
 619              		.loc 1 416 0
 620 004c A18A     		ldrh	r1, [r4, #20]
 621 004e 01F48072 		and	r2, r1, #256
 622 0052 93B2     		uxth	r3, r2
 623              	.LVL53:
 624 0054 33B1     		cbz	r3, .L39
 625              		.loc 1 417 0
 626 0056 A08A     		ldrh	r0, [r4, #20]
 627              		.loc 1 418 0
 628 0058 0123     		movs	r3, #1
 629              		.loc 1 417 0
 630 005a 20F48071 		bic	r1, r0, #256
 631 005e 0A04     		lsls	r2, r1, #16
 632 0060 100C     		lsrs	r0, r2, #16
 633 0062 A082     		strh	r0, [r4, #20]	@ movhi
 634              	.LVL54:
 635              	.L39:
 636              		.loc 1 420 0
 637 0064 A18A     		ldrh	r1, [r4, #20]
 638 0066 01F40072 		and	r2, r1, #512
 639 006a 90B2     		uxth	r0, r2
 640 006c 38B1     		cbz	r0, .L40
 641              		.loc 1 421 0
 642 006e A18A     		ldrh	r1, [r4, #20]
 643              		.loc 1 422 0
 644 0070 43F00203 		orr	r3, r3, #2
 645              	.LVL55:
 646              		.loc 1 421 0
 647 0074 21F40072 		bic	r2, r1, #512
 648 0078 1004     		lsls	r0, r2, #16
 649 007a 010C     		lsrs	r1, r0, #16
 650 007c A182     		strh	r1, [r4, #20]	@ movhi
 651              	.L40:
 652              		.loc 1 424 0
 653 007e A28A     		ldrh	r2, [r4, #20]
 654 0080 02F48060 		and	r0, r2, #1024
 655 0084 81B2     		uxth	r1, r0
 656 0086 91B1     		cbz	r1, .L41
 657              		.loc 1 425 0
 658 0088 A28A     		ldrh	r2, [r4, #20]
 659              		.loc 1 428 0
 660 008a 43F00403 		orr	r3, r3, #4
 661              	.LVL56:
 662              		.loc 1 425 0
 663 008e 22F48060 		bic	r0, r2, #1024
 664 0092 0104     		lsls	r1, r0, #16
 665 0094 0A0C     		lsrs	r2, r1, #16
 666 0096 A282     		strh	r2, [r4, #20]	@ movhi
 667              		.loc 1 426 0
 668 0098 A088     		ldrh	r0, [r4, #4]
 669 009a 20F40071 		bic	r1, r0, #512
 670 009e 0A04     		lsls	r2, r1, #16
 671 00a0 100C     		lsrs	r0, r2, #16
 672 00a2 A080     		strh	r0, [r4, #4]	@ movhi
 673              		.loc 1 427 0
 674 00a4 2188     		ldrh	r1, [r4, #0]
ARM GAS  /tmp/ccJEhE2E.s 			page 13


 675 00a6 8AB2     		uxth	r2, r1
 676 00a8 42F40070 		orr	r0, r2, #512
 677 00ac 2080     		strh	r0, [r4, #0]	@ movhi
 678              	.L41:
 679              		.loc 1 430 0
 680 00ae A18A     		ldrh	r1, [r4, #20]
 681 00b0 01F40062 		and	r2, r1, #2048
 682 00b4 90B2     		uxth	r0, r2
 683 00b6 38B1     		cbz	r0, .L42
 684              		.loc 1 431 0
 685 00b8 A18A     		ldrh	r1, [r4, #20]
 686              		.loc 1 432 0
 687 00ba 43F00803 		orr	r3, r3, #8
 688              	.LVL57:
 689              		.loc 1 431 0
 690 00be 21F40062 		bic	r2, r1, #2048
 691 00c2 1004     		lsls	r0, r2, #16
 692 00c4 010C     		lsrs	r1, r0, #16
 693 00c6 A182     		strh	r1, [r4, #20]	@ movhi
 694              	.L42:
 695              		.loc 1 434 0
 696 00c8 A28A     		ldrh	r2, [r4, #20]
 697 00ca 02F48050 		and	r0, r2, #4096
 698 00ce 81B2     		uxth	r1, r0
 699 00d0 39B1     		cbz	r1, .L43
 700              		.loc 1 435 0
 701 00d2 A28A     		ldrh	r2, [r4, #20]
 702              		.loc 1 436 0
 703 00d4 43F01003 		orr	r3, r3, #16
 704              	.LVL58:
 705              		.loc 1 435 0
 706 00d8 22F48050 		bic	r0, r2, #4096
 707 00dc 0104     		lsls	r1, r0, #16
 708 00de 0A0C     		lsrs	r2, r1, #16
 709 00e0 A282     		strh	r2, [r4, #20]	@ movhi
 710              	.L43:
 711              		.loc 1 438 0
 712 00e2 A08A     		ldrh	r0, [r4, #20]
 713 00e4 00F48041 		and	r1, r0, #16384
 714 00e8 8AB2     		uxth	r2, r1
 715 00ea 0AB3     		cbz	r2, .L44
 716              		.loc 1 439 0
 717 00ec A28A     		ldrh	r2, [r4, #20]
 718              		.loc 1 440 0
 719 00ee 43F02003 		orr	r3, r3, #32
 720              	.LVL59:
 721              		.loc 1 439 0
 722 00f2 22F48040 		bic	r0, r2, #16384
 723 00f6 0104     		lsls	r1, r0, #16
 724 00f8 0A0C     		lsrs	r2, r1, #16
 725 00fa A282     		strh	r2, [r4, #20]	@ movhi
 726              		.loc 1 442 0
 727 00fc A08A     		ldrh	r0, [r4, #20]
 728 00fe 01B2     		sxth	r1, r0
 729 0100 0029     		cmp	r1, #0
 730 0102 21DB     		blt	.L45
 731              	.L46:
ARM GAS  /tmp/ccJEhE2E.s 			page 14


 732              		.loc 1 449 0
 733 0104 AB60     		str	r3, [r5, #8]
 734              	.LBB42:
 735              		.loc 1 450 0
 736 0106 2023     		movs	r3, #32
 737              	.LVL60:
 738              	@ 450 "/home/formica/chibios/chibios/os/hal/platforms/STM32/i2c_lld.c" 1
 739 0108 83F31188 		msr     BASEPRI, r3
 740              	@ 0 "" 2
 741              	.LVL61:
 742              		.thumb
 743              	.LBE42:
 744 010c FFF7FEFF 		bl	dbg_check_lock_from_isr
 745              	.LVL62:
 746 0110 E869     		ldr	r0, [r5, #28]
 747 0112 38B1     		cbz	r0, .L49
 748              	.LVL63:
 749              	.LBB43:
 750 0114 6FF00102 		mvn	r2, #1
 751 0118 0F4B     		ldr	r3, .L69
 752 011a 0021     		movs	r1, #0
 753 011c 8262     		str	r2, [r0, #40]
 754 011e D961     		str	r1, [r3, #28]
 755 0120 FFF7FEFF 		bl	chSchReadyI
 756              	.LVL64:
 757              	.L49:
 758              	.LBE43:
 759 0124 FFF7FEFF 		bl	dbg_check_unlock_from_isr
 760              	.LVL65:
 761              	.LBB44:
 762 0128 0023     		movs	r3, #0
 763              	.LVL66:
 764              	@ 450 "/home/formica/chibios/chibios/os/hal/platforms/STM32/i2c_lld.c" 1
 765 012a 83F31188 		msr     BASEPRI, r3
 766              	@ 0 "" 2
 767              	.LVL67:
 768              		.thumb
 769 012e 05E0     		b	.L48
 770              	.LVL68:
 771              	.L44:
 772              	.LBE44:
 773              		.loc 1 442 0
 774 0130 A08A     		ldrh	r0, [r4, #20]
 775 0132 01B2     		sxth	r1, r0
 776 0134 0029     		cmp	r1, #0
 777 0136 07DB     		blt	.L45
 778              		.loc 1 448 0
 779 0138 002B     		cmp	r3, #0
 780 013a E3D1     		bne	.L46
 781              	.LVL69:
 782              	.L48:
 783              	.LBE45:
 784              	.LBE47:
 785              		.loc 1 482 0
 786 013c FFF7FEFF 		bl	dbg_check_leave_isr
 787              	.LVL70:
 788              		.loc 1 483 0
ARM GAS  /tmp/ccJEhE2E.s 			page 15


 789 0140 BDE8F840 		pop	{r3, r4, r5, r6, r7, lr}
 790              		.loc 1 482 0
 791 0144 FFF7FEBF 		b	_port_irq_epilogue
 792              	.LVL71:
 793              	.L45:
 794              	.LBB48:
 795              	.LBB46:
 796              		.loc 1 443 0
 797 0148 A28A     		ldrh	r2, [r4, #20]
 798              		.loc 1 444 0
 799 014a 43F04003 		orr	r3, r3, #64
 800              	.LVL72:
 801              		.loc 1 443 0
 802 014e 5004     		lsls	r0, r2, #17
 803 0150 410C     		lsrs	r1, r0, #17
 804 0152 A182     		strh	r1, [r4, #20]	@ movhi
 805 0154 D6E7     		b	.L46
 806              	.L70:
 807 0156 00BF     		.align	2
 808              	.L69:
 809 0158 00000000 		.word	.LANCHOR0
 810              	.LBE46:
 811              	.LBE48:
 812              		.cfi_endproc
 813              	.LFE71:
 814              		.size	VectorC0, .-VectorC0
 815 015c AFF30080 		.section	.text.i2c_lld_init,"ax",%progbits
 816              		.align	2
 817              		.p2align 4,,15
 818              		.global	i2c_lld_init
 819              		.thumb
 820              		.thumb_func
 821              		.type	i2c_lld_init, %function
 822              	i2c_lld_init:
 823              	.LFB72:
 824              		.loc 1 555 0
 825              		.cfi_startproc
 826              		@ args = 0, pretend = 0, frame = 0
 827              		@ frame_needed = 0, uses_anonymous_args = 0
 828 0000 10B5     		push	{r4, lr}
 829              	.LCFI6:
 830              		.cfi_def_cfa_offset 8
 831              		.cfi_offset 4, -8
 832              		.cfi_offset 14, -4
 833              		.loc 1 558 0
 834 0002 40F20004 		movw	r4, #:lower16:.LANCHOR0
 835 0006 C0F20004 		movt	r4, #:upper16:.LANCHOR0
 836 000a 2046     		mov	r0, r4
 837 000c FFF7FEFF 		bl	i2cObjectInit
 838              	.LVL73:
 839              		.loc 1 561 0
 840 0010 064B     		ldr	r3, .L72
 841              		.loc 1 560 0
 842 0012 4FF4A842 		mov	r2, #21504
 843 0016 C4F20002 		movt	r2, 16384
 844              		.loc 1 562 0
 845 001a A3F10C01 		sub	r1, r3, #12
ARM GAS  /tmp/ccJEhE2E.s 			page 16


 846              		.loc 1 559 0
 847 001e 0020     		movs	r0, #0
 848 0020 E061     		str	r0, [r4, #28]
 849              		.loc 1 560 0
 850 0022 2263     		str	r2, [r4, #48]
 851              		.loc 1 561 0
 852 0024 A362     		str	r3, [r4, #40]
 853              		.loc 1 562 0
 854 0026 E162     		str	r1, [r4, #44]
 855 0028 10BD     		pop	{r4, pc}
 856              	.L73:
 857 002a 00BF     		.align	2
 858              	.L72:
 859 002c 48000000 		.word	_stm32_dma_streams+72
 860              		.cfi_endproc
 861              	.LFE72:
 862              		.size	i2c_lld_init, .-i2c_lld_init
 863              		.section	.text.i2c_lld_start,"ax",%progbits
 864              		.align	2
 865              		.p2align 4,,15
 866              		.global	i2c_lld_start
 867              		.thumb
 868              		.thumb_func
 869              		.type	i2c_lld_start, %function
 870              	i2c_lld_start:
 871              	.LFB73:
 872              		.loc 1 589 0
 873              		.cfi_startproc
 874              		@ args = 0, pretend = 0, frame = 0
 875              		@ frame_needed = 0, uses_anonymous_args = 0
 876              	.LVL74:
 877              		.loc 1 597 0
 878 0000 0278     		ldrb	r2, [r0, #0]	@ zero_extendqisi2
 879              		.loc 1 592 0
 880 0002 8A23     		movs	r3, #138
 881              		.loc 1 597 0
 882 0004 012A     		cmp	r2, #1
 883              		.loc 1 589 0
 884 0006 2DE9F041 		push	{r4, r5, r6, r7, r8, lr}
 885              	.LCFI7:
 886              		.cfi_def_cfa_offset 24
 887              		.cfi_offset 4, -24
 888              		.cfi_offset 5, -20
 889              		.cfi_offset 6, -16
 890              		.cfi_offset 7, -12
 891              		.cfi_offset 8, -8
 892              		.cfi_offset 14, -4
 893              		.loc 1 589 0
 894 000a 0446     		mov	r4, r0
 895              		.loc 1 592 0
 896 000c 4362     		str	r3, [r0, #36]
 897              		.loc 1 590 0
 898 000e 056B     		ldr	r5, [r0, #48]
 899              	.LVL75:
 900              		.loc 1 597 0
 901 0010 00F08D80 		beq	.L119
 902              	.L97:
ARM GAS  /tmp/ccJEhE2E.s 			page 17


 903              		.loc 1 590 0
 904 0014 2E46     		mov	r6, r5
 905              		.loc 1 600 0
 906 0016 4FF09A08 		mov	r8, #154
 907 001a 9C46     		mov	ip, r3
 908              	.LVL76:
 909              	.L75:
 910              	.LBB54:
 911              	.LBB55:
 912              		.loc 1 194 0
 913 001c 6068     		ldr	r0, [r4, #4]
 914              	.LBE55:
 915              	.LBE54:
 916              		.loc 1 679 0
 917 001e E76A     		ldr	r7, [r4, #44]
 918              		.loc 1 680 0
 919 0020 A26A     		ldr	r2, [r4, #40]
 920              		.loc 1 679 0
 921 0022 3B68     		ldr	r3, [r7, #0]
 922              		.loc 1 680 0
 923 0024 1168     		ldr	r1, [r2, #0]
 924              	.LBB64:
 925              	.LBB56:
 926              		.loc 1 194 0
 927 0026 4768     		ldr	r7, [r0, #4]
 928              	.LBE56:
 929              	.LBE64:
 930              		.loc 1 683 0
 931 0028 05F11002 		add	r2, r5, #16
 932              		.loc 1 679 0
 933 002c C3F80080 		str	r8, [r3, #0]
 934              	.LBB65:
 935              	.LBB57:
 936              		.loc 1 195 0
 937 0030 90F80880 		ldrb	r8, [r0, #8]	@ zero_extendqisi2
 938              	.LBE57:
 939              	.LBE65:
 940              		.loc 1 680 0
 941 0034 C1F800C0 		str	ip, [r1, #0]
 942              		.loc 1 687 0
 943 0038 4FF40040 		mov	r0, #32768
 944              		.loc 1 683 0
 945 003c 8A60     		str	r2, [r1, #8]
 946              		.loc 1 684 0
 947 003e 9A60     		str	r2, [r3, #8]
 948              		.loc 1 689 0
 949 0040 4FF41061 		mov	r1, #2304
 950              		.loc 1 688 0
 951 0044 0023     		movs	r3, #0
 952              	.LBB66:
 953              	.LBB58:
 954              		.loc 1 197 0
 955 0046 002F     		cmp	r7, #0
 956              	.LBE58:
 957              	.LBE66:
 958              		.loc 1 687 0
 959 0048 2880     		strh	r0, [r5, #0]	@ movhi
ARM GAS  /tmp/ccJEhE2E.s 			page 18


 960              		.loc 1 688 0
 961 004a 2B80     		strh	r3, [r5, #0]	@ movhi
 962              		.loc 1 689 0
 963 004c A980     		strh	r1, [r5, #4]	@ movhi
 964              	.LVL77:
 965              	.LBB67:
 966              	.LBB59:
 967              		.loc 1 197 0
 968 004e 56DD     		ble	.L78
 969 0050 C0F23D01 		movt	r1, 61
 970 0054 8F42     		cmp	r7, r1
 971 0056 52DC     		bgt	.L78
 972              	.LVL78:
 973              	.L79:
 974              		.loc 1 201 0
 975 0058 B088     		ldrh	r0, [r6, #4]
 976              		.loc 1 208 0
 977 005a 48F2A062 		movw	r2, #34464
 978              		.loc 1 201 0
 979 005e 20F03F03 		bic	r3, r0, #63
 980 0062 1904     		lsls	r1, r3, #16
 981 0064 080C     		lsrs	r0, r1, #16
 982 0066 B080     		strh	r0, [r6, #4]	@ movhi
 983              		.loc 1 202 0
 984 0068 B388     		ldrh	r3, [r6, #4]
 985              		.loc 1 208 0
 986 006a C0F20102 		movt	r2, 1
 987              		.loc 1 202 0
 988 006e 99B2     		uxth	r1, r3
 989 0070 41F02400 		orr	r0, r1, #36
 990              		.loc 1 208 0
 991 0074 9742     		cmp	r7, r2
 992              		.loc 1 202 0
 993 0076 B080     		strh	r0, [r6, #4]	@ movhi
 994              	.LVL79:
 995              		.loc 1 208 0
 996 0078 45DC     		bgt	.L80
 997              		.loc 1 210 0
 998 007a B8F1010F 		cmp	r8, #1
 999 007e 02D0     		beq	.L81
 1000 0080 7B48     		ldr	r0, .L126
 1001 0082 FFF7FEFF 		bl	chDbgPanic
 1002              	.LVL80:
 1003              	.L81:
 1004              		.loc 1 215 0
 1005 0086 4FF4A240 		mov	r0, #20736
 1006 008a 7F00     		lsls	r7, r7, #1
 1007              	.LVL81:
 1008 008c C0F22520 		movt	r0, 549
 1009 0090 90FBF7F2 		sdiv	r2, r0, r7
 1010 0094 07FB02F1 		mul	r1, r7, r2
 1011 0098 4FF4A243 		mov	r3, #20736
 1012 009c C0F22523 		movt	r3, 549
 1013 00a0 581A     		subs	r0, r3, r1
 1014 00a2 0028     		cmp	r0, #0
 1015 00a4 40F08C80 		bne	.L120
 1016              	.L82:
ARM GAS  /tmp/ccJEhE2E.s 			page 19


 1017              		.loc 1 218 0
 1018 00a8 4FF4A242 		mov	r2, #20736
 1019 00ac C0F22522 		movt	r2, 549
 1020 00b0 92FBF7F7 		sdiv	r7, r2, r7
 1021 00b4 B9B2     		uxth	r1, r7
 1022              	.LVL82:
 1023              		.loc 1 220 0
 1024 00b6 0329     		cmp	r1, #3
 1025 00b8 7AD9     		bls	.L121
 1026              		.loc 1 223 0
 1027 00ba 3B05     		lsls	r3, r7, #20
 1028              		.loc 1 226 0
 1029 00bc 2520     		movs	r0, #37
 1030              		.loc 1 223 0
 1031 00be 1F0D     		lsrs	r7, r3, #20
 1032              	.LVL83:
 1033              		.loc 1 259 0
 1034 00c0 B1F5805F 		cmp	r1, #4096
 1035              		.loc 1 226 0
 1036 00c4 3084     		strh	r0, [r6, #32]	@ movhi
 1037              		.loc 1 259 0
 1038 00c6 02D3     		bcc	.L84
 1039 00c8 6A48     		ldr	r0, .L126+4
 1040 00ca FFF7FEFF 		bl	chDbgPanic
 1041              	.LVL84:
 1042              	.L84:
 1043              	.LBE59:
 1044              	.LBE67:
 1045              	.LBB68:
 1046              	.LBB69:
 1047              		.loc 1 274 0
 1048 00ce 6268     		ldr	r2, [r4, #4]
 1049              		.loc 1 273 0
 1050 00d0 206B     		ldr	r0, [r4, #48]
 1051              		.loc 1 278 0
 1052 00d2 1178     		ldrb	r1, [r2, #0]	@ zero_extendqisi2
 1053              	.LBE69:
 1054              	.LBE68:
 1055              	.LBB73:
 1056              	.LBB60:
 1057              		.loc 1 262 0
 1058 00d4 B783     		strh	r7, [r6, #28]	@ movhi
 1059              	.LVL85:
 1060              	.LBE60:
 1061              	.LBE73:
 1062              	.LBB74:
 1063              	.LBB70:
 1064              		.loc 1 277 0
 1065 00d6 0388     		ldrh	r3, [r0, #0]
 1066              		.loc 1 278 0
 1067 00d8 0229     		cmp	r1, #2
 1068              		.loc 1 277 0
 1069 00da 9BB2     		uxth	r3, r3
 1070              	.LVL86:
 1071              		.loc 1 278 0
 1072 00dc 62D0     		beq	.L94
 1073 00de 0329     		cmp	r1, #3
ARM GAS  /tmp/ccJEhE2E.s 			page 20


 1074 00e0 5DD0     		beq	.L95
 1075 00e2 0129     		cmp	r1, #1
 1076 00e4 03D1     		bne	.L92
 1077              		.loc 1 280 0
 1078 00e6 23F00A02 		bic	r2, r3, #10
 1079 00ea 1304     		lsls	r3, r2, #16
 1080              	.LVL87:
 1081 00ec 1B0C     		lsrs	r3, r3, #16
 1082              	.LVL88:
 1083              	.L92:
 1084              		.loc 1 290 0
 1085 00ee 0380     		strh	r3, [r0, #0]	@ movhi
 1086              	.LBE70:
 1087              	.LBE74:
 1088              		.loc 1 696 0
 1089 00f0 2888     		ldrh	r0, [r5, #0]
 1090              	.LVL89:
 1091 00f2 82B2     		uxth	r2, r0
 1092 00f4 42F00103 		orr	r3, r2, #1
 1093              	.LVL90:
 1094 00f8 2B80     		strh	r3, [r5, #0]	@ movhi
 1095 00fa BDE8F081 		pop	{r4, r5, r6, r7, r8, pc}
 1096              	.LVL91:
 1097              	.L78:
 1098              	.LBB75:
 1099              	.LBB61:
 1100              		.loc 1 197 0
 1101 00fe 5E48     		ldr	r0, .L126+8
 1102 0100 FFF7FEFF 		bl	chDbgPanic
 1103              	.LVL92:
 1104 0104 A8E7     		b	.L79
 1105              	.LVL93:
 1106              	.L80:
 1107              		.loc 1 228 0
 1108 0106 4FF4D452 		mov	r2, #6784
 1109 010a C0F20602 		movt	r2, 6
 1110 010e 9742     		cmp	r7, r2
 1111 0110 0BDC     		bgt	.L98
 1112              		.loc 1 230 0
 1113 0112 A8F10203 		sub	r3, r8, #2
 1114 0116 012B     		cmp	r3, #1
 1115 0118 56D9     		bls	.L87
 1116 011a 5848     		ldr	r0, .L126+12
 1117 011c FFF7FEFF 		bl	chDbgPanic
 1118              	.LVL94:
 1119 0120 48F6FF77 		movw	r7, #36863
 1120              	.LVL95:
 1121              	.L88:
 1122              		.loc 1 256 0
 1123 0124 0B21     		movs	r1, #11
 1124 0126 3184     		strh	r1, [r6, #32]	@ movhi
 1125 0128 D1E7     		b	.L84
 1126              	.LVL96:
 1127              	.L98:
 1128              		.loc 1 205 0
 1129 012a 0027     		movs	r7, #0
 1130              	.LVL97:
ARM GAS  /tmp/ccJEhE2E.s 			page 21


 1131 012c CFE7     		b	.L84
 1132              	.LVL98:
 1133              	.L119:
 1134              	.LBE61:
 1135              	.LBE75:
 1136              		.loc 1 600 0
 1137 012e 544F     		ldr	r7, .L126+16
 1138 0130 B842     		cmp	r0, r7
 1139 0132 7FF46FAF 		bne	.L97
 1140              	.LBB76:
 1141              		.loc 1 603 0
 1142 0136 4FF48051 		mov	r1, #4096
 1143 013a C4F20201 		movt	r1, 16386
 1144 013e 0869     		ldr	r0, [r1, #16]
 1145              	.LVL99:
 1146 0140 0022     		movs	r2, #0
 1147 0142 40F40016 		orr	r6, r0, #2097152
 1148 0146 0E61     		str	r6, [r1, #16]
 1149              		.loc 1 604 0
 1150 0148 A06A     		ldr	r0, [r4, #40]
 1151 014a 2346     		mov	r3, r4
 1152              		.loc 1 603 0
 1153 014c 0A61     		str	r2, [r1, #16]
 1154              		.loc 1 604 0
 1155 014e 0A21     		movs	r1, #10
 1156 0150 4C4A     		ldr	r2, .L126+20
 1157 0152 FFF7FEFF 		bl	dmaStreamAllocate
 1158              	.LVL100:
 1159              		.loc 1 608 0
 1160 0156 0028     		cmp	r0, #0
 1161 0158 40F08280 		bne	.L122
 1162              	.LVL101:
 1163              	.L76:
 1164              		.loc 1 609 0
 1165 015c F86A     		ldr	r0, [r7, #44]
 1166 015e 0A21     		movs	r1, #10
 1167 0160 494A     		ldr	r2, .L126+24
 1168 0162 474B     		ldr	r3, .L126+16
 1169 0164 FFF7FEFF 		bl	dmaStreamAllocate
 1170              	.LVL102:
 1171              		.loc 1 613 0
 1172 0168 0028     		cmp	r0, #0
 1173 016a 75D1     		bne	.L123
 1174              	.LVL103:
 1175              	.L77:
 1176              		.loc 1 614 0
 1177 016c 4FF48053 		mov	r3, #4096
 1178 0170 C4F20203 		movt	r3, 16386
 1179 0174 D969     		ldr	r1, [r3, #28]
 1180              		.loc 1 615 0
 1181 0176 1F20     		movs	r0, #31
 1182              		.loc 1 614 0
 1183 0178 41F40016 		orr	r6, r1, #2097152
 1184 017c DE61     		str	r6, [r3, #28]
 1185              		.loc 1 615 0
 1186 017e A021     		movs	r1, #160
 1187 0180 FFF7FEFF 		bl	nvicEnableVector
ARM GAS  /tmp/ccJEhE2E.s 			page 22


 1188              	.LVL104:
 1189              		.loc 1 617 0
 1190 0184 2020     		movs	r0, #32
 1191 0186 A021     		movs	r1, #160
 1192 0188 FFF7FEFF 		bl	nvicEnableVector
 1193              	.LVL105:
 1194              		.loc 1 620 0
 1195 018c 786A     		ldr	r0, [r7, #36]
 1196 018e 3E6B     		ldr	r6, [r7, #48]
 1197 0190 40F4805C 		orr	ip, r0, #4096
 1198 0194 C7F824C0 		str	ip, [r7, #36]
 1199 0198 4CF01008 		orr	r8, ip, #16
 1200 019c 3EE7     		b	.L75
 1201              	.LVL106:
 1202              	.L95:
 1203              	.LBE76:
 1204              	.LBB77:
 1205              	.LBB71:
 1206              		.loc 1 287 0
 1207 019e 43F00A03 		orr	r3, r3, #10
 1208              	.LVL107:
 1209 01a2 A4E7     		b	.L92
 1210              	.L94:
 1211              	.LVL108:
 1212              	.LBE71:
 1213              		.loc 1 284 0
 1214 01a4 4FF6F771 		movw	r1, #65527
 1215 01a8 1940     		ands	r1, r1, r3
 1216              	.LBB72:
 1217 01aa 41F00203 		orr	r3, r1, #2
 1218              	.LVL109:
 1219 01ae 9EE7     		b	.L92
 1220              	.LVL110:
 1221              	.L121:
 1222              	.LBE72:
 1223              	.LBE77:
 1224              	.LBB78:
 1225              	.LBB62:
 1226              		.loc 1 220 0
 1227 01b0 3648     		ldr	r0, .L126+28
 1228 01b2 FFF7FEFF 		bl	chDbgPanic
 1229              	.LVL111:
 1230              		.loc 1 223 0
 1231 01b6 3A05     		lsls	r2, r7, #20
 1232              		.loc 1 226 0
 1233 01b8 2521     		movs	r1, #37
 1234              		.loc 1 223 0
 1235 01ba 170D     		lsrs	r7, r2, #20
 1236              	.LVL112:
 1237              		.loc 1 226 0
 1238 01bc 3184     		strh	r1, [r6, #32]	@ movhi
 1239 01be 86E7     		b	.L84
 1240              	.LVL113:
 1241              	.L120:
 1242              		.loc 1 215 0
 1243 01c0 3348     		ldr	r0, .L126+32
 1244 01c2 FFF7FEFF 		bl	chDbgPanic
ARM GAS  /tmp/ccJEhE2E.s 			page 23


 1245              	.LVL114:
 1246 01c6 6FE7     		b	.L82
 1247              	.LVL115:
 1248              	.L87:
 1249              		.loc 1 234 0
 1250 01c8 B8F1020F 		cmp	r8, #2
 1251 01cc 1FD1     		bne	.L89
 1252              		.loc 1 236 0
 1253 01ce 4FF4A241 		mov	r1, #20736
 1254 01d2 07EB4707 		add	r7, r7, r7, lsl #1
 1255              	.LVL116:
 1256 01d6 C0F22521 		movt	r1, 549
 1257 01da 91FBF7F0 		sdiv	r0, r1, r7
 1258 01de 07FB00F2 		mul	r2, r7, r0
 1259 01e2 4FF4A243 		mov	r3, #20736
 1260 01e6 C0F22523 		movt	r3, 549
 1261 01ea 991A     		subs	r1, r3, r2
 1262 01ec 59B9     		cbnz	r1, .L124
 1263              	.L90:
 1264              		.loc 1 239 0
 1265 01ee 4FF4A240 		mov	r0, #20736
 1266 01f2 C0F22520 		movt	r0, 549
 1267 01f6 90FBF7F7 		sdiv	r7, r0, r7
 1268              	.LVL117:
 1269 01fa 6FEA4742 		mvn	r2, r7, lsl #17
 1270 01fe 6FEA5243 		mvn	r3, r2, lsr #17
 1271 0202 9FB2     		uxth	r7, r3
 1272              	.LVL118:
 1273 0204 8EE7     		b	.L88
 1274              	.LVL119:
 1275              	.L124:
 1276              		.loc 1 236 0
 1277 0206 2348     		ldr	r0, .L126+36
 1278 0208 FFF7FEFF 		bl	chDbgPanic
 1279              	.LVL120:
 1280 020c EFE7     		b	.L90
 1281              	.LVL121:
 1282              	.L89:
 1283              		.loc 1 241 0
 1284 020e B8F1030F 		cmp	r8, #3
 1285 0212 29D1     		bne	.L99
 1286              		.loc 1 243 0
 1287 0214 07EB8707 		add	r7, r7, r7, lsl #2
 1288              	.LVL122:
 1289 0218 4FF4A241 		mov	r1, #20736
 1290 021c 07EB8707 		add	r7, r7, r7, lsl #2
 1291 0220 C0F22521 		movt	r1, 549
 1292 0224 91FBF7F0 		sdiv	r0, r1, r7
 1293 0228 07FB00F2 		mul	r2, r7, r0
 1294 022c 4FF4A243 		mov	r3, #20736
 1295 0230 C0F22523 		movt	r3, 549
 1296 0234 991A     		subs	r1, r3, r2
 1297 0236 59B9     		cbnz	r1, .L125
 1298              	.L91:
 1299              		.loc 1 246 0
 1300 0238 4FF4A240 		mov	r0, #20736
 1301 023c C0F22520 		movt	r0, 549
ARM GAS  /tmp/ccJEhE2E.s 			page 24


 1302 0240 90FBF7F7 		sdiv	r7, r0, r7
 1303              	.LVL123:
 1304 0244 6FEA8742 		mvn	r2, r7, lsl #18
 1305 0248 6FEA9243 		mvn	r3, r2, lsr #18
 1306 024c 9FB2     		uxth	r7, r3
 1307              	.LVL124:
 1308 024e 69E7     		b	.L88
 1309              	.LVL125:
 1310              	.L125:
 1311              		.loc 1 243 0
 1312 0250 1148     		ldr	r0, .L126+40
 1313 0252 FFF7FEFF 		bl	chDbgPanic
 1314              	.LVL126:
 1315 0256 EFE7     		b	.L91
 1316              	.LVL127:
 1317              	.L123:
 1318              	.LBE62:
 1319              	.LBE78:
 1320              	.LBB79:
 1321              		.loc 1 613 0 discriminator 1
 1322 0258 1048     		ldr	r0, .L126+44
 1323              	.LVL128:
 1324 025a FFF7FEFF 		bl	chDbgPanic
 1325              	.LVL129:
 1326 025e 85E7     		b	.L77
 1327              	.LVL130:
 1328              	.L122:
 1329              		.loc 1 608 0 discriminator 1
 1330 0260 0F48     		ldr	r0, .L126+48
 1331              	.LVL131:
 1332 0262 FFF7FEFF 		bl	chDbgPanic
 1333              	.LVL132:
 1334 0266 79E7     		b	.L76
 1335              	.LVL133:
 1336              	.L99:
 1337              	.LBE79:
 1338              	.LBB80:
 1339              	.LBB63:
 1340              		.loc 1 241 0
 1341 0268 48F6FF77 		movw	r7, #36863
 1342              	.LVL134:
 1343 026c 5AE7     		b	.L88
 1344              	.L127:
 1345 026e 00BF     		.align	2
 1346              	.L126:
 1347 0270 40000000 		.word	.LC3
 1348 0274 D0000000 		.word	.LC9
 1349 0278 28000000 		.word	.LC2
 1350 027c 88000000 		.word	.LC6
 1351 0280 00000000 		.word	.LANCHOR0
 1352 0284 00000000 		.word	i2c_lld_serve_rx_end_irq
 1353 0288 00000000 		.word	i2c_lld_serve_tx_end_irq
 1354 028c 70000000 		.word	.LC5
 1355 0290 58000000 		.word	.LC4
 1356 0294 A0000000 		.word	.LC7
 1357 0298 B8000000 		.word	.LC8
 1358 029c 14000000 		.word	.LC1
ARM GAS  /tmp/ccJEhE2E.s 			page 25


 1359 02a0 00000000 		.word	.LC0
 1360              	.LBE63:
 1361              	.LBE80:
 1362              		.cfi_endproc
 1363              	.LFE73:
 1364              		.size	i2c_lld_start, .-i2c_lld_start
 1365 02a4 AFF30080 		.section	.text.i2c_lld_stop,"ax",%progbits
 1365      AFF30080 
 1365      AFF30080 
 1366              		.align	2
 1367              		.p2align 4,,15
 1368              		.global	i2c_lld_stop
 1369              		.thumb
 1370              		.thumb_func
 1371              		.type	i2c_lld_stop, %function
 1372              	i2c_lld_stop:
 1373              	.LFB74:
 1374              		.loc 1 706 0
 1375              		.cfi_startproc
 1376              		@ args = 0, pretend = 0, frame = 0
 1377              		@ frame_needed = 0, uses_anonymous_args = 0
 1378              	.LVL135:
 1379              		.loc 1 709 0
 1380 0000 0378     		ldrb	r3, [r0, #0]	@ zero_extendqisi2
 1381              		.loc 1 706 0
 1382 0002 10B5     		push	{r4, lr}
 1383              	.LCFI8:
 1384              		.cfi_def_cfa_offset 8
 1385              		.cfi_offset 4, -8
 1386              		.cfi_offset 14, -4
 1387              		.loc 1 709 0
 1388 0004 012B     		cmp	r3, #1
 1389              		.loc 1 706 0
 1390 0006 0446     		mov	r4, r0
 1391              		.loc 1 709 0
 1392 0008 0AD0     		beq	.L128
 1393              		.loc 1 712 0
 1394 000a FFF7FEFF 		bl	i2c_lld_abort_operation
 1395              	.LVL136:
 1396              		.loc 1 713 0
 1397 000e E06A     		ldr	r0, [r4, #44]
 1398 0010 FFF7FEFF 		bl	dmaStreamRelease
 1399              	.LVL137:
 1400              		.loc 1 714 0
 1401 0014 A06A     		ldr	r0, [r4, #40]
 1402 0016 FFF7FEFF 		bl	dmaStreamRelease
 1403              	.LVL138:
 1404              		.loc 1 717 0
 1405 001a 0948     		ldr	r0, .L133
 1406 001c 8442     		cmp	r4, r0
 1407 001e 00D0     		beq	.L132
 1408              	.L128:
 1409 0020 10BD     		pop	{r4, pc}
 1410              	.L132:
 1411              		.loc 1 718 0
 1412 0022 1F20     		movs	r0, #31
 1413 0024 FFF7FEFF 		bl	nvicDisableVector
ARM GAS  /tmp/ccJEhE2E.s 			page 26


 1414              	.LVL139:
 1415              		.loc 1 719 0
 1416 0028 2020     		movs	r0, #32
 1417 002a FFF7FEFF 		bl	nvicDisableVector
 1418              	.LVL140:
 1419              		.loc 1 720 0
 1420 002e 4FF48051 		mov	r1, #4096
 1421 0032 C4F20201 		movt	r1, 16386
 1422 0036 CA69     		ldr	r2, [r1, #28]
 1423 0038 22F40013 		bic	r3, r2, #2097152
 1424 003c CB61     		str	r3, [r1, #28]
 1425 003e EFE7     		b	.L128
 1426              	.L134:
 1427              		.align	2
 1428              	.L133:
 1429 0040 00000000 		.word	.LANCHOR0
 1430              		.cfi_endproc
 1431              	.LFE74:
 1432              		.size	i2c_lld_stop, .-i2c_lld_stop
 1433 0044 AFF30080 		.section	.text.i2c_lld_master_receive_timeout,"ax",%progbits
 1433      AFF30080 
 1433      AFF30080 
 1434              		.align	2
 1435              		.p2align 4,,15
 1436              		.global	i2c_lld_master_receive_timeout
 1437              		.thumb
 1438              		.thumb_func
 1439              		.type	i2c_lld_master_receive_timeout, %function
 1440              	i2c_lld_master_receive_timeout:
 1441              	.LFB75:
 1442              		.loc 1 767 0
 1443              		.cfi_startproc
 1444              		@ args = 4, pretend = 0, frame = 24
 1445              		@ frame_needed = 0, uses_anonymous_args = 0
 1446              	.LVL141:
 1447 0000 2DE9F043 		push	{r4, r5, r6, r7, r8, r9, lr}
 1448              	.LCFI9:
 1449              		.cfi_def_cfa_offset 28
 1450              		.cfi_offset 4, -28
 1451              		.cfi_offset 5, -24
 1452              		.cfi_offset 6, -20
 1453              		.cfi_offset 7, -16
 1454              		.cfi_offset 8, -12
 1455              		.cfi_offset 9, -8
 1456              		.cfi_offset 14, -4
 1457              		.loc 1 772 0
 1458 0004 012B     		cmp	r3, #1
 1459              		.loc 1 767 0
 1460 0006 87B0     		sub	sp, sp, #28
 1461              	.LCFI10:
 1462              		.cfi_def_cfa_offset 56
 1463              		.loc 1 767 0
 1464 0008 0646     		mov	r6, r0
 1465 000a 1F46     		mov	r7, r3
 1466 000c 8946     		mov	r9, r1
 1467 000e 9046     		mov	r8, r2
 1468 0010 0E9D     		ldr	r5, [sp, #56]
ARM GAS  /tmp/ccJEhE2E.s 			page 27


 1469              		.loc 1 768 0
 1470 0012 046B     		ldr	r4, [r0, #48]
 1471              	.LVL142:
 1472              		.loc 1 772 0
 1473 0014 58D9     		bls	.L158
 1474              	.LVL143:
 1475              	.L136:
 1476              		.loc 1 776 0
 1477 0016 6B1C     		adds	r3, r5, #1
 1478 0018 05D0     		beq	.L137
 1479              		.loc 1 777 0
 1480 001a 01A8     		add	r0, sp, #4
 1481 001c 2946     		mov	r1, r5
 1482 001e 354A     		ldr	r2, .L160
 1483 0020 3346     		mov	r3, r6
 1484 0022 FFF7FEFF 		bl	chVTSetI
 1485              	.LVL144:
 1486              	.L137:
 1487              		.loc 1 780 0
 1488 0026 FFF7FEFF 		bl	dbg_check_unlock
 1489              	.LVL145:
 1490              	.LBB81:
 1491 002a 0023     		movs	r3, #0
 1492              	.LVL146:
 1493              	@ 780 "/home/formica/chibios/chibios/os/hal/platforms/STM32/i2c_lld.c" 1
 1494 002c 83F31188 		msr     BASEPRI, r3
 1495              	@ 0 "" 2
 1496              	.LVL147:
 1497              		.thumb
 1498              	.LBE81:
 1499              		.loc 1 787 0
 1500 0030 B06A     		ldr	r0, [r6, #40]
 1501              		.loc 1 783 0
 1502 0032 4FEA4901 		lsl	r1, r9, #1
 1503              		.loc 1 787 0
 1504 0036 0268     		ldr	r2, [r0, #0]
 1505              		.loc 1 783 0
 1506 0038 41F00109 		orr	r9, r1, #1
 1507 003c A6F82090 		strh	r9, [r6, #32]	@ movhi
 1508              		.loc 1 784 0
 1509 0040 B360     		str	r3, [r6, #8]
 1510              	.LVL148:
 1511              		.loc 1 787 0
 1512 0042 C2F80C80 		str	r8, [r2, #12]
 1513              		.loc 1 788 0
 1514 0046 5760     		str	r7, [r2, #4]
 1515              		.loc 1 792 0
 1516 0048 04E0     		b	.L138
 1517              	.L139:
 1518              		.loc 1 796 0
 1519 004a FFF7FEFF 		bl	dbg_check_unlock
 1520              	.LVL149:
 1521              	.LBB82:
 1522 004e 0023     		movs	r3, #0
 1523              	.LVL150:
 1524              	@ 796 "/home/formica/chibios/chibios/os/hal/platforms/STM32/i2c_lld.c" 1
 1525 0050 83F31188 		msr     BASEPRI, r3
ARM GAS  /tmp/ccJEhE2E.s 			page 28


 1526              	@ 0 "" 2
 1527              	.LVL151:
 1528              		.thumb
 1529              	.L138:
 1530              	.LBE82:
 1531              		.loc 1 792 0 discriminator 1
 1532 0054 208B     		ldrh	r0, [r4, #24]
 1533              	.LBB83:
 1534              		.loc 1 793 0 discriminator 1
 1535 0056 2023     		movs	r3, #32
 1536              	.LVL152:
 1537              	.LBE83:
 1538              		.loc 1 792 0 discriminator 1
 1539 0058 00F00201 		and	r1, r0, #2
 1540 005c 8AB2     		uxth	r2, r1
 1541 005e 22B9     		cbnz	r2, .L141
 1542              		.loc 1 792 0 is_stmt 0 discriminator 2
 1543 0060 2088     		ldrh	r0, [r4, #0]
 1544 0062 00F40071 		and	r1, r0, #512
 1545 0066 8AB2     		uxth	r2, r1
 1546 0068 6AB1     		cbz	r2, .L159
 1547              	.L141:
 1548              	.LBB84:
 1549              		.loc 1 793 0 is_stmt 1
 1550              	@ 793 "/home/formica/chibios/chibios/os/hal/platforms/STM32/i2c_lld.c" 1
 1551 006a 83F31188 		msr     BASEPRI, r3
 1552              	@ 0 "" 2
 1553              	.LVL153:
 1554              		.thumb
 1555              	.LBE84:
 1556 006e FFF7FEFF 		bl	dbg_check_lock
 1557              	.LVL154:
 1558              		.loc 1 794 0
 1559 0072 681C     		adds	r0, r5, #1
 1560 0074 E9D0     		beq	.L139
 1561              		.loc 1 794 0 is_stmt 0 discriminator 1
 1562 0076 0498     		ldr	r0, [sp, #16]
 1563 0078 0028     		cmp	r0, #0
 1564 007a E6D1     		bne	.L139
 1565              	.L143:
 1566              		.loc 1 795 0 is_stmt 1
 1567 007c 4FF0FF30 		mov	r0, #-1
 1568              	.L156:
 1569              		.loc 1 818 0
 1570 0080 07B0     		add	sp, sp, #28
 1571 0082 BDE8F083 		pop	{r4, r5, r6, r7, r8, r9, pc}
 1572              	.L159:
 1573              	.LBB85:
 1574              		.loc 1 800 0
 1575              	@ 800 "/home/formica/chibios/chibios/os/hal/platforms/STM32/i2c_lld.c" 1
 1576 0086 83F31188 		msr     BASEPRI, r3
 1577              	@ 0 "" 2
 1578              	.LVL155:
 1579              		.thumb
 1580              	.LBE85:
 1581 008a FFF7FEFF 		bl	dbg_check_lock
 1582              	.LVL156:
ARM GAS  /tmp/ccJEhE2E.s 			page 29


 1583              		.loc 1 804 0
 1584 008e 691C     		adds	r1, r5, #1
 1585 0090 1ED0     		beq	.L142
 1586              		.loc 1 804 0 is_stmt 0 discriminator 1
 1587 0092 049A     		ldr	r2, [sp, #16]
 1588 0094 002A     		cmp	r2, #0
 1589 0096 F1D0     		beq	.L143
 1590              		.loc 1 808 0 is_stmt 1
 1591 0098 A388     		ldrh	r3, [r4, #4]
 1592              		.loc 1 812 0
 1593 009a 174D     		ldr	r5, .L160+4
 1594              		.loc 1 808 0
 1595 009c 98B2     		uxth	r0, r3
 1596 009e 40F40071 		orr	r1, r0, #512
 1597 00a2 A180     		strh	r1, [r4, #4]	@ movhi
 1598              		.loc 1 809 0
 1599 00a4 2288     		ldrh	r2, [r4, #0]
 1600              		.loc 1 812 0
 1601 00a6 EB69     		ldr	r3, [r5, #28]
 1602              		.loc 1 809 0
 1603 00a8 90B2     		uxth	r0, r2
 1604 00aa 40F4A061 		orr	r1, r0, #1280
 1605 00ae 2180     		strh	r1, [r4, #0]	@ movhi
 1606              		.loc 1 813 0
 1607 00b0 0220     		movs	r0, #2
 1608              		.loc 1 812 0
 1609 00b2 F361     		str	r3, [r6, #28]
 1610              		.loc 1 813 0
 1611 00b4 FFF7FEFF 		bl	chSchGoSleepS
 1612              	.LVL157:
 1613              		.loc 1 814 0
 1614 00b8 049A     		ldr	r2, [sp, #16]
 1615 00ba 12B1     		cbz	r2, .L146
 1616              		.loc 1 815 0
 1617 00bc 01A8     		add	r0, sp, #4
 1618 00be FFF7FEFF 		bl	chVTResetI
 1619              	.LVL158:
 1620              	.L146:
 1621              		.loc 1 817 0
 1622 00c2 EB69     		ldr	r3, [r5, #28]
 1623 00c4 986A     		ldr	r0, [r3, #40]
 1624 00c6 DBE7     		b	.L156
 1625              	.LVL159:
 1626              	.L158:
 1627              		.loc 1 772 0 discriminator 1
 1628 00c8 0C48     		ldr	r0, .L160+8
 1629              	.LVL160:
 1630 00ca FFF7FEFF 		bl	chDbgPanic
 1631              	.LVL161:
 1632 00ce A2E7     		b	.L136
 1633              	.L142:
 1634              		.loc 1 808 0
 1635 00d0 A388     		ldrh	r3, [r4, #4]
 1636              		.loc 1 812 0
 1637 00d2 094D     		ldr	r5, .L160+4
 1638              		.loc 1 808 0
 1639 00d4 98B2     		uxth	r0, r3
ARM GAS  /tmp/ccJEhE2E.s 			page 30


 1640 00d6 40F40071 		orr	r1, r0, #512
 1641 00da A180     		strh	r1, [r4, #4]	@ movhi
 1642              		.loc 1 809 0
 1643 00dc 2288     		ldrh	r2, [r4, #0]
 1644              		.loc 1 812 0
 1645 00de EB69     		ldr	r3, [r5, #28]
 1646              		.loc 1 809 0
 1647 00e0 90B2     		uxth	r0, r2
 1648 00e2 40F4A061 		orr	r1, r0, #1280
 1649 00e6 2180     		strh	r1, [r4, #0]	@ movhi
 1650              		.loc 1 813 0
 1651 00e8 0220     		movs	r0, #2
 1652              		.loc 1 812 0
 1653 00ea F361     		str	r3, [r6, #28]
 1654              		.loc 1 813 0
 1655 00ec FFF7FEFF 		bl	chSchGoSleepS
 1656              	.LVL162:
 1657 00f0 E7E7     		b	.L146
 1658              	.L161:
 1659 00f2 00BF     		.align	2
 1660              	.L160:
 1661 00f4 00000000 		.word	i2c_lld_safety_timeout
 1662 00f8 00000000 		.word	rlist
 1663 00fc E8000000 		.word	.LC10
 1664              		.cfi_endproc
 1665              	.LFE75:
 1666              		.size	i2c_lld_master_receive_timeout, .-i2c_lld_master_receive_timeout
 1667              		.section	.text.i2c_lld_master_transmit_timeout,"ax",%progbits
 1668              		.align	2
 1669              		.p2align 4,,15
 1670              		.global	i2c_lld_master_transmit_timeout
 1671              		.thumb
 1672              		.thumb_func
 1673              		.type	i2c_lld_master_transmit_timeout, %function
 1674              	i2c_lld_master_transmit_timeout:
 1675              	.LFB76:
 1676              		.loc 1 848 0
 1677              		.cfi_startproc
 1678              		@ args = 12, pretend = 0, frame = 24
 1679              		@ frame_needed = 0, uses_anonymous_args = 0
 1680              	.LVL163:
 1681 0000 2DE9F04E 		push	{r4, r5, r6, r7, r9, sl, fp, lr}
 1682              	.LCFI11:
 1683              		.cfi_def_cfa_offset 32
 1684              		.cfi_offset 4, -32
 1685              		.cfi_offset 5, -28
 1686              		.cfi_offset 6, -24
 1687              		.cfi_offset 7, -20
 1688              		.cfi_offset 9, -16
 1689              		.cfi_offset 10, -12
 1690              		.cfi_offset 11, -8
 1691              		.cfi_offset 14, -4
 1692 0004 86B0     		sub	sp, sp, #24
 1693              	.LCFI12:
 1694              		.cfi_def_cfa_offset 56
 1695              		.loc 1 848 0
 1696 0006 0F9F     		ldr	r7, [sp, #60]
ARM GAS  /tmp/ccJEhE2E.s 			page 31


 1697 0008 0646     		mov	r6, r0
 1698 000a 8B46     		mov	fp, r1
 1699 000c 9246     		mov	sl, r2
 1700 000e 9946     		mov	r9, r3
 1701 0010 109D     		ldr	r5, [sp, #64]
 1702              		.loc 1 849 0
 1703 0012 046B     		ldr	r4, [r0, #48]
 1704              	.LVL164:
 1705              		.loc 1 853 0
 1706 0014 27B1     		cbz	r7, .L163
 1707              		.loc 1 853 0 is_stmt 0 discriminator 1
 1708 0016 012F     		cmp	r7, #1
 1709 0018 5FD9     		bls	.L164
 1710              		.loc 1 853 0 discriminator 3
 1711 001a 0E9B     		ldr	r3, [sp, #56]
 1712              	.LVL165:
 1713 001c 002B     		cmp	r3, #0
 1714 001e 5CD0     		beq	.L164
 1715              	.LVL166:
 1716              	.L163:
 1717              		.loc 1 858 0 is_stmt 1
 1718 0020 681C     		adds	r0, r5, #1
 1719 0022 05D0     		beq	.L165
 1720              		.loc 1 859 0
 1721 0024 01A8     		add	r0, sp, #4
 1722 0026 2946     		mov	r1, r5
 1723 0028 364A     		ldr	r2, .L190
 1724 002a 3346     		mov	r3, r6
 1725 002c FFF7FEFF 		bl	chVTSetI
 1726              	.LVL167:
 1727              	.L165:
 1728              		.loc 1 862 0
 1729 0030 FFF7FEFF 		bl	dbg_check_unlock
 1730              	.LVL168:
 1731              	.LBB86:
 1732 0034 0023     		movs	r3, #0
 1733              	.LVL169:
 1734              	@ 862 "/home/formica/chibios/chibios/os/hal/platforms/STM32/i2c_lld.c" 1
 1735 0036 83F31188 		msr     BASEPRI, r3
 1736              	@ 0 "" 2
 1737              	.LVL170:
 1738              		.thumb
 1739              	.LBE86:
 1740              		.loc 1 869 0
 1741 003a F16A     		ldr	r1, [r6, #44]
 1742              		.loc 1 873 0
 1743 003c B26A     		ldr	r2, [r6, #40]
 1744              		.loc 1 869 0
 1745 003e 0868     		ldr	r0, [r1, #0]
 1746              		.loc 1 873 0
 1747 0040 1168     		ldr	r1, [r2, #0]
 1748              		.loc 1 866 0
 1749 0042 B360     		str	r3, [r6, #8]
 1750              	.LVL171:
 1751              		.loc 1 873 0
 1752 0044 0E9B     		ldr	r3, [sp, #56]
 1753              		.loc 1 865 0
ARM GAS  /tmp/ccJEhE2E.s 			page 32


 1754 0046 4FEA4B0B 		lsl	fp, fp, #1
 1755 004a A6F820B0 		strh	fp, [r6, #32]	@ movhi
 1756              		.loc 1 869 0
 1757 004e C0F80CA0 		str	sl, [r0, #12]
 1758              		.loc 1 870 0
 1759 0052 C0F80490 		str	r9, [r0, #4]
 1760              		.loc 1 873 0
 1761 0056 CB60     		str	r3, [r1, #12]
 1762              		.loc 1 874 0
 1763 0058 4F60     		str	r7, [r1, #4]
 1764              		.loc 1 878 0
 1765 005a 04E0     		b	.L166
 1766              	.L167:
 1767              		.loc 1 882 0
 1768 005c FFF7FEFF 		bl	dbg_check_unlock
 1769              	.LVL172:
 1770              	.LBB87:
 1771 0060 0023     		movs	r3, #0
 1772              	.LVL173:
 1773              	@ 882 "/home/formica/chibios/chibios/os/hal/platforms/STM32/i2c_lld.c" 1
 1774 0062 83F31188 		msr     BASEPRI, r3
 1775              	@ 0 "" 2
 1776              	.LVL174:
 1777              		.thumb
 1778              	.L166:
 1779              	.LBE87:
 1780              		.loc 1 878 0 discriminator 1
 1781 0066 228B     		ldrh	r2, [r4, #24]
 1782              	.LBB88:
 1783              		.loc 1 879 0 discriminator 1
 1784 0068 2023     		movs	r3, #32
 1785              	.LVL175:
 1786              	.LBE88:
 1787              		.loc 1 878 0 discriminator 1
 1788 006a 02F00200 		and	r0, r2, #2
 1789 006e 81B2     		uxth	r1, r0
 1790 0070 21B9     		cbnz	r1, .L169
 1791              		.loc 1 878 0 is_stmt 0 discriminator 2
 1792 0072 2288     		ldrh	r2, [r4, #0]
 1793 0074 02F40070 		and	r0, r2, #512
 1794 0078 81B2     		uxth	r1, r0
 1795 007a 69B1     		cbz	r1, .L189
 1796              	.L169:
 1797              	.LBB89:
 1798              		.loc 1 879 0 is_stmt 1
 1799              	@ 879 "/home/formica/chibios/chibios/os/hal/platforms/STM32/i2c_lld.c" 1
 1800 007c 83F31188 		msr     BASEPRI, r3
 1801              	@ 0 "" 2
 1802              	.LVL176:
 1803              		.thumb
 1804              	.LBE89:
 1805 0080 FFF7FEFF 		bl	dbg_check_lock
 1806              	.LVL177:
 1807              		.loc 1 880 0
 1808 0084 691C     		adds	r1, r5, #1
 1809 0086 E9D0     		beq	.L167
 1810              		.loc 1 880 0 is_stmt 0 discriminator 1
ARM GAS  /tmp/ccJEhE2E.s 			page 33


 1811 0088 049A     		ldr	r2, [sp, #16]
 1812 008a 002A     		cmp	r2, #0
 1813 008c E6D1     		bne	.L167
 1814              	.L171:
 1815              		.loc 1 881 0 is_stmt 1
 1816 008e 4FF0FF30 		mov	r0, #-1
 1817              	.L187:
 1818              		.loc 1 904 0
 1819 0092 06B0     		add	sp, sp, #24
 1820 0094 BDE8F08E 		pop	{r4, r5, r6, r7, r9, sl, fp, pc}
 1821              	.L189:
 1822              	.LBB90:
 1823              		.loc 1 886 0
 1824              	@ 886 "/home/formica/chibios/chibios/os/hal/platforms/STM32/i2c_lld.c" 1
 1825 0098 83F31188 		msr     BASEPRI, r3
 1826              	@ 0 "" 2
 1827              	.LVL178:
 1828              		.thumb
 1829              	.LBE90:
 1830 009c FFF7FEFF 		bl	dbg_check_lock
 1831              	.LVL179:
 1832              		.loc 1 890 0
 1833 00a0 6A1C     		adds	r2, r5, #1
 1834 00a2 1ED0     		beq	.L170
 1835              		.loc 1 890 0 is_stmt 0 discriminator 1
 1836 00a4 0499     		ldr	r1, [sp, #16]
 1837 00a6 0029     		cmp	r1, #0
 1838 00a8 F1D0     		beq	.L171
 1839              		.loc 1 894 0 is_stmt 1
 1840 00aa A388     		ldrh	r3, [r4, #4]
 1841              		.loc 1 898 0
 1842 00ac 164D     		ldr	r5, .L190+4
 1843              		.loc 1 894 0
 1844 00ae 9AB2     		uxth	r2, r3
 1845 00b0 42F40070 		orr	r0, r2, #512
 1846 00b4 A080     		strh	r0, [r4, #4]	@ movhi
 1847              		.loc 1 895 0
 1848 00b6 2188     		ldrh	r1, [r4, #0]
 1849              		.loc 1 898 0
 1850 00b8 EB69     		ldr	r3, [r5, #28]
 1851              		.loc 1 895 0
 1852 00ba 8AB2     		uxth	r2, r1
 1853 00bc 42F48070 		orr	r0, r2, #256
 1854 00c0 2080     		strh	r0, [r4, #0]	@ movhi
 1855              		.loc 1 899 0
 1856 00c2 0220     		movs	r0, #2
 1857              		.loc 1 898 0
 1858 00c4 F361     		str	r3, [r6, #28]
 1859              		.loc 1 899 0
 1860 00c6 FFF7FEFF 		bl	chSchGoSleepS
 1861              	.LVL180:
 1862              		.loc 1 900 0
 1863 00ca 0499     		ldr	r1, [sp, #16]
 1864 00cc 11B1     		cbz	r1, .L174
 1865              		.loc 1 901 0
 1866 00ce 01A8     		add	r0, sp, #4
 1867 00d0 FFF7FEFF 		bl	chVTResetI
ARM GAS  /tmp/ccJEhE2E.s 			page 34


 1868              	.LVL181:
 1869              	.L174:
 1870              		.loc 1 903 0
 1871 00d4 EB69     		ldr	r3, [r5, #28]
 1872 00d6 986A     		ldr	r0, [r3, #40]
 1873 00d8 DBE7     		b	.L187
 1874              	.LVL182:
 1875              	.L164:
 1876              		.loc 1 853 0 discriminator 2
 1877 00da 0C48     		ldr	r0, .L190+8
 1878              	.LVL183:
 1879 00dc FFF7FEFF 		bl	chDbgPanic
 1880              	.LVL184:
 1881 00e0 9EE7     		b	.L163
 1882              	.L170:
 1883              		.loc 1 894 0
 1884 00e2 A388     		ldrh	r3, [r4, #4]
 1885              		.loc 1 898 0
 1886 00e4 084D     		ldr	r5, .L190+4
 1887              		.loc 1 894 0
 1888 00e6 9AB2     		uxth	r2, r3
 1889 00e8 42F40070 		orr	r0, r2, #512
 1890 00ec A080     		strh	r0, [r4, #4]	@ movhi
 1891              		.loc 1 895 0
 1892 00ee 2188     		ldrh	r1, [r4, #0]
 1893              		.loc 1 898 0
 1894 00f0 EB69     		ldr	r3, [r5, #28]
 1895              		.loc 1 895 0
 1896 00f2 8AB2     		uxth	r2, r1
 1897 00f4 42F48070 		orr	r0, r2, #256
 1898 00f8 2080     		strh	r0, [r4, #0]	@ movhi
 1899              		.loc 1 899 0
 1900 00fa 0220     		movs	r0, #2
 1901              		.loc 1 898 0
 1902 00fc F361     		str	r3, [r6, #28]
 1903              		.loc 1 899 0
 1904 00fe FFF7FEFF 		bl	chSchGoSleepS
 1905              	.LVL185:
 1906 0102 E7E7     		b	.L174
 1907              	.L191:
 1908              		.align	2
 1909              	.L190:
 1910 0104 00000000 		.word	i2c_lld_safety_timeout
 1911 0108 00000000 		.word	rlist
 1912 010c 0C010000 		.word	.LC11
 1913              		.cfi_endproc
 1914              	.LFE76:
 1915              		.size	i2c_lld_master_transmit_timeout, .-i2c_lld_master_transmit_timeout
 1916              		.global	I2CD1
 1917              		.section	.bss.dbgCR2,"aw",%nobits
 1918              		.align	1
 1919              		.type	dbgCR2, %object
 1920              		.size	dbgCR2, 2
 1921              	dbgCR2:
 1922 0000 0000     		.space	2
 1923              		.section	.bss.dbgSR1,"aw",%nobits
 1924              		.align	1
ARM GAS  /tmp/ccJEhE2E.s 			page 35


 1925              		.type	dbgSR1, %object
 1926              		.size	dbgSR1, 2
 1927              	dbgSR1:
 1928 0000 0000     		.space	2
 1929              		.section	.bss.dbgSR2,"aw",%nobits
 1930              		.align	1
 1931              		.type	dbgSR2, %object
 1932              		.size	dbgSR2, 2
 1933              	dbgSR2:
 1934 0000 0000     		.space	2
 1935              		.section	.bss.dbgCR1,"aw",%nobits
 1936              		.align	1
 1937              		.type	dbgCR1, %object
 1938              		.size	dbgCR1, 2
 1939              	dbgCR1:
 1940 0000 0000     		.space	2
 1941              		.section	.rodata.str1.4,"aMS",%progbits,1
 1942              		.align	2
 1943              	.LC0:
 1944 0000 6932635F 		.ascii	"i2c_lld_start(), #1\000"
 1944      6C6C645F 
 1944      73746172 
 1944      7428292C 
 1944      20233100 
 1945              	.LC1:
 1946 0014 6932635F 		.ascii	"i2c_lld_start(), #2\000"
 1946      6C6C645F 
 1946      73746172 
 1946      7428292C 
 1946      20233200 
 1947              	.LC2:
 1948 0028 22693263 		.ascii	"\"i2c_lld_set_clock\"()\000"
 1948      5F6C6C64 
 1948      5F736574 
 1948      5F636C6F 
 1948      636B2228 
 1949 003e 0000     		.space	2
 1950              	.LC3:
 1951 0040 6932635F 		.ascii	"i2c_lld_set_clock(), #1\000"
 1951      6C6C645F 
 1951      7365745F 
 1951      636C6F63 
 1951      6B28292C 
 1952              	.LC4:
 1953 0058 6932635F 		.ascii	"i2c_lld_set_clock(), #2\000"
 1953      6C6C645F 
 1953      7365745F 
 1953      636C6F63 
 1953      6B28292C 
 1954              	.LC5:
 1955 0070 6932635F 		.ascii	"i2c_lld_set_clock(), #3\000"
 1955      6C6C645F 
 1955      7365745F 
 1955      636C6F63 
 1955      6B28292C 
 1956              	.LC6:
 1957 0088 6932635F 		.ascii	"i2c_lld_set_clock(), #4\000"
ARM GAS  /tmp/ccJEhE2E.s 			page 36


 1957      6C6C645F 
 1957      7365745F 
 1957      636C6F63 
 1957      6B28292C 
 1958              	.LC7:
 1959 00a0 6932635F 		.ascii	"i2c_lld_set_clock(), #5\000"
 1959      6C6C645F 
 1959      7365745F 
 1959      636C6F63 
 1959      6B28292C 
 1960              	.LC8:
 1961 00b8 6932635F 		.ascii	"i2c_lld_set_clock(), #6\000"
 1961      6C6C645F 
 1961      7365745F 
 1961      636C6F63 
 1961      6B28292C 
 1962              	.LC9:
 1963 00d0 6932635F 		.ascii	"i2c_lld_set_clock(), #8\000"
 1963      6C6C645F 
 1963      7365745F 
 1963      636C6F63 
 1963      6B28292C 
 1964              	.LC10:
 1965 00e8 22693263 		.ascii	"\"i2c_lld_master_receive_timeout\"()\000"
 1965      5F6C6C64 
 1965      5F6D6173 
 1965      7465725F 
 1965      72656365 
 1966 010b 00       		.space	1
 1967              	.LC11:
 1968 010c 22693263 		.ascii	"\"i2c_lld_master_transmit_timeout\"()\000"
 1968      5F6C6C64 
 1968      5F6D6173 
 1968      7465725F 
 1968      7472616E 
 1969              		.section	.bss.I2CD1,"aw",%nobits
 1970              		.align	2
 1971              		.set	.LANCHOR0,. + 0
 1972              		.type	I2CD1, %object
 1973              		.size	I2CD1, 52
 1974              	I2CD1:
 1975 0000 00000000 		.space	52
 1975      00000000 
 1975      00000000 
 1975      00000000 
 1975      00000000 
 1976              		.text
 1977              	.Letext0:
 1978              		.file 2 "/home/formica/toolchains/gcc-arm-none-eabi-4_7-2012q4/bin/../lib/gcc/arm-none-eabi/4.7.3/
 1979              		.file 3 "/home/formica/toolchains/gcc-arm-none-eabi-4_7-2012q4/bin/../lib/gcc/arm-none-eabi/4.7.3/
 1980              		.file 4 "/home/formica/chibios/chibios/os/ports/GCC/ARMCMx/chtypes.h"
 1981              		.file 5 "/home/formica/chibios/chibios/os/kernel/include/chlists.h"
 1982              		.file 6 "/home/formica/chibios/chibios/os/kernel/include/chthreads.h"
 1983              		.file 7 "/home/formica/chibios/chibios/os/ports/GCC/ARMCMx/chcore_v7m.h"
 1984              		.file 8 "/home/formica/chibios/chibios/os/kernel/include/chvt.h"
 1985              		.file 9 "/home/formica/chibios/chibios/os/kernel/include/chschd.h"
 1986              		.file 10 "/home/formica/chibios/chibios/os/kernel/include/chmtx.h"
ARM GAS  /tmp/ccJEhE2E.s 			page 37


 1987              		.file 11 "/home/formica/chibios/chibios/os/hal/platforms/STM32F1xx/stm32f10x.h"
 1988              		.file 12 "/home/formica/chibios/chibios/os/hal/platforms/STM32F1xx/stm32_dma.h"
 1989              		.file 13 "/home/formica/chibios/chibios/os/hal/include/i2c.h"
 1990              		.file 14 "/home/formica/chibios/chibios/os/hal/platforms/STM32/i2c_lld.h"
 1991              		.file 15 "/home/formica/chibios/chibios/os/ports/common/ARMCMx/CMSIS/include/core_cm3.h"
 1992              		.file 16 "/home/formica/chibios/chibios/os/kernel/include/chdebug.h"
 1993              		.file 17 "/home/formica/chibios/chibios/os/ports/common/ARMCMx/nvic.h"