ARM GAS  /tmp/ccqNqmZ8.s 			page 1


   1              		.syntax unified
   2              		.cpu cortex-m3
   3              		.fpu softvfp
   4              		.eabi_attribute 20, 1
   5              		.eabi_attribute 21, 1
   6              		.eabi_attribute 23, 3
   7              		.eabi_attribute 24, 1
   8              		.eabi_attribute 25, 1
   9              		.eabi_attribute 26, 1
  10              		.eabi_attribute 30, 2
  11              		.eabi_attribute 34, 1
  12              		.eabi_attribute 18, 4
  13              		.thumb
  14              		.file	"serial_usb.c"
  15              		.text
  16              	.Ltext0:
  17              		.cfi_sections	.debug_frame
  18              		.section	.text.putwouldblock,"ax",%progbits
  19              		.align	2
  20              		.p2align 4,,15
  21              		.thumb
  22              		.thumb_func
  23              		.type	putwouldblock, %function
  24              	putwouldblock:
  25              	.LFB64:
  26              		.file 1 "/home/formica/chibios/chibios/os/hal/src/serial_usb.c"
  27              		.loc 1 83 0
  28              		.cfi_startproc
  29              		@ args = 0, pretend = 0, frame = 0
  30              		@ frame_needed = 0, uses_anonymous_args = 0
  31              		@ link register save eliminated.
  32              	.LVL0:
  33              		.loc 1 85 0
  34 0000 806B     		ldr	r0, [r0, #56]
  35              	.LVL1:
  36              		.loc 1 86 0
  37 0002 D0F10100 		rsbs	r0, r0, #1
  38 0006 38BF     		it	cc
  39 0008 0020     		movcc	r0, #0
  40 000a 7047     		bx	lr
  41              		.cfi_endproc
  42              	.LFE64:
  43              		.size	putwouldblock, .-putwouldblock
  44 000c AFF30080 		.section	.text.getwouldblock,"ax",%progbits
  45              		.align	2
  46              		.p2align 4,,15
  47              		.thumb
  48              		.thumb_func
  49              		.type	getwouldblock, %function
  50              	getwouldblock:
  51              	.LFB65:
  52              		.loc 1 88 0
  53              		.cfi_startproc
  54              		@ args = 0, pretend = 0, frame = 0
  55              		@ frame_needed = 0, uses_anonymous_args = 0
  56              		@ link register save eliminated.
  57              	.LVL2:
ARM GAS  /tmp/ccqNqmZ8.s 			page 2


  58              		.loc 1 90 0
  59 0000 8069     		ldr	r0, [r0, #24]
  60              	.LVL3:
  61              		.loc 1 91 0
  62 0002 D0F10100 		rsbs	r0, r0, #1
  63 0006 38BF     		it	cc
  64 0008 0020     		movcc	r0, #0
  65 000a 7047     		bx	lr
  66              		.cfi_endproc
  67              	.LFE65:
  68              		.size	getwouldblock, .-getwouldblock
  69 000c AFF30080 		.section	.text.getflags,"ax",%progbits
  70              		.align	2
  71              		.p2align 4,,15
  72              		.thumb
  73              		.thumb_func
  74              		.type	getflags, %function
  75              	getflags:
  76              	.LFB70:
  77              		.loc 1 113 0
  78              		.cfi_startproc
  79              		@ args = 0, pretend = 0, frame = 0
  80              		@ frame_needed = 0, uses_anonymous_args = 0
  81              	.LVL4:
  82 0000 70B5     		push	{r4, r5, r6, lr}
  83              	.LCFI0:
  84              		.cfi_def_cfa_offset 16
  85              		.cfi_offset 4, -16
  86              		.cfi_offset 5, -12
  87              		.cfi_offset 6, -8
  88              		.cfi_offset 14, -4
  89              	.LBB24:
  90              		.loc 1 114 0
  91 0002 2023     		movs	r3, #32
  92              	.LVL5:
  93              	.LBE24:
  94              		.loc 1 113 0
  95 0004 0546     		mov	r5, r0
  96              	.LBB25:
  97              		.loc 1 114 0
  98              	@ 114 "/home/formica/chibios/chibios/os/hal/src/serial_usb.c" 1
  99 0006 83F31188 		msr     BASEPRI, r3
 100              	@ 0 "" 2
 101              	.LVL6:
 102              		.thumb
 103              	.LBE25:
 104 000a 0024     		movs	r4, #0
 105 000c FFF7FEFF 		bl	dbg_check_lock
 106              	.LVL7:
 107 0010 AE68     		ldr	r6, [r5, #8]
 108              	.LVL8:
 109 0012 AC60     		str	r4, [r5, #8]
 110 0014 FFF7FEFF 		bl	dbg_check_unlock
 111              	.LVL9:
 112              	.LBB26:
 113 0018 2346     		mov	r3, r4
 114              	.LVL10:
ARM GAS  /tmp/ccqNqmZ8.s 			page 3


 115              	@ 114 "/home/formica/chibios/chibios/os/hal/src/serial_usb.c" 1
 116 001a 83F31188 		msr     BASEPRI, r3
 117              	@ 0 "" 2
 118              	.LVL11:
 119              		.thumb
 120              	.LBE26:
 121              		.loc 1 115 0
 122 001e 3046     		mov	r0, r6
 123 0020 70BD     		pop	{r4, r5, r6, pc}
 124              		.cfi_endproc
 125              	.LFE70:
 126              		.size	getflags, .-getflags
 127 0022 00BFAFF3 		.section	.text.onotify,"ax",%progbits
 127      0080AFF3 
 127      0080AFF3 
 127      0080
 128              		.align	2
 129              		.p2align 4,,15
 130              		.thumb
 131              		.thumb_func
 132              		.type	onotify, %function
 133              	onotify:
 134              	.LFB72:
 135              		.loc 1 154 0
 136              		.cfi_startproc
 137              		@ args = 0, pretend = 0, frame = 0
 138              		@ frame_needed = 0, uses_anonymous_args = 0
 139              	.LVL12:
 140 0000 2DE9F041 		push	{r4, r5, r6, r7, r8, lr}
 141              	.LCFI1:
 142              		.cfi_def_cfa_offset 24
 143              		.cfi_offset 4, -24
 144              		.cfi_offset 5, -20
 145              		.cfi_offset 6, -16
 146              		.cfi_offset 7, -12
 147              		.cfi_offset 8, -8
 148              		.cfi_offset 14, -4
 149              		.loc 1 155 0
 150 0004 8469     		ldr	r4, [r0, #24]
 151              	.LVL13:
 152              		.loc 1 161 0
 153 0006 D4F8D030 		ldr	r3, [r4, #208]
 154              		.loc 1 160 0
 155 000a D4F84080 		ldr	r8, [r4, #64]
 156              		.loc 1 161 0
 157 000e 1868     		ldr	r0, [r3, #0]
 158              	.LVL14:
 159              		.loc 1 160 0
 160 0010 E76B     		ldr	r7, [r4, #60]
 161              		.loc 1 161 0
 162 0012 8689     		ldrh	r6, [r0, #12]
 163              		.loc 1 160 0
 164 0014 A56B     		ldr	r5, [r4, #56]
 165              	.LVL15:
 166              		.loc 1 161 0
 167 0016 06F00201 		and	r1, r6, #2
 168 001a 8EB2     		uxth	r6, r1
ARM GAS  /tmp/ccqNqmZ8.s 			page 4


 169 001c 0EB1     		cbz	r6, .L11
 170              	.LVL16:
 171              	.L4:
 172 001e BDE8F081 		pop	{r4, r5, r6, r7, r8, pc}
 173              	.LVL17:
 174              	.L11:
 175              		.loc 1 162 0
 176 0022 FFF7FEFF 		bl	dbg_check_unlock
 177              	.LVL18:
 178              	.LBB27:
 179 0026 3346     		mov	r3, r6
 180              	.LVL19:
 181              	@ 162 "/home/formica/chibios/chibios/os/hal/src/serial_usb.c" 1
 182 0028 83F31188 		msr     BASEPRI, r3
 183              	@ 0 "" 2
 184              	.LVL20:
 185              		.thumb
 186              	.LBE27:
 187              		.loc 1 165 0
 188 002c D4F8D020 		ldr	r2, [r4, #208]
 189              		.loc 1 160 0
 190 0030 C7EB0803 		rsb	r3, r7, r8
 191              	.LVL21:
 192              		.loc 1 165 0
 193 0034 5B1B     		subs	r3, r3, r5
 194 0036 1068     		ldr	r0, [r2, #0]
 195 0038 0121     		movs	r1, #1
 196 003a E26B     		ldr	r2, [r4, #60]
 197 003c FFF7FEFF 		bl	usb_lld_write_packet_buffer
 198              	.LVL22:
 199              	.LBB28:
 200              		.loc 1 168 0
 201 0040 2023     		movs	r3, #32
 202              	.LVL23:
 203              	@ 168 "/home/formica/chibios/chibios/os/hal/src/serial_usb.c" 1
 204 0042 83F31188 		msr     BASEPRI, r3
 205              	@ 0 "" 2
 206              	.LVL24:
 207              		.thumb
 208              	.LBE28:
 209 0046 FFF7FEFF 		bl	dbg_check_lock
 210              	.LVL25:
 211              		.loc 1 169 0
 212 004a D4F8D050 		ldr	r5, [r4, #208]
 213              	.LVL26:
 214 004e 0121     		movs	r1, #1
 215 0050 2868     		ldr	r0, [r5, #0]
 216 0052 FFF7FEFF 		bl	usbStartTransmitI
 217              	.LVL27:
 218              		.loc 1 170 0
 219 0056 A168     		ldr	r1, [r4, #8]
 220 0058 201D     		adds	r0, r4, #4
 221 005a 41F00802 		orr	r2, r1, #8
 222 005e A260     		str	r2, [r4, #8]
 223 0060 3146     		mov	r1, r6
 224              		.loc 1 173 0
 225 0062 2546     		mov	r5, r4
ARM GAS  /tmp/ccqNqmZ8.s 			page 5


 226              		.loc 1 170 0
 227 0064 FFF7FEFF 		bl	chEvtBroadcastFlagsI
 228              	.LVL28:
 229              		.loc 1 171 0
 230 0068 E36B     		ldr	r3, [r4, #60]
 231              		.loc 1 172 0
 232 006a 216C     		ldr	r1, [r4, #64]
 233              		.loc 1 173 0
 234 006c 55F8300F 		ldr	r0, [r5, #48]!
 235              		.loc 1 172 0
 236 0070 CA1A     		subs	r2, r1, r3
 237              		.loc 1 173 0
 238 0072 A842     		cmp	r0, r5
 239              		.loc 1 171 0
 240 0074 6364     		str	r3, [r4, #68]
 241              		.loc 1 172 0
 242 0076 A263     		str	r2, [r4, #56]
 243              		.loc 1 173 0
 244 0078 D1D0     		beq	.L4
 245              	.L8:
 246              	.LVL29:
 247              	.LBB29:
 248              	.LBB30:
 249              		.file 2 "/home/formica/chibios/chibios/os/kernel/include/chinline.h"
 250              		.loc 2 62 0
 251 007a 0368     		ldr	r3, [r0, #0]
 252 007c 2363     		str	r3, [r4, #48]
 253 007e 5D60     		str	r5, [r3, #4]
 254              	.LBE30:
 255              	.LBE29:
 256              		.loc 1 174 0
 257 0080 FFF7FEFF 		bl	chSchReadyI
 258              	.LVL30:
 259 0084 8662     		str	r6, [r0, #40]
 260              		.loc 1 173 0
 261 0086 206B     		ldr	r0, [r4, #48]
 262 0088 A842     		cmp	r0, r5
 263 008a F6D1     		bne	.L8
 264 008c BDE8F081 		pop	{r4, r5, r6, r7, r8, pc}
 265              		.cfi_endproc
 266              	.LFE72:
 267              		.size	onotify, .-onotify
 268              		.section	.text.inotify,"ax",%progbits
 269              		.align	2
 270              		.p2align 4,,15
 271              		.thumb
 272              		.thumb_func
 273              		.type	inotify, %function
 274              	inotify:
 275              	.LFB71:
 276              		.loc 1 126 0
 277              		.cfi_startproc
 278              		@ args = 0, pretend = 0, frame = 0
 279              		@ frame_needed = 0, uses_anonymous_args = 0
 280              	.LVL31:
 281 0000 F8B5     		push	{r3, r4, r5, r6, r7, lr}
 282              	.LCFI2:
ARM GAS  /tmp/ccqNqmZ8.s 			page 6


 283              		.cfi_def_cfa_offset 24
 284              		.cfi_offset 3, -24
 285              		.cfi_offset 4, -20
 286              		.cfi_offset 5, -16
 287              		.cfi_offset 6, -12
 288              		.cfi_offset 7, -8
 289              		.cfi_offset 14, -4
 290              		.loc 1 127 0
 291 0002 4469     		ldr	r4, [r0, #20]
 292              	.LVL32:
 293              		.loc 1 131 0
 294 0004 D4F8D030 		ldr	r3, [r4, #208]
 295 0008 1868     		ldr	r0, [r3, #0]
 296              	.LVL33:
 297 000a C189     		ldrh	r1, [r0, #14]
 298 000c 01F00802 		and	r2, r1, #8
 299 0010 93B2     		uxth	r3, r2
 300 0012 0BB9     		cbnz	r3, .L12
 301              		.loc 1 131 0 is_stmt 0 discriminator 1
 302 0014 A669     		ldr	r6, [r4, #24]
 303 0016 06B1     		cbz	r6, .L18
 304              	.L12:
 305 0018 F8BD     		pop	{r3, r4, r5, r6, r7, pc}
 306              	.L18:
 307              	.LBB31:
 308              		.loc 1 133 0 is_stmt 1
 309 001a FFF7FEFF 		bl	dbg_check_unlock
 310              	.LVL34:
 311              	.LBB32:
 312 001e 3346     		mov	r3, r6
 313              	.LVL35:
 314              	@ 133 "/home/formica/chibios/chibios/os/hal/src/serial_usb.c" 1
 315 0020 83F31188 		msr     BASEPRI, r3
 316              	@ 0 "" 2
 317              	.LVL36:
 318              		.thumb
 319              	.LBE32:
 320              		.loc 1 136 0
 321 0024 D4F8D050 		ldr	r5, [r4, #208]
 322 0028 4023     		movs	r3, #64
 323              	.LVL37:
 324 002a 0321     		movs	r1, #3
 325 002c 2868     		ldr	r0, [r5, #0]
 326 002e E269     		ldr	r2, [r4, #28]
 327 0030 FFF7FEFF 		bl	usb_lld_read_packet_buffer
 328              	.LVL38:
 329              	.LBB33:
 330              		.loc 1 141 0
 331 0034 2023     		movs	r3, #32
 332              	.LVL39:
 333              	.LBE33:
 334              		.loc 1 136 0
 335 0036 0746     		mov	r7, r0
 336              	.LVL40:
 337              	.LBB34:
 338              		.loc 1 141 0
 339              	@ 141 "/home/formica/chibios/chibios/os/hal/src/serial_usb.c" 1
ARM GAS  /tmp/ccqNqmZ8.s 			page 7


 340 0038 83F31188 		msr     BASEPRI, r3
 341              	@ 0 "" 2
 342              	.LVL41:
 343              		.thumb
 344              	.LBE34:
 345 003c FFF7FEFF 		bl	dbg_check_lock
 346              	.LVL42:
 347              		.loc 1 142 0
 348 0040 D4F8D000 		ldr	r0, [r4, #208]
 349 0044 0321     		movs	r1, #3
 350 0046 0068     		ldr	r0, [r0, #0]
 351 0048 FFF7FEFF 		bl	usbStartReceiveI
 352              	.LVL43:
 353              		.loc 1 143 0
 354 004c A168     		ldr	r1, [r4, #8]
 355 004e 201D     		adds	r0, r4, #4
 356 0050 41F00402 		orr	r2, r1, #4
 357              		.loc 1 146 0
 358 0054 2546     		mov	r5, r4
 359              		.loc 1 143 0
 360 0056 A260     		str	r2, [r4, #8]
 361 0058 3146     		mov	r1, r6
 362 005a FFF7FEFF 		bl	chEvtBroadcastFlagsI
 363              	.LVL44:
 364              		.loc 1 146 0
 365 005e 55F8100F 		ldr	r0, [r5, #16]!
 366              		.loc 1 144 0
 367 0062 E369     		ldr	r3, [r4, #28]
 368              		.loc 1 146 0
 369 0064 A842     		cmp	r0, r5
 370              		.loc 1 144 0
 371 0066 A362     		str	r3, [r4, #40]
 372              		.loc 1 145 0
 373 0068 A761     		str	r7, [r4, #24]
 374              		.loc 1 146 0
 375 006a D5D0     		beq	.L12
 376              	.L16:
 377              	.LVL45:
 378              	.LBB35:
 379              	.LBB36:
 380              		.loc 2 62 0
 381 006c 0168     		ldr	r1, [r0, #0]
 382 006e 2161     		str	r1, [r4, #16]
 383 0070 4D60     		str	r5, [r1, #4]
 384              	.LBE36:
 385              	.LBE35:
 386              		.loc 1 147 0
 387 0072 FFF7FEFF 		bl	chSchReadyI
 388              	.LVL46:
 389 0076 8662     		str	r6, [r0, #40]
 390              		.loc 1 146 0
 391 0078 2069     		ldr	r0, [r4, #16]
 392 007a A842     		cmp	r0, r5
 393 007c F6D1     		bne	.L16
 394 007e F8BD     		pop	{r3, r4, r5, r6, r7, pc}
 395              	.LBE31:
 396              		.cfi_endproc
ARM GAS  /tmp/ccqNqmZ8.s 			page 8


 397              	.LFE71:
 398              		.size	inotify, .-inotify
 399              		.section	.text.readt,"ax",%progbits
 400              		.align	2
 401              		.p2align 4,,15
 402              		.thumb
 403              		.thumb_func
 404              		.type	readt, %function
 405              	readt:
 406              	.LFB69:
 407              		.loc 1 108 0
 408              		.cfi_startproc
 409              		@ args = 0, pretend = 0, frame = 0
 410              		@ frame_needed = 0, uses_anonymous_args = 0
 411              		@ link register save eliminated.
 412              	.LVL47:
 413              		.loc 1 110 0
 414 0000 1030     		adds	r0, r0, #16
 415              	.LVL48:
 416              		.loc 1 111 0
 417              		.loc 1 110 0
 418 0002 FFF7FEBF 		b	chIQReadTimeout
 419              	.LVL49:
 420              		.cfi_endproc
 421              	.LFE69:
 422              		.size	readt, .-readt
 423 0006 00BFAFF3 		.section	.text.reads,"ax",%progbits
 423      0080AFF3 
 423      0080
 424              		.align	2
 425              		.p2align 4,,15
 426              		.thumb
 427              		.thumb_func
 428              		.type	reads, %function
 429              	reads:
 430              	.LFB63:
 431              		.loc 1 77 0
 432              		.cfi_startproc
 433              		@ args = 0, pretend = 0, frame = 0
 434              		@ frame_needed = 0, uses_anonymous_args = 0
 435              		@ link register save eliminated.
 436              	.LVL50:
 437              		.loc 1 79 0
 438 0000 1030     		adds	r0, r0, #16
 439              	.LVL51:
 440 0002 4FF0FF33 		mov	r3, #-1
 441              		.loc 1 81 0
 442              		.loc 1 79 0
 443 0006 FFF7FEBF 		b	chIQReadTimeout
 444              	.LVL52:
 445              		.cfi_endproc
 446              	.LFE63:
 447              		.size	reads, .-reads
 448 000a 00BFAFF3 		.section	.text.writet,"ax",%progbits
 448      0080
 449              		.align	2
 450              		.p2align 4,,15
ARM GAS  /tmp/ccqNqmZ8.s 			page 9


 451              		.thumb
 452              		.thumb_func
 453              		.type	writet, %function
 454              	writet:
 455              	.LFB68:
 456              		.loc 1 103 0
 457              		.cfi_startproc
 458              		@ args = 0, pretend = 0, frame = 0
 459              		@ frame_needed = 0, uses_anonymous_args = 0
 460              		@ link register save eliminated.
 461              	.LVL53:
 462              		.loc 1 105 0
 463 0000 3030     		adds	r0, r0, #48
 464              	.LVL54:
 465              		.loc 1 106 0
 466              		.loc 1 105 0
 467 0002 FFF7FEBF 		b	chOQWriteTimeout
 468              	.LVL55:
 469              		.cfi_endproc
 470              	.LFE68:
 471              		.size	writet, .-writet
 472 0006 00BFAFF3 		.section	.text.writes,"ax",%progbits
 472      0080AFF3 
 472      0080
 473              		.align	2
 474              		.p2align 4,,15
 475              		.thumb
 476              		.thumb_func
 477              		.type	writes, %function
 478              	writes:
 479              	.LFB62:
 480              		.loc 1 71 0
 481              		.cfi_startproc
 482              		@ args = 0, pretend = 0, frame = 0
 483              		@ frame_needed = 0, uses_anonymous_args = 0
 484              		@ link register save eliminated.
 485              	.LVL56:
 486              		.loc 1 73 0
 487 0000 3030     		adds	r0, r0, #48
 488              	.LVL57:
 489 0002 4FF0FF33 		mov	r3, #-1
 490              		.loc 1 75 0
 491              		.loc 1 73 0
 492 0006 FFF7FEBF 		b	chOQWriteTimeout
 493              	.LVL58:
 494              		.cfi_endproc
 495              	.LFE62:
 496              		.size	writes, .-writes
 497 000a 00BFAFF3 		.section	.text.gett,"ax",%progbits
 497      0080
 498              		.align	2
 499              		.p2align 4,,15
 500              		.thumb
 501              		.thumb_func
 502              		.type	gett, %function
 503              	gett:
 504              	.LFB67:
ARM GAS  /tmp/ccqNqmZ8.s 			page 10


 505              		.loc 1 98 0
 506              		.cfi_startproc
 507              		@ args = 0, pretend = 0, frame = 0
 508              		@ frame_needed = 0, uses_anonymous_args = 0
 509              		@ link register save eliminated.
 510              	.LVL59:
 511              		.loc 1 100 0
 512 0000 1030     		adds	r0, r0, #16
 513              	.LVL60:
 514              		.loc 1 101 0
 515              		.loc 1 100 0
 516 0002 FFF7FEBF 		b	chIQGetTimeout
 517              	.LVL61:
 518              		.cfi_endproc
 519              	.LFE67:
 520              		.size	gett, .-gett
 521 0006 00BFAFF3 		.section	.text.putt,"ax",%progbits
 521      0080AFF3 
 521      0080
 522              		.align	2
 523              		.p2align 4,,15
 524              		.thumb
 525              		.thumb_func
 526              		.type	putt, %function
 527              	putt:
 528              	.LFB66:
 529              		.loc 1 93 0
 530              		.cfi_startproc
 531              		@ args = 0, pretend = 0, frame = 0
 532              		@ frame_needed = 0, uses_anonymous_args = 0
 533              		@ link register save eliminated.
 534              	.LVL62:
 535              		.loc 1 95 0
 536 0000 3030     		adds	r0, r0, #48
 537              	.LVL63:
 538              		.loc 1 96 0
 539              		.loc 1 95 0
 540 0002 FFF7FEBF 		b	chOQPutTimeout
 541              	.LVL64:
 542              		.cfi_endproc
 543              	.LFE66:
 544              		.size	putt, .-putt
 545 0006 00BFAFF3 		.section	.text.sduInit,"ax",%progbits
 545      0080AFF3 
 545      0080
 546              		.align	2
 547              		.p2align 4,,15
 548              		.global	sduInit
 549              		.thumb
 550              		.thumb_func
 551              		.type	sduInit, %function
 552              	sduInit:
 553              	.LFB73:
 554              		.loc 1 189 0
 555              		.cfi_startproc
 556              		@ args = 0, pretend = 0, frame = 0
 557              		@ frame_needed = 0, uses_anonymous_args = 0
ARM GAS  /tmp/ccqNqmZ8.s 			page 11


 558              		@ link register save eliminated.
 559 0000 7047     		bx	lr
 560              		.cfi_endproc
 561              	.LFE73:
 562              		.size	sduInit, .-sduInit
 563 0002 00BFAFF3 		.section	.text.sduObjectInit,"ax",%progbits
 563      0080AFF3 
 563      0080AFF3 
 563      0080
 564              		.align	2
 565              		.p2align 4,,15
 566              		.global	sduObjectInit
 567              		.thumb
 568              		.thumb_func
 569              		.type	sduObjectInit, %function
 570              	sduObjectInit:
 571              	.LFB74:
 572              		.loc 1 201 0
 573              		.cfi_startproc
 574              		@ args = 0, pretend = 0, frame = 0
 575              		@ frame_needed = 0, uses_anonymous_args = 0
 576              	.LVL65:
 577              		.loc 1 201 0
 578 0000 38B5     		push	{r3, r4, r5, lr}
 579              	.LCFI3:
 580              		.cfi_def_cfa_offset 16
 581              		.cfi_offset 3, -16
 582              		.cfi_offset 4, -12
 583              		.cfi_offset 5, -8
 584              		.cfi_offset 14, -4
 585              		.loc 1 203 0
 586 0002 40F20003 		movw	r3, #:lower16:.LANCHOR0
 587 0006 0546     		mov	r5, r0
 588 0008 C0F20003 		movt	r3, #:upper16:.LANCHOR0
 589              		.loc 1 201 0
 590 000c 0446     		mov	r4, r0
 591              		.loc 1 203 0
 592 000e 45F8043B 		str	r3, [r5], #4
 593              		.loc 1 204 0
 594 0012 6560     		str	r5, [r4, #4]
 595              		.loc 1 205 0
 596 0014 0025     		movs	r5, #0
 597 0016 A560     		str	r5, [r4, #8]
 598              		.loc 1 207 0
 599 0018 40F20003 		movw	r3, #:lower16:inotify
 600              		.loc 1 206 0
 601 001c 0125     		movs	r5, #1
 602              		.loc 1 207 0
 603 001e 00F11000 		add	r0, r0, #16
 604              	.LVL66:
 605 0022 04F15001 		add	r1, r4, #80
 606 0026 4022     		movs	r2, #64
 607 0028 C0F20003 		movt	r3, #:upper16:inotify
 608              		.loc 1 206 0
 609 002c 2573     		strb	r5, [r4, #12]
 610              		.loc 1 207 0
 611 002e FFF7FEFF 		bl	chIQInit
ARM GAS  /tmp/ccqNqmZ8.s 			page 12


 612              	.LVL67:
 613              		.loc 1 208 0
 614 0032 40F20003 		movw	r3, #:lower16:onotify
 615 0036 04F13000 		add	r0, r4, #48
 616 003a 04F19001 		add	r1, r4, #144
 617 003e 4022     		movs	r2, #64
 618 0040 C0F20003 		movt	r3, #:upper16:onotify
 619 0044 FFF7FEFF 		bl	chOQInit
 620              	.LVL68:
 621              		.loc 1 211 0
 622 0048 6462     		str	r4, [r4, #36]
 623              		.loc 1 212 0
 624 004a A464     		str	r4, [r4, #72]
 625 004c 38BD     		pop	{r3, r4, r5, pc}
 626              		.cfi_endproc
 627              	.LFE74:
 628              		.size	sduObjectInit, .-sduObjectInit
 629 004e 00BF     		.section	.text.sduStart,"ax",%progbits
 630              		.align	2
 631              		.p2align 4,,15
 632              		.global	sduStart
 633              		.thumb
 634              		.thumb_func
 635              		.type	sduStart, %function
 636              	sduStart:
 637              	.LFB75:
 638              		.loc 1 223 0
 639              		.cfi_startproc
 640              		@ args = 0, pretend = 0, frame = 0
 641              		@ frame_needed = 0, uses_anonymous_args = 0
 642              	.LVL69:
 643 0000 38B5     		push	{r3, r4, r5, lr}
 644              	.LCFI4:
 645              		.cfi_def_cfa_offset 16
 646              		.cfi_offset 3, -16
 647              		.cfi_offset 4, -12
 648              		.cfi_offset 5, -8
 649              		.cfi_offset 14, -4
 650              		.loc 1 225 0
 651 0002 0446     		mov	r4, r0
 652              		.loc 1 223 0
 653 0004 0D46     		mov	r5, r1
 654              		.loc 1 225 0
 655 0006 E8B1     		cbz	r0, .L30
 656              	.LVL70:
 657              	.L28:
 658              	.LBB37:
 659              		.loc 1 227 0
 660 0008 2023     		movs	r3, #32
 661              	.LVL71:
 662              	@ 227 "/home/formica/chibios/chibios/os/hal/src/serial_usb.c" 1
 663 000a 83F31188 		msr     BASEPRI, r3
 664              	@ 0 "" 2
 665              	.LVL72:
 666              		.thumb
 667              	.LBE37:
 668 000e FFF7FEFF 		bl	dbg_check_lock
ARM GAS  /tmp/ccqNqmZ8.s 			page 13


 669              	.LVL73:
 670              		.loc 1 228 0
 671 0012 237B     		ldrb	r3, [r4, #12]	@ zero_extendqisi2
 672 0014 581E     		subs	r0, r3, #1
 673 0016 0128     		cmp	r0, #1
 674 0018 02D9     		bls	.L29
 675              		.loc 1 228 0 is_stmt 0 discriminator 1
 676 001a 0C48     		ldr	r0, .L31
 677 001c FFF7FEFF 		bl	chDbgPanic
 678              	.LVL74:
 679              	.L29:
 680              		.loc 1 232 0 is_stmt 1
 681 0020 2968     		ldr	r1, [r5, #0]
 682              		.loc 1 233 0
 683 0022 0222     		movs	r2, #2
 684              		.loc 1 231 0
 685 0024 C4F8D050 		str	r5, [r4, #208]
 686              		.loc 1 232 0
 687 0028 8C60     		str	r4, [r1, #8]
 688              		.loc 1 233 0
 689 002a 2273     		strb	r2, [r4, #12]
 690              		.loc 1 234 0
 691 002c FFF7FEFF 		bl	dbg_check_unlock
 692              	.LVL75:
 693              	.LBB38:
 694 0030 0023     		movs	r3, #0
 695              	.LVL76:
 696              	@ 234 "/home/formica/chibios/chibios/os/hal/src/serial_usb.c" 1
 697 0032 83F31188 		msr     BASEPRI, r3
 698              	@ 0 "" 2
 699              	.LVL77:
 700              		.thumb
 701              	.LBE38:
 702              		.loc 1 235 0
 703 0036 2946     		mov	r1, r5
 704 0038 51F8040B 		ldr	r0, [r1], #4
 705              		.loc 1 236 0
 706 003c BDE83840 		pop	{r3, r4, r5, lr}
 707              		.loc 1 235 0
 708 0040 FFF7FEBF 		b	usbStart
 709              	.LVL78:
 710              	.L30:
 711              		.loc 1 225 0 discriminator 1
 712 0044 0248     		ldr	r0, .L31+4
 713              	.LVL79:
 714 0046 FFF7FEFF 		bl	chDbgPanic
 715              	.LVL80:
 716 004a DDE7     		b	.L28
 717              	.L32:
 718              		.align	2
 719              	.L31:
 720 004c 10000000 		.word	.LC1
 721 0050 00000000 		.word	.LC0
 722              		.cfi_endproc
 723              	.LFE75:
 724              		.size	sduStart, .-sduStart
 725 0054 AFF30080 		.section	.text.sduStop,"ax",%progbits
ARM GAS  /tmp/ccqNqmZ8.s 			page 14


 725      AFF30080 
 725      AFF30080 
 726              		.align	2
 727              		.p2align 4,,15
 728              		.global	sduStop
 729              		.thumb
 730              		.thumb_func
 731              		.type	sduStop, %function
 732              	sduStop:
 733              	.LFB76:
 734              		.loc 1 247 0
 735              		.cfi_startproc
 736              		@ args = 0, pretend = 0, frame = 0
 737              		@ frame_needed = 0, uses_anonymous_args = 0
 738              	.LVL81:
 739 0000 10B5     		push	{r4, lr}
 740              	.LCFI5:
 741              		.cfi_def_cfa_offset 8
 742              		.cfi_offset 4, -8
 743              		.cfi_offset 14, -4
 744              		.loc 1 249 0
 745 0002 0446     		mov	r4, r0
 746 0004 C8B1     		cbz	r0, .L36
 747              	.LVL82:
 748              	.L34:
 749              	.LBB39:
 750              		.loc 1 251 0
 751 0006 2023     		movs	r3, #32
 752              	.LVL83:
 753              	@ 251 "/home/formica/chibios/chibios/os/hal/src/serial_usb.c" 1
 754 0008 83F31188 		msr     BASEPRI, r3
 755              	@ 0 "" 2
 756              	.LVL84:
 757              		.thumb
 758              	.LBE39:
 759 000c FFF7FEFF 		bl	dbg_check_lock
 760              	.LVL85:
 761              		.loc 1 252 0
 762 0010 237B     		ldrb	r3, [r4, #12]	@ zero_extendqisi2
 763 0012 581E     		subs	r0, r3, #1
 764 0014 0128     		cmp	r0, #1
 765 0016 02D9     		bls	.L35
 766              		.loc 1 252 0 is_stmt 0 discriminator 1
 767 0018 0A48     		ldr	r0, .L37
 768 001a FFF7FEFF 		bl	chDbgPanic
 769              	.LVL86:
 770              	.L35:
 771              		.loc 1 255 0 is_stmt 1
 772 001e 0121     		movs	r1, #1
 773 0020 2173     		strb	r1, [r4, #12]
 774              		.loc 1 256 0
 775 0022 FFF7FEFF 		bl	dbg_check_unlock
 776              	.LVL87:
 777              	.LBB40:
 778 0026 0023     		movs	r3, #0
 779              	.LVL88:
 780              	@ 256 "/home/formica/chibios/chibios/os/hal/src/serial_usb.c" 1
ARM GAS  /tmp/ccqNqmZ8.s 			page 15


 781 0028 83F31188 		msr     BASEPRI, r3
 782              	@ 0 "" 2
 783              	.LVL89:
 784              		.thumb
 785              	.LBE40:
 786              		.loc 1 257 0
 787 002c D4F8D020 		ldr	r2, [r4, #208]
 788 0030 1068     		ldr	r0, [r2, #0]
 789              		.loc 1 258 0
 790 0032 BDE81040 		pop	{r4, lr}
 791              		.loc 1 257 0
 792 0036 FFF7FEBF 		b	usbStop
 793              	.LVL90:
 794              	.L36:
 795              		.loc 1 249 0 discriminator 1
 796 003a 0348     		ldr	r0, .L37+4
 797              	.LVL91:
 798 003c FFF7FEFF 		bl	chDbgPanic
 799              	.LVL92:
 800 0040 E1E7     		b	.L34
 801              	.L38:
 802 0042 00BF     		.align	2
 803              	.L37:
 804 0044 2C000000 		.word	.LC3
 805 0048 20000000 		.word	.LC2
 806              		.cfi_endproc
 807              	.LFE76:
 808              		.size	sduStop, .-sduStop
 809 004c AFF30080 		.section	.text.sduRequestsHook,"ax",%progbits
 810              		.align	2
 811              		.p2align 4,,15
 812              		.global	sduRequestsHook
 813              		.thumb
 814              		.thumb_func
 815              		.type	sduRequestsHook, %function
 816              	sduRequestsHook:
 817              	.LFB77:
 818              		.loc 1 275 0
 819              		.cfi_startproc
 820              		@ args = 0, pretend = 0, frame = 0
 821              		@ frame_needed = 0, uses_anonymous_args = 0
 822              		@ link register save eliminated.
 823              	.LVL93:
 824              		.loc 1 277 0
 825 0000 90F84030 		ldrb	r3, [r0, #64]	@ zero_extendqisi2
 826 0004 03F06001 		and	r1, r3, #96
 827 0008 2029     		cmp	r1, #32
 828 000a 01D0     		beq	.L47
 829              	.L46:
 830              		.loc 1 290 0
 831 000c 0020     		movs	r0, #0
 832              	.LVL94:
 833              		.loc 1 294 0
 834 000e 7047     		bx	lr
 835              	.LVL95:
 836              	.L47:
 837              		.loc 1 278 0
ARM GAS  /tmp/ccqNqmZ8.s 			page 16


 838 0010 90F84120 		ldrb	r2, [r0, #65]	@ zero_extendqisi2
 839 0014 212A     		cmp	r2, #33
 840 0016 03D0     		beq	.L41
 841 0018 222A     		cmp	r2, #34
 842 001a 09D0     		beq	.L43
 843 001c 202A     		cmp	r2, #32
 844 001e F5D1     		bne	.L46
 845              	.L41:
 846              		.loc 1 283 0
 847 0020 0649     		ldr	r1, .L48
 848 0022 0722     		movs	r2, #7
 849 0024 0023     		movs	r3, #0
 850 0026 4163     		str	r1, [r0, #52]
 851 0028 8263     		str	r2, [r0, #56]
 852 002a C363     		str	r3, [r0, #60]
 853              		.loc 1 284 0
 854 002c 0120     		movs	r0, #1
 855              	.LVL96:
 856 002e 7047     		bx	lr
 857              	.LVL97:
 858              	.L43:
 859              		.loc 1 287 0
 860 0030 0023     		movs	r3, #0
 861 0032 4363     		str	r3, [r0, #52]
 862 0034 8363     		str	r3, [r0, #56]
 863 0036 C363     		str	r3, [r0, #60]
 864              		.loc 1 288 0
 865 0038 0120     		movs	r0, #1
 866              	.LVL98:
 867 003a 7047     		bx	lr
 868              	.L49:
 869              		.align	2
 870              	.L48:
 871 003c 00000000 		.word	.LANCHOR1
 872              		.cfi_endproc
 873              	.LFE77:
 874              		.size	sduRequestsHook, .-sduRequestsHook
 875              		.section	.text.sduDataTransmitted,"ax",%progbits
 876              		.align	2
 877              		.p2align 4,,15
 878              		.global	sduDataTransmitted
 879              		.thumb
 880              		.thumb_func
 881              		.type	sduDataTransmitted, %function
 882              	sduDataTransmitted:
 883              	.LFB78:
 884              		.loc 1 304 0
 885              		.cfi_startproc
 886              		@ args = 0, pretend = 0, frame = 0
 887              		@ frame_needed = 0, uses_anonymous_args = 0
 888              	.LVL99:
 889 0000 F8B5     		push	{r3, r4, r5, r6, r7, lr}
 890              	.LCFI6:
 891              		.cfi_def_cfa_offset 24
 892              		.cfi_offset 3, -24
 893              		.cfi_offset 4, -20
 894              		.cfi_offset 5, -16
ARM GAS  /tmp/ccqNqmZ8.s 			page 17


 895              		.cfi_offset 6, -12
 896              		.cfi_offset 7, -8
 897              		.cfi_offset 14, -4
 898              		.loc 1 305 0
 899 0002 8468     		ldr	r4, [r0, #8]
 900              	.LVL100:
 901              		.loc 1 304 0
 902 0004 0546     		mov	r5, r0
 903 0006 0E46     		mov	r6, r1
 904              	.LBB41:
 905              		.loc 1 308 0
 906 0008 2023     		movs	r3, #32
 907              	.LVL101:
 908              	@ 308 "/home/formica/chibios/chibios/os/hal/src/serial_usb.c" 1
 909 000a 83F31188 		msr     BASEPRI, r3
 910              	@ 0 "" 2
 911              	.LVL102:
 912              		.thumb
 913              	.LBE41:
 914 000e FFF7FEFF 		bl	dbg_check_lock_from_isr
 915              	.LVL103:
 916              		.loc 1 311 0
 917 0012 206C     		ldr	r0, [r4, #64]
 918 0014 E26B     		ldr	r2, [r4, #60]
 919 0016 A36B     		ldr	r3, [r4, #56]
 920 0018 811A     		subs	r1, r0, r2
 921              	.LVL104:
 922              		.loc 1 312 0
 923 001a CF1A     		subs	r7, r1, r3
 924              	.LVL105:
 925 001c 05D1     		bne	.L51
 926              	.LVL106:
 927              	.L52:
 928              		.loc 1 328 0
 929 001e FFF7FEFF 		bl	dbg_check_unlock_from_isr
 930              	.LVL107:
 931              	.LBB42:
 932 0022 0023     		movs	r3, #0
 933              	.LVL108:
 934              	@ 328 "/home/formica/chibios/chibios/os/hal/src/serial_usb.c" 1
 935 0024 83F31188 		msr     BASEPRI, r3
 936              	@ 0 "" 2
 937              	.LVL109:
 938              		.thumb
 939 0028 F8BD     		pop	{r3, r4, r5, r6, r7, pc}
 940              	.LVL110:
 941              	.L51:
 942              	.LBE42:
 943              		.loc 1 315 0
 944 002a FFF7FEFF 		bl	dbg_check_unlock_from_isr
 945              	.LVL111:
 946              	.LBB43:
 947 002e 0023     		movs	r3, #0
 948              	.LVL112:
 949              	@ 315 "/home/formica/chibios/chibios/os/hal/src/serial_usb.c" 1
 950 0030 83F31188 		msr     BASEPRI, r3
 951              	@ 0 "" 2
ARM GAS  /tmp/ccqNqmZ8.s 			page 18


 952              	.LVL113:
 953              		.thumb
 954              	.LBE43:
 955              		.loc 1 318 0
 956 0034 3B46     		mov	r3, r7
 957              	.LVL114:
 958 0036 2846     		mov	r0, r5
 959 0038 3146     		mov	r1, r6
 960 003a E26B     		ldr	r2, [r4, #60]
 961 003c FFF7FEFF 		bl	usb_lld_write_packet_buffer
 962              	.LVL115:
 963              	.LBB44:
 964              		.loc 1 320 0
 965 0040 2023     		movs	r3, #32
 966              	.LVL116:
 967              	@ 320 "/home/formica/chibios/chibios/os/hal/src/serial_usb.c" 1
 968 0042 83F31188 		msr     BASEPRI, r3
 969              	@ 0 "" 2
 970              	.LVL117:
 971              		.thumb
 972              	.LBE44:
 973 0046 FFF7FEFF 		bl	dbg_check_lock_from_isr
 974              	.LVL118:
 975              		.loc 1 321 0
 976 004a 2846     		mov	r0, r5
 977 004c 3146     		mov	r1, r6
 978 004e FFF7FEFF 		bl	usbStartTransmitI
 979              	.LVL119:
 980              		.loc 1 322 0
 981 0052 A568     		ldr	r5, [r4, #8]
 982              	.LVL120:
 983 0054 201D     		adds	r0, r4, #4
 984 0056 45F00802 		orr	r2, r5, #8
 985 005a 0021     		movs	r1, #0
 986 005c A260     		str	r2, [r4, #8]
 987              		.loc 1 325 0
 988 005e 2546     		mov	r5, r4
 989              		.loc 1 322 0
 990 0060 FFF7FEFF 		bl	chEvtBroadcastFlagsI
 991              	.LVL121:
 992              		.loc 1 323 0
 993 0064 E36B     		ldr	r3, [r4, #60]
 994              		.loc 1 324 0
 995 0066 216C     		ldr	r1, [r4, #64]
 996              		.loc 1 325 0
 997 0068 55F8300F 		ldr	r0, [r5, #48]!
 998              		.loc 1 324 0
 999 006c CA1A     		subs	r2, r1, r3
 1000              		.loc 1 325 0
 1001 006e A842     		cmp	r0, r5
 1002              		.loc 1 323 0
 1003 0070 6364     		str	r3, [r4, #68]
 1004              		.loc 1 324 0
 1005 0072 A263     		str	r2, [r4, #56]
 1006              		.loc 1 325 0
 1007 0074 D3D0     		beq	.L52
 1008              		.loc 1 326 0
ARM GAS  /tmp/ccqNqmZ8.s 			page 19


 1009 0076 0026     		movs	r6, #0
 1010              	.L54:
 1011              	.LVL122:
 1012              	.LBB45:
 1013              	.LBB46:
 1014              		.loc 2 62 0
 1015 0078 0368     		ldr	r3, [r0, #0]
 1016 007a 2363     		str	r3, [r4, #48]
 1017 007c 5D60     		str	r5, [r3, #4]
 1018              	.LBE46:
 1019              	.LBE45:
 1020              		.loc 1 326 0
 1021 007e FFF7FEFF 		bl	chSchReadyI
 1022              	.LVL123:
 1023 0082 8662     		str	r6, [r0, #40]
 1024              		.loc 1 325 0
 1025 0084 206B     		ldr	r0, [r4, #48]
 1026 0086 A842     		cmp	r0, r5
 1027 0088 F6D1     		bne	.L54
 1028 008a C8E7     		b	.L52
 1029              		.cfi_endproc
 1030              	.LFE78:
 1031              		.size	sduDataTransmitted, .-sduDataTransmitted
 1032 008c AFF30080 		.section	.text.sduDataReceived,"ax",%progbits
 1033              		.align	2
 1034              		.p2align 4,,15
 1035              		.global	sduDataReceived
 1036              		.thumb
 1037              		.thumb_func
 1038              		.type	sduDataReceived, %function
 1039              	sduDataReceived:
 1040              	.LFB79:
 1041              		.loc 1 339 0
 1042              		.cfi_startproc
 1043              		@ args = 0, pretend = 0, frame = 0
 1044              		@ frame_needed = 0, uses_anonymous_args = 0
 1045              	.LVL124:
 1046 0000 2DE9F041 		push	{r4, r5, r6, r7, r8, lr}
 1047              	.LCFI7:
 1048              		.cfi_def_cfa_offset 24
 1049              		.cfi_offset 4, -24
 1050              		.cfi_offset 5, -20
 1051              		.cfi_offset 6, -16
 1052              		.cfi_offset 7, -12
 1053              		.cfi_offset 8, -8
 1054              		.cfi_offset 14, -4
 1055              	.LBB47:
 1056              		.loc 1 342 0
 1057 0004 2023     		movs	r3, #32
 1058              	.LVL125:
 1059              	.LBE47:
 1060              		.loc 1 340 0
 1061 0006 8468     		ldr	r4, [r0, #8]
 1062              	.LVL126:
 1063              		.loc 1 339 0
 1064 0008 0546     		mov	r5, r0
 1065 000a 0F46     		mov	r7, r1
ARM GAS  /tmp/ccqNqmZ8.s 			page 20


 1066              	.LBB48:
 1067              		.loc 1 342 0
 1068              	@ 342 "/home/formica/chibios/chibios/os/hal/src/serial_usb.c" 1
 1069 000c 83F31188 		msr     BASEPRI, r3
 1070              	@ 0 "" 2
 1071              	.LVL127:
 1072              		.thumb
 1073              	.LBE48:
 1074 0010 FFF7FEFF 		bl	dbg_check_lock_from_isr
 1075              	.LVL128:
 1076              		.loc 1 345 0
 1077 0014 A669     		ldr	r6, [r4, #24]
 1078 0016 36B1     		cbz	r6, .L58
 1079              	.LVL129:
 1080              	.L59:
 1081              		.loc 1 364 0
 1082 0018 FFF7FEFF 		bl	dbg_check_unlock_from_isr
 1083              	.LVL130:
 1084              	.LBB49:
 1085 001c 0023     		movs	r3, #0
 1086              	.LVL131:
 1087              	@ 364 "/home/formica/chibios/chibios/os/hal/src/serial_usb.c" 1
 1088 001e 83F31188 		msr     BASEPRI, r3
 1089              	@ 0 "" 2
 1090              	.LVL132:
 1091              		.thumb
 1092 0022 BDE8F081 		pop	{r4, r5, r6, r7, r8, pc}
 1093              	.LVL133:
 1094              	.L58:
 1095              	.LBE49:
 1096              	.LBB50:
 1097              		.loc 1 350 0
 1098 0026 FFF7FEFF 		bl	dbg_check_unlock_from_isr
 1099              	.LVL134:
 1100              	.LBB51:
 1101 002a 3346     		mov	r3, r6
 1102              	.LVL135:
 1103              	@ 350 "/home/formica/chibios/chibios/os/hal/src/serial_usb.c" 1
 1104 002c 83F31188 		msr     BASEPRI, r3
 1105              	@ 0 "" 2
 1106              	.LVL136:
 1107              		.thumb
 1108              	.LBE51:
 1109              		.loc 1 353 0
 1110 0030 4023     		movs	r3, #64
 1111              	.LVL137:
 1112 0032 2846     		mov	r0, r5
 1113 0034 3946     		mov	r1, r7
 1114 0036 E269     		ldr	r2, [r4, #28]
 1115 0038 FFF7FEFF 		bl	usb_lld_read_packet_buffer
 1116              	.LVL138:
 1117              	.LBB52:
 1118              		.loc 1 356 0
 1119 003c 2023     		movs	r3, #32
 1120              	.LVL139:
 1121              	.LBE52:
 1122              		.loc 1 353 0
ARM GAS  /tmp/ccqNqmZ8.s 			page 21


 1123 003e 8046     		mov	r8, r0
 1124              	.LVL140:
 1125              	.LBB53:
 1126              		.loc 1 356 0
 1127              	@ 356 "/home/formica/chibios/chibios/os/hal/src/serial_usb.c" 1
 1128 0040 83F31188 		msr     BASEPRI, r3
 1129              	@ 0 "" 2
 1130              	.LVL141:
 1131              		.thumb
 1132              	.LBE53:
 1133 0044 FFF7FEFF 		bl	dbg_check_lock_from_isr
 1134              	.LVL142:
 1135              		.loc 1 357 0
 1136 0048 2846     		mov	r0, r5
 1137 004a 3946     		mov	r1, r7
 1138 004c FFF7FEFF 		bl	usbStartReceiveI
 1139              	.LVL143:
 1140              		.loc 1 358 0
 1141 0050 A368     		ldr	r3, [r4, #8]
 1142 0052 201D     		adds	r0, r4, #4
 1143 0054 43F00401 		orr	r1, r3, #4
 1144 0058 A160     		str	r1, [r4, #8]
 1145              		.loc 1 361 0
 1146 005a 2546     		mov	r5, r4
 1147              	.LVL144:
 1148              		.loc 1 358 0
 1149 005c 3146     		mov	r1, r6
 1150 005e FFF7FEFF 		bl	chEvtBroadcastFlagsI
 1151              	.LVL145:
 1152              		.loc 1 361 0
 1153 0062 55F8100F 		ldr	r0, [r5, #16]!
 1154              		.loc 1 359 0
 1155 0066 E269     		ldr	r2, [r4, #28]
 1156              		.loc 1 361 0
 1157 0068 A842     		cmp	r0, r5
 1158              		.loc 1 359 0
 1159 006a A262     		str	r2, [r4, #40]
 1160              		.loc 1 360 0
 1161 006c C4F81880 		str	r8, [r4, #24]
 1162              		.loc 1 361 0
 1163 0070 D2D0     		beq	.L59
 1164              	.L61:
 1165              	.LVL146:
 1166              	.LBB54:
 1167              	.LBB55:
 1168              		.loc 2 62 0
 1169 0072 0368     		ldr	r3, [r0, #0]
 1170 0074 2361     		str	r3, [r4, #16]
 1171 0076 5D60     		str	r5, [r3, #4]
 1172              	.LBE55:
 1173              	.LBE54:
 1174              		.loc 1 362 0
 1175 0078 FFF7FEFF 		bl	chSchReadyI
 1176              	.LVL147:
 1177 007c 8662     		str	r6, [r0, #40]
 1178              		.loc 1 361 0
 1179 007e 2069     		ldr	r0, [r4, #16]
ARM GAS  /tmp/ccqNqmZ8.s 			page 22


 1180 0080 A842     		cmp	r0, r5
 1181 0082 F6D1     		bne	.L61
 1182 0084 C8E7     		b	.L59
 1183              	.LBE50:
 1184              		.cfi_endproc
 1185              	.LFE79:
 1186              		.size	sduDataReceived, .-sduDataReceived
 1187 0086 00BFAFF3 		.section	.text.sduInterruptTransmitted,"ax",%progbits
 1187      0080AFF3 
 1187      0080
 1188              		.align	2
 1189              		.p2align 4,,15
 1190              		.global	sduInterruptTransmitted
 1191              		.thumb
 1192              		.thumb_func
 1193              		.type	sduInterruptTransmitted, %function
 1194              	sduInterruptTransmitted:
 1195              	.LFB80:
 1196              		.loc 1 375 0
 1197              		.cfi_startproc
 1198              		@ args = 0, pretend = 0, frame = 0
 1199              		@ frame_needed = 0, uses_anonymous_args = 0
 1200              		@ link register save eliminated.
 1201              	.LVL148:
 1202 0000 7047     		bx	lr
 1203              		.cfi_endproc
 1204              	.LFE80:
 1205              		.size	sduInterruptTransmitted, .-sduInterruptTransmitted
 1206 0002 00BFAFF3 		.section	.rodata.str1.4,"aMS",%progbits,1
 1206      0080AFF3 
 1206      0080AFF3 
 1206      0080
 1207              		.align	2
 1208              	.LC0:
 1209 0000 22736475 		.ascii	"\"sduStart\"()\000"
 1209      53746172 
 1209      74222829 
 1209      00
 1210 000d 000000   		.space	3
 1211              	.LC1:
 1212 0010 73647553 		.ascii	"sduStart(), #1\000"
 1212      74617274 
 1212      28292C20 
 1212      233100
 1213 001f 00       		.space	1
 1214              	.LC2:
 1215 0020 22736453 		.ascii	"\"sdStop\"()\000"
 1215      746F7022 
 1215      282900
 1216 002b 00       		.space	1
 1217              	.LC3:
 1218 002c 73647553 		.ascii	"sduStop(), #1\000"
 1218      746F7028 
 1218      292C2023 
 1218      3100
 1219 003a 0000     		.section	.rodata.vmt,"a",%progbits
 1220              		.align	2
ARM GAS  /tmp/ccqNqmZ8.s 			page 23


 1221              		.set	.LANCHOR0,. + 0
 1222              		.type	vmt, %object
 1223              		.size	vmt, 36
 1224              	vmt:
 1225 0000 00000000 		.word	writes
 1226 0004 00000000 		.word	reads
 1227 0008 00000000 		.word	putwouldblock
 1228 000c 00000000 		.word	getwouldblock
 1229 0010 00000000 		.word	putt
 1230 0014 00000000 		.word	gett
 1231 0018 00000000 		.word	writet
 1232 001c 00000000 		.word	readt
 1233 0020 00000000 		.word	getflags
 1234              		.section	.data.linecoding,"aw",%progbits
 1235              		.align	2
 1236              		.set	.LANCHOR1,. + 0
 1237              		.type	linecoding, %object
 1238              		.size	linecoding, 7
 1239              	linecoding:
 1240 0000 00       		.byte	0
 1241 0001 96       		.byte	-106
 1242 0002 00       		.byte	0
 1243 0003 00       		.byte	0
 1244 0004 00       		.byte	0
 1245 0005 00       		.byte	0
 1246 0006 08       		.byte	8
 1247 0007 00       		.text
 1248              	.Letext0:
 1249              		.file 3 "/home/formica/toolchains/gcc-arm-none-eabi-4_7-2012q4/bin/../lib/gcc/arm-none-eabi/4.7.3/
 1250              		.file 4 "/home/formica/toolchains/gcc-arm-none-eabi-4_7-2012q4/bin/../lib/gcc/arm-none-eabi/4.7.3/
 1251              		.file 5 "/home/formica/chibios/chibios/os/ports/GCC/ARMCMx/chtypes.h"
 1252              		.file 6 "/home/formica/chibios/chibios/os/kernel/include/chlists.h"
 1253              		.file 7 "/home/formica/chibios/chibios/os/kernel/include/chthreads.h"
 1254              		.file 8 "/home/formica/chibios/chibios/os/ports/GCC/ARMCMx/chcore_v7m.h"
 1255              		.file 9 "/home/formica/chibios/chibios/os/kernel/include/chmtx.h"
 1256              		.file 10 "/home/formica/chibios/chibios/os/kernel/include/chevents.h"
 1257              		.file 11 "/home/formica/chibios/chibios/os/kernel/include/chqueues.h"
 1258              		.file 12 "/home/formica/chibios/chibios/os/kernel/include/chioch.h"
 1259              		.file 13 "/home/formica/chibios/chibios/os/hal/include/usb.h"
 1260              		.file 14 "/home/formica/chibios/chibios/os/hal/platforms/STM32/USBv1/usb_lld.h"
 1261              		.file 15 "/home/formica/chibios/chibios/os/hal/include/serial_usb.h"
 1262              		.file 16 "/home/formica/chibios/chibios/os/hal/include/usb_cdc.h"
 1263              		.file 17 "/home/formica/chibios/chibios/os/kernel/include/chdebug.h"
 1264              		.file 18 "/home/formica/chibios/chibios/os/kernel/include/chschd.h"
 1265              		.file 19 "/home/formica/chibios/chibios/os/ports/common/ARMCMx/CMSIS/include/core_cm3.h"