ARM GAS  /tmp/ccMp7QoS.s 			page 1


   1              		.syntax unified
   2              		.cpu cortex-m3
   3              		.fpu softvfp
   4              		.eabi_attribute 20, 1
   5              		.eabi_attribute 21, 1
   6              		.eabi_attribute 23, 3
   7              		.eabi_attribute 24, 1
   8              		.eabi_attribute 25, 1
   9              		.eabi_attribute 26, 1
  10              		.eabi_attribute 30, 2
  11              		.eabi_attribute 34, 1
  12              		.eabi_attribute 18, 4
  13              		.thumb
  14              		.file	"shell.c"
  15              		.text
  16              	.Ltext0:
  17              		.cfi_sections	.debug_frame
  18              		.section	.text.cmd_systime,"ax",%progbits
  19              		.align	2
  20              		.p2align 4,,15
  21              		.thumb
  22              		.thumb_func
  23              		.type	cmd_systime, %function
  24              	cmd_systime:
  25              	.LFB66:
  26              		.file 1 "/home/formica/chibios/chibios/os/various/shell.c"
  27              		.loc 1 110 0
  28              		.cfi_startproc
  29              		@ args = 0, pretend = 0, frame = 0
  30              		@ frame_needed = 0, uses_anonymous_args = 0
  31              		@ link register save eliminated.
  32              	.LVL0:
  33              		.loc 1 113 0
  34 0000 0029     		cmp	r1, #0
  35 0002 03DD     		ble	.L2
  36              	.LVL1:
  37              	.LBB6:
  38              	.LBB7:
  39              		.loc 1 67 0
  40 0004 0449     		ldr	r1, .L4
  41              	.LVL2:
  42 0006 054A     		ldr	r2, .L4+4
  43              	.LVL3:
  44              	.LBE7:
  45              	.LBE6:
  46              		.loc 1 118 0
  47              	.LBB9:
  48              	.LBB8:
  49              		.loc 1 67 0
  50 0008 FFF7FEBF 		b	chprintf
  51              	.LVL4:
  52              	.L2:
  53              	.LBE8:
  54              	.LBE9:
  55              	.LBB10:
  56              	.LBB11:
  57              		.loc 1 117 0
ARM GAS  /tmp/ccMp7QoS.s 			page 2


  58 000c 044B     		ldr	r3, .L4+8
  59 000e 0549     		ldr	r1, .L4+12
  60              	.LVL5:
  61 0010 DA68     		ldr	r2, [r3, #12]
  62              	.LVL6:
  63              	.LBE11:
  64              	.LBE10:
  65              		.loc 1 118 0
  66              	.LBB13:
  67              	.LBB12:
  68              		.loc 1 117 0
  69 0012 FFF7FEBF 		b	chprintf
  70              	.LVL7:
  71              	.L5:
  72 0016 00BF     		.align	2
  73              	.L4:
  74 0018 00000000 		.word	.LC0
  75 001c 0C000000 		.word	.LC1
  76 0020 00000000 		.word	vtlist
  77 0024 14000000 		.word	.LC2
  78              	.LBE12:
  79              	.LBE13:
  80              		.cfi_endproc
  81              	.LFE66:
  82              		.size	cmd_systime, .-cmd_systime
  83 0028 AFF30080 		.section	.text.cmd_info,"ax",%progbits
  83      AFF30080 
  84              		.align	2
  85              		.p2align 4,,15
  86              		.thumb
  87              		.thumb_func
  88              		.type	cmd_info, %function
  89              	cmd_info:
  90              	.LFB65:
  91              		.loc 1 78 0
  92              		.cfi_startproc
  93              		@ args = 0, pretend = 0, frame = 0
  94              		@ frame_needed = 0, uses_anonymous_args = 0
  95              	.LVL8:
  96 0000 10B5     		push	{r4, lr}
  97              	.LCFI0:
  98              		.cfi_def_cfa_offset 8
  99              		.cfi_offset 4, -8
 100              		.cfi_offset 14, -4
 101              		.loc 1 81 0
 102 0002 0029     		cmp	r1, #0
 103              		.loc 1 78 0
 104 0004 82B0     		sub	sp, sp, #8
 105              	.LCFI1:
 106              		.cfi_def_cfa_offset 16
 107              		.loc 1 78 0
 108 0006 0446     		mov	r4, r0
 109              		.loc 1 81 0
 110 0008 06DD     		ble	.L7
 111              	.LVL9:
 112              	.LBB18:
 113              	.LBB19:
ARM GAS  /tmp/ccMp7QoS.s 			page 3


 114              		.loc 1 67 0
 115 000a 1949     		ldr	r1, .L8
 116              	.LVL10:
 117 000c 194A     		ldr	r2, .L8+4
 118              	.LVL11:
 119              	.LBE19:
 120              	.LBE18:
 121              		.loc 1 108 0
 122 000e 02B0     		add	sp, sp, #8
 123 0010 BDE81040 		pop	{r4, lr}
 124              	.LBB21:
 125              	.LBB20:
 126              		.loc 1 67 0
 127 0014 FFF7FEBF 		b	chprintf
 128              	.LVL12:
 129              	.L7:
 130              	.LBE20:
 131              	.LBE21:
 132              	.LBB22:
 133              	.LBB23:
 134              		.loc 1 86 0
 135 0018 1749     		ldr	r1, .L8+8
 136              	.LVL13:
 137 001a 184A     		ldr	r2, .L8+12
 138              	.LVL14:
 139 001c FFF7FEFF 		bl	chprintf
 140              	.LVL15:
 141              		.loc 1 88 0
 142 0020 2046     		mov	r0, r4
 143 0022 1749     		ldr	r1, .L8+16
 144 0024 174A     		ldr	r2, .L8+20
 145 0026 FFF7FEFF 		bl	chprintf
 146              	.LVL16:
 147              		.loc 1 90 0
 148 002a 2046     		mov	r0, r4
 149 002c 1649     		ldr	r1, .L8+24
 150 002e 174A     		ldr	r2, .L8+28
 151 0030 FFF7FEFF 		bl	chprintf
 152              	.LVL17:
 153              		.loc 1 92 0
 154 0034 2046     		mov	r0, r4
 155 0036 1649     		ldr	r1, .L8+32
 156 0038 164A     		ldr	r2, .L8+36
 157 003a FFF7FEFF 		bl	chprintf
 158              	.LVL18:
 159              		.loc 1 95 0
 160 003e 2046     		mov	r0, r4
 161 0040 1549     		ldr	r1, .L8+40
 162 0042 164A     		ldr	r2, .L8+44
 163 0044 FFF7FEFF 		bl	chprintf
 164              	.LVL19:
 165              		.loc 1 98 0
 166 0048 2046     		mov	r0, r4
 167 004a 1549     		ldr	r1, .L8+48
 168 004c 154A     		ldr	r2, .L8+52
 169 004e FFF7FEFF 		bl	chprintf
 170              	.LVL20:
ARM GAS  /tmp/ccMp7QoS.s 			page 4


 171              		.loc 1 101 0
 172 0052 2046     		mov	r0, r4
 173 0054 1449     		ldr	r1, .L8+56
 174 0056 154A     		ldr	r2, .L8+60
 175 0058 FFF7FEFF 		bl	chprintf
 176              	.LVL21:
 177              		.loc 1 105 0
 178 005c 144B     		ldr	r3, .L8+64
 179 005e 2046     		mov	r0, r4
 180 0060 0093     		str	r3, [sp, #0]
 181 0062 1449     		ldr	r1, .L8+68
 182 0064 144A     		ldr	r2, .L8+72
 183 0066 154B     		ldr	r3, .L8+76
 184 0068 FFF7FEFF 		bl	chprintf
 185              	.LVL22:
 186              	.LBE23:
 187              	.LBE22:
 188              		.loc 1 108 0
 189 006c 02B0     		add	sp, sp, #8
 190 006e 10BD     		pop	{r4, pc}
 191              	.L9:
 192              		.align	2
 193              	.L8:
 194 0070 00000000 		.word	.LC0
 195 0074 1C000000 		.word	.LC3
 196 0078 24000000 		.word	.LC4
 197 007c 38000000 		.word	.LC5
 198 0080 40000000 		.word	.LC6
 199 0084 54000000 		.word	.LC7
 200 0088 9C000000 		.word	.LC8
 201 008c B0000000 		.word	.LC9
 202 0090 B8000000 		.word	.LC10
 203 0094 CC000000 		.word	.LC11
 204 0098 D8000000 		.word	.LC12
 205 009c EC000000 		.word	.LC13
 206 00a0 04010000 		.word	.LC14
 207 00a4 18010000 		.word	.LC15
 208 00a8 40010000 		.word	.LC16
 209 00ac 54010000 		.word	.LC17
 210 00b0 90010000 		.word	.LC21
 211 00b4 68010000 		.word	.LC18
 212 00b8 80010000 		.word	.LC19
 213 00bc 8C010000 		.word	.LC20
 214              		.cfi_endproc
 215              	.LFE65:
 216              		.size	cmd_info, .-cmd_info
 217              		.section	.text._strtok.constprop.2,"ax",%progbits
 218              		.align	2
 219              		.p2align 4,,15
 220              		.thumb
 221              		.thumb_func
 222              		.type	_strtok.constprop.2, %function
 223              	_strtok.constprop.2:
 224              	.LFB75:
 225              		.loc 1 48 0
 226              		.cfi_startproc
 227              		@ args = 0, pretend = 0, frame = 0
ARM GAS  /tmp/ccMp7QoS.s 			page 5


 228              		@ frame_needed = 0, uses_anonymous_args = 0
 229              	.LVL23:
 230 0000 38B5     		push	{r3, r4, r5, lr}
 231              	.LCFI2:
 232              		.cfi_def_cfa_offset 16
 233              		.cfi_offset 3, -16
 234              		.cfi_offset 4, -12
 235              		.cfi_offset 5, -8
 236              		.cfi_offset 14, -4
 237              		.loc 1 50 0
 238 0002 0446     		mov	r4, r0
 239              		.loc 1 48 0
 240 0004 0D46     		mov	r5, r1
 241              		.loc 1 50 0
 242 0006 98B1     		cbz	r0, .L11
 243              		.loc 1 51 0
 244 0008 2860     		str	r0, [r5, #0]
 245              	.LVL24:
 246              	.L12:
 247              		.loc 1 57 0
 248 000a 0C49     		ldr	r1, .L22
 249              	.LVL25:
 250 000c 2046     		mov	r0, r4
 251              	.LVL26:
 252 000e FFF7FEFF 		bl	strspn
 253              	.LVL27:
 254 0012 2418     		adds	r4, r4, r0
 255              	.LVL28:
 256              		.loc 1 58 0
 257 0014 2046     		mov	r0, r4
 258 0016 2021     		movs	r1, #32
 259 0018 FFF7FEFF 		bl	strchr
 260              	.LVL29:
 261 001c 2860     		str	r0, [r5, #0]
 262              		.loc 1 59 0
 263 001e 18B1     		cbz	r0, .L14
 264              		.loc 1 60 0
 265 0020 0023     		movs	r3, #0
 266 0022 00F8013B 		strb	r3, [r0], #1
 267 0026 2860     		str	r0, [r5, #0]
 268              	.L14:
 269              		.loc 1 62 0
 270 0028 2078     		ldrb	r0, [r4, #0]	@ zero_extendqisi2
 271 002a 20B1     		cbz	r0, .L15
 272              		.loc 1 63 0
 273 002c 2046     		mov	r0, r4
 274 002e 38BD     		pop	{r3, r4, r5, pc}
 275              	.LVL30:
 276              	.L11:
 277              		.loc 1 52 0
 278 0030 0C68     		ldr	r4, [r1, #0]
 279              	.LVL31:
 280              		.loc 1 54 0
 281 0032 002C     		cmp	r4, #0
 282 0034 E9D1     		bne	.L12
 283              	.LVL32:
 284              	.L15:
ARM GAS  /tmp/ccMp7QoS.s 			page 6


 285              		.loc 1 55 0
 286 0036 0024     		movs	r4, #0
 287              	.LVL33:
 288              		.loc 1 63 0
 289 0038 2046     		mov	r0, r4
 290 003a 38BD     		pop	{r3, r4, r5, pc}
 291              	.L23:
 292              		.align	2
 293              	.L22:
 294 003c 00000000 		.word	.LANCHOR0
 295              		.cfi_endproc
 296              	.LFE75:
 297              		.size	_strtok.constprop.2, .-_strtok.constprop.2
 298              		.section	.text.shellInit,"ax",%progbits
 299              		.align	2
 300              		.p2align 4,,15
 301              		.global	shellInit
 302              		.thumb
 303              		.thumb_func
 304              		.type	shellInit, %function
 305              	shellInit:
 306              	.LFB69:
 307              		.loc 1 215 0
 308              		.cfi_startproc
 309              		@ args = 0, pretend = 0, frame = 0
 310              		@ frame_needed = 0, uses_anonymous_args = 0
 311              		@ link register save eliminated.
 312              		.loc 1 217 0
 313 0000 40F20003 		movw	r3, #:lower16:.LANCHOR1
 314 0004 C0F20003 		movt	r3, #:upper16:.LANCHOR1
 315 0008 1B60     		str	r3, [r3, #0]
 316 000a 7047     		bx	lr
 317              		.cfi_endproc
 318              	.LFE69:
 319              		.size	shellInit, .-shellInit
 320 000c AFF30080 		.section	.text.shellCreate,"ax",%progbits
 321              		.align	2
 322              		.p2align 4,,15
 323              		.global	shellCreate
 324              		.thumb
 325              		.thumb_func
 326              		.type	shellCreate, %function
 327              	shellCreate:
 328              	.LFB70:
 329              		.loc 1 231 0
 330              		.cfi_startproc
 331              		@ args = 0, pretend = 0, frame = 0
 332              		@ frame_needed = 0, uses_anonymous_args = 0
 333              	.LVL34:
 334 0000 00B5     		push	{lr}
 335              	.LCFI3:
 336              		.cfi_def_cfa_offset 4
 337              		.cfi_offset 14, -4
 338              		.loc 1 233 0
 339 0002 40F20003 		movw	r3, #:lower16:shell_thread
 340              		.loc 1 231 0
 341 0006 83B0     		sub	sp, sp, #12
ARM GAS  /tmp/ccMp7QoS.s 			page 7


 342              	.LCFI4:
 343              		.cfi_def_cfa_offset 16
 344              		.loc 1 233 0
 345 0008 0090     		str	r0, [sp, #0]
 346 000a C0F20003 		movt	r3, #:upper16:shell_thread
 347 000e 0020     		movs	r0, #0
 348              	.LVL35:
 349 0010 FFF7FEFF 		bl	chThdCreateFromHeap
 350              	.LVL36:
 351              		.loc 1 234 0
 352 0014 03B0     		add	sp, sp, #12
 353 0016 00BD     		pop	{pc}
 354              		.cfi_endproc
 355              	.LFE70:
 356              		.size	shellCreate, .-shellCreate
 357 0018 AFF30080 		.section	.text.shellCreateStatic,"ax",%progbits
 357      AFF30080 
 358              		.align	2
 359              		.p2align 4,,15
 360              		.global	shellCreateStatic
 361              		.thumb
 362              		.thumb_func
 363              		.type	shellCreateStatic, %function
 364              	shellCreateStatic:
 365              	.LFB71:
 366              		.loc 1 247 0
 367              		.cfi_startproc
 368              		@ args = 0, pretend = 0, frame = 0
 369              		@ frame_needed = 0, uses_anonymous_args = 0
 370              	.LVL37:
 371 0000 00B5     		push	{lr}
 372              	.LCFI5:
 373              		.cfi_def_cfa_offset 4
 374              		.cfi_offset 14, -4
 375 0002 83B0     		sub	sp, sp, #12
 376              	.LCFI6:
 377              		.cfi_def_cfa_offset 16
 378              		.loc 1 249 0
 379 0004 0090     		str	r0, [sp, #0]
 380 0006 0846     		mov	r0, r1
 381              	.LVL38:
 382 0008 1146     		mov	r1, r2
 383              	.LVL39:
 384 000a 1A46     		mov	r2, r3
 385              	.LVL40:
 386 000c 40F20003 		movw	r3, #:lower16:shell_thread
 387              	.LVL41:
 388 0010 C0F20003 		movt	r3, #:upper16:shell_thread
 389 0014 FFF7FEFF 		bl	chThdCreateStatic
 390              	.LVL42:
 391              		.loc 1 250 0
 392 0018 03B0     		add	sp, sp, #12
 393 001a 00BD     		pop	{pc}
 394              		.cfi_endproc
 395              	.LFE71:
 396              		.size	shellCreateStatic, .-shellCreateStatic
 397 001c AFF30080 		.section	.text.shellGetLine,"ax",%progbits
ARM GAS  /tmp/ccMp7QoS.s 			page 8


 398              		.align	2
 399              		.p2align 4,,15
 400              		.global	shellGetLine
 401              		.thumb
 402              		.thumb_func
 403              		.type	shellGetLine, %function
 404              	shellGetLine:
 405              	.LFB72:
 406              		.loc 1 262 0
 407              		.cfi_startproc
 408              		@ args = 0, pretend = 0, frame = 0
 409              		@ frame_needed = 0, uses_anonymous_args = 0
 410              	.LVL43:
 411              	.LBB24:
 412              		.loc 1 289 0
 413 0000 013A     		subs	r2, r2, #1
 414              	.LVL44:
 415              	.LBE24:
 416              		.loc 1 262 0
 417 0002 2DE9F041 		push	{r4, r5, r6, r7, r8, lr}
 418              	.LCFI7:
 419              		.cfi_def_cfa_offset 24
 420              		.cfi_offset 4, -24
 421              		.cfi_offset 5, -20
 422              		.cfi_offset 6, -16
 423              		.cfi_offset 7, -12
 424              		.cfi_offset 8, -8
 425              		.cfi_offset 14, -4
 426              		.loc 1 262 0
 427 0006 0E46     		mov	r6, r1
 428              	.LVL45:
 429 0008 0446     		mov	r4, r0
 430              		.loc 1 263 0
 431 000a 0D46     		mov	r5, r1
 432              	.LBB25:
 433              		.loc 1 289 0
 434 000c 8F18     		adds	r7, r1, r2
 435              	.LVL46:
 436              	.L37:
 437              		.loc 1 266 0
 438 000e 2368     		ldr	r3, [r4, #0]
 439 0010 4FF0FF31 		mov	r1, #-1
 440 0014 2046     		mov	r0, r4
 441 0016 5A69     		ldr	r2, [r3, #20]
 442 0018 9047     		blx	r2
 443              	.LVL47:
 444              		.loc 1 267 0
 445 001a 01B2     		sxth	r1, r0
 446 001c 0029     		cmp	r1, #0
 447 001e 30DB     		blt	.L34
 448              		.loc 1 269 0
 449 0020 0429     		cmp	r1, #4
 450 0022 31D0     		beq	.L38
 451              		.loc 1 273 0
 452 0024 0829     		cmp	r1, #8
 453 0026 11D0     		beq	.L39
 454              		.loc 1 282 0
ARM GAS  /tmp/ccMp7QoS.s 			page 9


 455 0028 0D29     		cmp	r1, #13
 456 002a 34D0     		beq	.L40
 457              		.loc 1 287 0
 458 002c 1F29     		cmp	r1, #31
 459 002e EEDD     		ble	.L37
 460              		.loc 1 289 0
 461 0030 BD42     		cmp	r5, r7
 462 0032 ECD2     		bcs	.L37
 463              		.loc 1 290 0
 464 0034 2368     		ldr	r3, [r4, #0]
 465 0036 5FFA80F8 		uxtb	r8, r0
 466 003a 1B69     		ldr	r3, [r3, #16]
 467 003c 2046     		mov	r0, r4
 468              	.LVL48:
 469 003e 4146     		mov	r1, r8
 470 0040 4FF0FF32 		mov	r2, #-1
 471 0044 9847     		blx	r3
 472              	.LVL49:
 473              		.loc 1 291 0
 474 0046 05F8018B 		strb	r8, [r5], #1
 475              	.LVL50:
 476 004a E0E7     		b	.L37
 477              	.LVL51:
 478              	.L39:
 479              		.loc 1 274 0
 480 004c B542     		cmp	r5, r6
 481 004e DED0     		beq	.L37
 482              		.loc 1 275 0
 483 0050 2368     		ldr	r3, [r4, #0]
 484 0052 5FFA80F8 		uxtb	r8, r0
 485 0056 4146     		mov	r1, r8
 486 0058 4FF0FF32 		mov	r2, #-1
 487 005c 1B69     		ldr	r3, [r3, #16]
 488 005e 2046     		mov	r0, r4
 489              	.LVL52:
 490 0060 9847     		blx	r3
 491              	.LVL53:
 492              		.loc 1 276 0
 493 0062 2068     		ldr	r0, [r4, #0]
 494 0064 2021     		movs	r1, #32
 495 0066 0369     		ldr	r3, [r0, #16]
 496 0068 4FF0FF32 		mov	r2, #-1
 497 006c 2046     		mov	r0, r4
 498 006e 9847     		blx	r3
 499              	.LVL54:
 500              		.loc 1 277 0
 501 0070 2268     		ldr	r2, [r4, #0]
 502 0072 2046     		mov	r0, r4
 503 0074 1369     		ldr	r3, [r2, #16]
 504 0076 4146     		mov	r1, r8
 505 0078 4FF0FF32 		mov	r2, #-1
 506 007c 9847     		blx	r3
 507              	.LVL55:
 508              		.loc 1 278 0
 509 007e 013D     		subs	r5, r5, #1
 510              	.LVL56:
 511 0080 C5E7     		b	.L37
ARM GAS  /tmp/ccMp7QoS.s 			page 10


 512              	.LVL57:
 513              	.L34:
 514              		.loc 1 268 0
 515 0082 0120     		movs	r0, #1
 516              	.LVL58:
 517              	.LBE25:
 518              		.loc 1 294 0
 519 0084 BDE8F081 		pop	{r4, r5, r6, r7, r8, pc}
 520              	.LVL59:
 521              	.L38:
 522              	.LBB26:
 523              		.loc 1 270 0
 524 0088 2046     		mov	r0, r4
 525              	.LVL60:
 526 008a 0749     		ldr	r1, .L41
 527 008c FFF7FEFF 		bl	chprintf
 528              	.LVL61:
 529              		.loc 1 271 0
 530 0090 0120     		movs	r0, #1
 531 0092 BDE8F081 		pop	{r4, r5, r6, r7, r8, pc}
 532              	.LVL62:
 533              	.L40:
 534              		.loc 1 283 0
 535 0096 2046     		mov	r0, r4
 536              	.LVL63:
 537 0098 0449     		ldr	r1, .L41+4
 538 009a FFF7FEFF 		bl	chprintf
 539              	.LVL64:
 540              		.loc 1 284 0
 541 009e 0020     		movs	r0, #0
 542 00a0 2870     		strb	r0, [r5, #0]
 543              		.loc 1 285 0
 544 00a2 BDE8F081 		pop	{r4, r5, r6, r7, r8, pc}
 545              	.L42:
 546 00a6 00BF     		.align	2
 547              	.L41:
 548 00a8 9C010000 		.word	.LC23
 549 00ac A0010000 		.word	.LC24
 550              	.LBE26:
 551              		.cfi_endproc
 552              	.LFE72:
 553              		.size	shellGetLine, .-shellGetLine
 554              		.section	.text.shell_thread,"ax",%progbits
 555              		.align	2
 556              		.p2align 4,,15
 557              		.thumb
 558              		.thumb_func
 559              		.type	shell_thread, %function
 560              	shell_thread:
 561              	.LFB68:
 562              		.loc 1 150 0
 563              		.cfi_startproc
 564              		@ args = 0, pretend = 0, frame = 88
 565              		@ frame_needed = 0, uses_anonymous_args = 0
 566              	.LVL65:
 567 0000 2DE9F043 		push	{r4, r5, r6, r7, r8, r9, lr}
 568              	.LCFI8:
ARM GAS  /tmp/ccMp7QoS.s 			page 11


 569              		.cfi_def_cfa_offset 28
 570              		.cfi_offset 4, -28
 571              		.cfi_offset 5, -24
 572              		.cfi_offset 6, -20
 573              		.cfi_offset 7, -16
 574              		.cfi_offset 8, -12
 575              		.cfi_offset 9, -8
 576              		.cfi_offset 14, -4
 577              		.loc 1 158 0
 578 0004 6B4B     		ldr	r3, .L97
 579              		.loc 1 153 0
 580 0006 0568     		ldr	r5, [r0, #0]
 581              	.LVL66:
 582              		.loc 1 158 0
 583 0008 D969     		ldr	r1, [r3, #28]
 584 000a 6B4A     		ldr	r2, .L97+4
 585              		.loc 1 154 0
 586 000c 4768     		ldr	r7, [r0, #4]
 587              	.LVL67:
 588              		.loc 1 150 0
 589 000e 97B0     		sub	sp, sp, #92
 590              	.LCFI9:
 591              		.cfi_def_cfa_offset 120
 592              		.loc 1 158 0
 593 0010 8A61     		str	r2, [r1, #24]
 594              		.loc 1 159 0
 595 0012 2846     		mov	r0, r5
 596              	.LVL68:
 597 0014 6949     		ldr	r1, .L97+8
 598 0016 FFF7FEFF 		bl	chprintf
 599              	.LVL69:
 600              	.LBB40:
 601              	.LBB41:
 602              		.loc 1 72 0
 603 001a DFF8C481 		ldr	r8, .L97+44
 604              	.L92:
 605              	.LBE41:
 606              	.LBE40:
 607              		.loc 1 161 0
 608 001e 2846     		mov	r0, r5
 609 0020 6749     		ldr	r1, .L97+12
 610 0022 FFF7FEFF 		bl	chprintf
 611              	.LVL70:
 612              		.loc 1 162 0
 613 0026 2846     		mov	r0, r5
 614 0028 06A9     		add	r1, sp, #24
 615 002a 4022     		movs	r2, #64
 616 002c FFF7FEFF 		bl	shellGetLine
 617              	.LVL71:
 618 0030 0446     		mov	r4, r0
 619 0032 0028     		cmp	r0, #0
 620 0034 30D1     		bne	.L95
 621              		.loc 1 166 0
 622 0036 6946     		mov	r1, sp
 623 0038 06A8     		add	r0, sp, #24
 624 003a FFF7FEFF 		bl	_strtok.constprop.2
 625              	.LVL72:
ARM GAS  /tmp/ccMp7QoS.s 			page 12


 626              		.loc 1 169 0
 627 003e 6946     		mov	r1, sp
 628              		.loc 1 166 0
 629 0040 0646     		mov	r6, r0
 630              	.LVL73:
 631              		.loc 1 169 0
 632 0042 2046     		mov	r0, r4
 633              	.LVL74:
 634 0044 FFF7FEFF 		bl	_strtok.constprop.2
 635              	.LVL75:
 636 0048 0346     		mov	r3, r0
 637 004a 0028     		cmp	r0, #0
 638 004c 38D0     		beq	.L66
 639 004e 2046     		mov	r0, r4
 640              	.LVL76:
 641 0050 6946     		mov	r1, sp
 642              		.loc 1 175 0
 643 0052 0193     		str	r3, [sp, #4]
 644              	.LVL77:
 645              		.loc 1 169 0
 646 0054 FFF7FEFF 		bl	_strtok.constprop.2
 647              	.LVL78:
 648 0058 0246     		mov	r2, r0
 649 005a 0028     		cmp	r0, #0
 650 005c 52D0     		beq	.L67
 651 005e 2046     		mov	r0, r4
 652              	.LVL79:
 653 0060 6946     		mov	r1, sp
 654              		.loc 1 175 0
 655 0062 0292     		str	r2, [sp, #8]
 656              	.LVL80:
 657              		.loc 1 169 0
 658 0064 FFF7FEFF 		bl	_strtok.constprop.2
 659              	.LVL81:
 660 0068 0346     		mov	r3, r0
 661 006a 0028     		cmp	r0, #0
 662 006c 4CD0     		beq	.L68
 663 006e 2046     		mov	r0, r4
 664              	.LVL82:
 665 0070 6946     		mov	r1, sp
 666              		.loc 1 175 0
 667 0072 0393     		str	r3, [sp, #12]
 668              	.LVL83:
 669              		.loc 1 169 0
 670 0074 FFF7FEFF 		bl	_strtok.constprop.2
 671              	.LVL84:
 672 0078 0246     		mov	r2, r0
 673 007a 0028     		cmp	r0, #0
 674 007c 46D0     		beq	.L69
 675 007e 2046     		mov	r0, r4
 676              	.LVL85:
 677 0080 6946     		mov	r1, sp
 678              		.loc 1 175 0
 679 0082 0492     		str	r2, [sp, #16]
 680              	.LVL86:
 681              		.loc 1 169 0
 682 0084 FFF7FEFF 		bl	_strtok.constprop.2
ARM GAS  /tmp/ccMp7QoS.s 			page 13


 683              	.LVL87:
 684 0088 0028     		cmp	r0, #0
 685 008a 41D0     		beq	.L70
 686              		.loc 1 171 0
 687 008c 2846     		mov	r0, r5
 688              	.LVL88:
 689 008e 4D49     		ldr	r1, .L97+16
 690 0090 FFF7FEFF 		bl	chprintf
 691              	.LVL89:
 692              		.loc 1 177 0
 693 0094 0594     		str	r4, [sp, #20]
 694 0096 C2E7     		b	.L92
 695              	.LVL90:
 696              	.L95:
 697              		.loc 1 163 0
 698 0098 2846     		mov	r0, r5
 699 009a 4B49     		ldr	r1, .L97+20
 700 009c FFF7FEFF 		bl	chprintf
 701              	.LVL91:
 702              	.L46:
 703              	.LBB43:
 704              		.loc 1 206 0
 705 00a0 2023     		movs	r3, #32
 706              	.LVL92:
 707              	@ 206 "/home/formica/chibios/chibios/os/various/shell.c" 1
 708 00a2 83F31188 		msr     BASEPRI, r3
 709              	@ 0 "" 2
 710              	.LVL93:
 711              		.thumb
 712              	.LBE43:
 713 00a6 FFF7FEFF 		bl	dbg_check_lock
 714              	.LVL94:
 715              		.loc 1 207 0
 716 00aa 0021     		movs	r1, #0
 717 00ac 4748     		ldr	r0, .L97+24
 718 00ae FFF7FEFF 		bl	chEvtBroadcastFlagsI
 719              	.LVL95:
 720              		.loc 1 208 0
 721 00b2 0020     		movs	r0, #0
 722 00b4 FFF7FEFF 		bl	chThdExitS
 723              	.LVL96:
 724              		.loc 1 210 0
 725 00b8 0020     		movs	r0, #0
 726 00ba 17B0     		add	sp, sp, #92
 727 00bc BDE8F083 		pop	{r4, r5, r6, r7, r8, r9, pc}
 728              	.LVL97:
 729              	.L66:
 730              		.loc 1 168 0
 731 00c0 0446     		mov	r4, r0
 732              	.LVL98:
 733              	.L47:
 734              		.loc 1 177 0
 735 00c2 16A8     		add	r0, sp, #88
 736              	.LVL99:
 737 00c4 00EB8401 		add	r1, r0, r4, lsl #2
 738 00c8 0023     		movs	r3, #0
 739 00ca 41F8543C 		str	r3, [r1, #-84]
ARM GAS  /tmp/ccMp7QoS.s 			page 14


 740              		.loc 1 178 0
 741 00ce 002E     		cmp	r6, #0
 742 00d0 A5D0     		beq	.L92
 743              		.loc 1 179 0
 744 00d2 3046     		mov	r0, r6
 745 00d4 3E49     		ldr	r1, .L97+28
 746 00d6 FFF7FEFF 		bl	strcasecmp
 747              	.LVL100:
 748 00da 38B9     		cbnz	r0, .L49
 749              		.loc 1 180 0
 750 00dc 002C     		cmp	r4, #0
 751 00de DFD0     		beq	.L46
 752              	.LVL101:
 753              	.LBB44:
 754              	.LBB45:
 755              		.loc 1 67 0
 756 00e0 2846     		mov	r0, r5
 757 00e2 3C49     		ldr	r1, .L97+32
 758 00e4 3A4A     		ldr	r2, .L97+28
 759 00e6 FFF7FEFF 		bl	chprintf
 760              	.LVL102:
 761              	.LBE45:
 762              	.LBE44:
 763              		.loc 1 182 0
 764 00ea 98E7     		b	.L92
 765              	.LVL103:
 766              	.L49:
 767              		.loc 1 186 0
 768 00ec 3046     		mov	r0, r6
 769 00ee 3A49     		ldr	r1, .L97+36
 770 00f0 FFF7FEFF 		bl	strcasecmp
 771              	.LVL104:
 772 00f4 70B9     		cbnz	r0, .L96
 773              	.LBB46:
 774              	.LBB47:
 775              		.loc 1 67 0
 776 00f6 2846     		mov	r0, r5
 777              	.LBE47:
 778              	.LBE46:
 779              		.loc 1 187 0
 780 00f8 1CB3     		cbz	r4, .L54
 781              	.LVL105:
 782              	.LBB49:
 783              	.LBB48:
 784              		.loc 1 67 0
 785 00fa 3649     		ldr	r1, .L97+32
 786 00fc 364A     		ldr	r2, .L97+36
 787 00fe FFF7FEFF 		bl	chprintf
 788              	.LVL106:
 789              	.LBE48:
 790              	.LBE49:
 791              		.loc 1 189 0
 792 0102 8CE7     		b	.L92
 793              	.LVL107:
 794              	.L67:
 795              		.loc 1 175 0
 796 0104 0124     		movs	r4, #1
ARM GAS  /tmp/ccMp7QoS.s 			page 15


 797 0106 DCE7     		b	.L47
 798              	.LVL108:
 799              	.L68:
 800 0108 0224     		movs	r4, #2
 801 010a DAE7     		b	.L47
 802              	.LVL109:
 803              	.L69:
 804 010c 0324     		movs	r4, #3
 805 010e D8E7     		b	.L47
 806              	.LVL110:
 807              	.L70:
 808              		.loc 1 169 0
 809 0110 0424     		movs	r4, #4
 810 0112 D6E7     		b	.L47
 811              	.LVL111:
 812              	.L96:
 813              	.LBB50:
 814              	.LBB51:
 815              		.loc 1 132 0
 816 0114 D8F80000 		ldr	r0, [r8, #0]
 817 0118 0028     		cmp	r0, #0
 818 011a 32D0     		beq	.L53
 819 011c DFF8C090 		ldr	r9, .L97+44
 820 0120 03E0     		b	.L62
 821              	.LVL112:
 822              	.L61:
 823 0122 59F8080F 		ldr	r0, [r9, #8]!
 824              	.LVL113:
 825 0126 0028     		cmp	r0, #0
 826 0128 2BD0     		beq	.L53
 827              	.LVL114:
 828              	.L62:
 829              		.loc 1 133 0
 830 012a 3146     		mov	r1, r6
 831 012c FFF7FEFF 		bl	strcasecmp
 832              	.LVL115:
 833 0130 0028     		cmp	r0, #0
 834 0132 F6D1     		bne	.L61
 835              	.LVL116:
 836              	.L94:
 837              	.LBE51:
 838              	.LBE50:
 839              	.LBB52:
 840              	.LBB53:
 841              		.loc 1 134 0
 842 0134 D9F80430 		ldr	r3, [r9, #4]
 843 0138 2846     		mov	r0, r5
 844 013a 2146     		mov	r1, r4
 845 013c 01AA     		add	r2, sp, #4
 846 013e 9847     		blx	r3
 847              	.LVL117:
 848 0140 6DE7     		b	.L92
 849              	.LVL118:
 850              	.L54:
 851              	.LBE53:
 852              	.LBE52:
 853              		.loc 1 191 0
ARM GAS  /tmp/ccMp7QoS.s 			page 16


 854 0142 2649     		ldr	r1, .L97+40
 855 0144 FFF7FEFF 		bl	chprintf
 856              	.LVL119:
 857              	.LBB55:
 858              	.LBB42:
 859              		.loc 1 72 0
 860 0148 D8F80020 		ldr	r2, [r8, #0]
 861 014c 42B1     		cbz	r2, .L59
 862 014e 244C     		ldr	r4, .L97+44
 863              	.LVL120:
 864              	.L58:
 865              		.loc 1 73 0
 866 0150 2846     		mov	r0, r5
 867 0152 2449     		ldr	r1, .L97+48
 868 0154 FFF7FEFF 		bl	chprintf
 869              	.LVL121:
 870              		.loc 1 72 0
 871 0158 54F8082F 		ldr	r2, [r4, #8]!
 872 015c 002A     		cmp	r2, #0
 873 015e F7D1     		bne	.L58
 874              	.L59:
 875              	.LBE42:
 876              	.LBE55:
 877              		.loc 1 193 0
 878 0160 57B1     		cbz	r7, .L57
 879              	.LVL122:
 880              	.LBB56:
 881              	.LBB57:
 882              		.loc 1 72 0
 883 0162 3A68     		ldr	r2, [r7, #0]
 884 0164 42B1     		cbz	r2, .L57
 885 0166 3C46     		mov	r4, r7
 886              	.LVL123:
 887              	.L60:
 888              		.loc 1 73 0
 889 0168 2846     		mov	r0, r5
 890 016a 1E49     		ldr	r1, .L97+48
 891 016c FFF7FEFF 		bl	chprintf
 892              	.LVL124:
 893              		.loc 1 72 0
 894 0170 54F8082F 		ldr	r2, [r4, #8]!
 895 0174 002A     		cmp	r2, #0
 896 0176 F7D1     		bne	.L60
 897              	.L57:
 898              	.LBE57:
 899              	.LBE56:
 900              		.loc 1 195 0
 901 0178 2846     		mov	r0, r5
 902 017a 1B49     		ldr	r1, .L97+52
 903 017c FFF7FEFF 		bl	chprintf
 904              	.LVL125:
 905 0180 4DE7     		b	.L92
 906              	.LVL126:
 907              	.L53:
 908              		.loc 1 197 0
 909 0182 67B1     		cbz	r7, .L65
 910              	.LVL127:
ARM GAS  /tmp/ccMp7QoS.s 			page 17


 911              	.LBB58:
 912              	.LBB54:
 913              		.loc 1 132 0
 914 0184 3868     		ldr	r0, [r7, #0]
 915 0186 50B1     		cbz	r0, .L65
 916 0188 B946     		mov	r9, r7
 917 018a 02E0     		b	.L64
 918              	.LVL128:
 919              	.L63:
 920 018c 59F8080F 		ldr	r0, [r9, #8]!
 921              	.LVL129:
 922 0190 28B1     		cbz	r0, .L65
 923              	.LVL130:
 924              	.L64:
 925              		.loc 1 133 0
 926 0192 3146     		mov	r1, r6
 927 0194 FFF7FEFF 		bl	strcasecmp
 928              	.LVL131:
 929 0198 0028     		cmp	r0, #0
 930 019a F7D1     		bne	.L63
 931 019c CAE7     		b	.L94
 932              	.LVL132:
 933              	.L65:
 934              	.LBE54:
 935              	.LBE58:
 936              		.loc 1 199 0
 937 019e 2846     		mov	r0, r5
 938 01a0 1249     		ldr	r1, .L97+56
 939 01a2 3246     		mov	r2, r6
 940 01a4 FFF7FEFF 		bl	chprintf
 941              	.LVL133:
 942              		.loc 1 200 0
 943 01a8 2846     		mov	r0, r5
 944 01aa 1149     		ldr	r1, .L97+60
 945 01ac FFF7FEFF 		bl	chprintf
 946              	.LVL134:
 947 01b0 35E7     		b	.L92
 948              	.L98:
 949 01b2 00BF     		.align	2
 950              	.L97:
 951 01b4 00000000 		.word	rlist
 952 01b8 A4010000 		.word	.LC25
 953 01bc AC010000 		.word	.LC26
 954 01c0 C4010000 		.word	.LC27
 955 01c4 D8010000 		.word	.LC29
 956 01c8 CC010000 		.word	.LC28
 957 01cc 00000000 		.word	.LANCHOR1
 958 01d0 F0010000 		.word	.LC30
 959 01d4 00000000 		.word	.LC0
 960 01d8 F8010000 		.word	.LC31
 961 01dc 00020000 		.word	.LC32
 962 01e0 00000000 		.word	.LANCHOR2
 963 01e4 18020000 		.word	.LC33
 964 01e8 A0010000 		.word	.LC24
 965 01ec 1C020000 		.word	.LC34
 966 01f0 20020000 		.word	.LC35
 967              		.cfi_endproc
ARM GAS  /tmp/ccMp7QoS.s 			page 18


 968              	.LFE68:
 969              		.size	shell_thread, .-shell_thread
 970              		.global	shell_terminated
 971 01f4 AFF30080 		.section	.rodata
 971      AFF30080 
 971      AFF30080 
 972              		.align	2
 973              		.set	.LANCHOR0,. + 0
 974              	.LC22:
 975 0000 20003900 		.ascii	" \0009\000"
 976              		.section	.data.local_commands,"aw",%progbits
 977              		.align	2
 978              		.set	.LANCHOR2,. + 0
 979              		.type	local_commands, %object
 980              		.size	local_commands, 24
 981              	local_commands:
 982 0000 1C000000 		.word	.LC3
 983 0004 00000000 		.word	cmd_info
 984 0008 0C000000 		.word	.LC1
 985 000c 00000000 		.word	cmd_systime
 986 0010 00000000 		.word	0
 987 0014 00000000 		.word	0
 988              		.section	.rodata.str1.4,"aMS",%progbits,1
 989              		.align	2
 990              	.LC0:
 991 0000 55736167 		.ascii	"Usage: %s\015\012\000"
 991      653A2025 
 991      730D0A00 
 992              	.LC1:
 993 000c 73797374 		.ascii	"systime\000"
 993      696D6500 
 994              	.LC2:
 995 0014 256C750D 		.ascii	"%lu\015\012\000"
 995      0A00
 996 001a 0000     		.space	2
 997              	.LC3:
 998 001c 696E666F 		.ascii	"info\000"
 998      00
 999 0021 000000   		.space	3
 1000              	.LC4:
 1001 0024 4B65726E 		.ascii	"Kernel:       %s\015\012\000"
 1001      656C3A20 
 1001      20202020 
 1001      20202573 
 1001      0D0A00
 1002 0037 00       		.space	1
 1003              	.LC5:
 1004 0038 322E342E 		.ascii	"2.4.3\000"
 1004      3300
 1005 003e 0000     		.space	2
 1006              	.LC6:
 1007 0040 436F6D70 		.ascii	"Compiler:     %s\015\012\000"
 1007      696C6572 
 1007      3A202020 
 1007      20202573 
 1007      0D0A00
 1008 0053 00       		.space	1
ARM GAS  /tmp/ccMp7QoS.s 			page 19


 1009              	.LC7:
 1010 0054 47434320 		.ascii	"GCC 4.7.3 20121207 (release) [ARM/embedded-4_7-bran"
 1010      342E372E 
 1010      33203230 
 1010      31323132 
 1010      30372028 
 1011 0087 63682072 		.ascii	"ch revision 194305]\000"
 1011      65766973 
 1011      696F6E20 
 1011      31393433 
 1011      30355D00 
 1012 009b 00       		.space	1
 1013              	.LC8:
 1014 009c 41726368 		.ascii	"Architecture: %s\015\012\000"
 1014      69746563 
 1014      74757265 
 1014      3A202573 
 1014      0D0A00
 1015 00af 00       		.space	1
 1016              	.LC9:
 1017 00b0 41524D76 		.ascii	"ARMv7-M\000"
 1017      372D4D00 
 1018              	.LC10:
 1019 00b8 436F7265 		.ascii	"Core Variant: %s\015\012\000"
 1019      20566172 
 1019      69616E74 
 1019      3A202573 
 1019      0D0A00
 1020 00cb 00       		.space	1
 1021              	.LC11:
 1022 00cc 436F7274 		.ascii	"Cortex-M3\000"
 1022      65782D4D 
 1022      3300
 1023 00d6 0000     		.space	2
 1024              	.LC12:
 1025 00d8 506F7274 		.ascii	"Port Info:    %s\015\012\000"
 1025      20496E66 
 1025      6F3A2020 
 1025      20202573 
 1025      0D0A00
 1026 00eb 00       		.space	1
 1027              	.LC13:
 1028 00ec 41647661 		.ascii	"Advanced kernel mode\000"
 1028      6E636564 
 1028      206B6572 
 1028      6E656C20 
 1028      6D6F6465 
 1029 0101 000000   		.space	3
 1030              	.LC14:
 1031 0104 506C6174 		.ascii	"Platform:     %s\015\012\000"
 1031      666F726D 
 1031      3A202020 
 1031      20202573 
 1031      0D0A00
 1032 0117 00       		.space	1
 1033              	.LC15:
 1034 0118 53544D33 		.ascii	"STM32F1 Performance Line Medium Density\000"
ARM GAS  /tmp/ccMp7QoS.s 			page 20


 1034      32463120 
 1034      50657266 
 1034      6F726D61 
 1034      6E636520 
 1035              	.LC16:
 1036 0140 426F6172 		.ascii	"Board:        %s\015\012\000"
 1036      643A2020 
 1036      20202020 
 1036      20202573 
 1036      0D0A00
 1037 0153 00       		.space	1
 1038              	.LC17:
 1039 0154 4F6C696D 		.ascii	"Olimex STM32-P103\000"
 1039      65782053 
 1039      544D3332 
 1039      2D503130 
 1039      3300
 1040 0166 0000     		.space	2
 1041              	.LC18:
 1042 0168 4275696C 		.ascii	"Build time:   %s%s%s\015\012\000"
 1042      64207469 
 1042      6D653A20 
 1042      20202573 
 1042      25732573 
 1043 017f 00       		.space	1
 1044              	.LC19:
 1045 0180 4D617920 		.ascii	"May 10 2013\000"
 1045      31302032 
 1045      30313300 
 1046              	.LC20:
 1047 018c 202D2000 		.ascii	" - \000"
 1048              	.LC21:
 1049 0190 31393A31 		.ascii	"19:11:48\000"
 1049      313A3438 
 1049      00
 1050 0199 000000   		.space	3
 1051              	.LC23:
 1052 019c 5E4400   		.ascii	"^D\000"
 1053 019f 00       		.space	1
 1054              	.LC24:
 1055 01a0 0D0A00   		.ascii	"\015\012\000"
 1056 01a3 00       		.space	1
 1057              	.LC25:
 1058 01a4 7368656C 		.ascii	"shell\000"
 1058      6C00
 1059 01aa 0000     		.space	2
 1060              	.LC26:
 1061 01ac 0D0A4368 		.ascii	"\015\012ChibiOS/RT Shell\015\012\000"
 1061      6962694F 
 1061      532F5254 
 1061      20536865 
 1061      6C6C0D0A 
 1062 01c1 000000   		.space	3
 1063              	.LC27:
 1064 01c4 63683E20 		.ascii	"ch> \000"
 1064      00
 1065 01c9 000000   		.space	3
ARM GAS  /tmp/ccMp7QoS.s 			page 21


 1066              	.LC28:
 1067 01cc 0D0A6C6F 		.ascii	"\015\012logout\000"
 1067      676F7574 
 1067      00
 1068 01d5 000000   		.space	3
 1069              	.LC29:
 1070 01d8 746F6F20 		.ascii	"too many arguments\015\012\000"
 1070      6D616E79 
 1070      20617267 
 1070      756D656E 
 1070      74730D0A 
 1071 01ed 000000   		.space	3
 1072              	.LC30:
 1073 01f0 65786974 		.ascii	"exit\000"
 1073      00
 1074 01f5 000000   		.space	3
 1075              	.LC31:
 1076 01f8 68656C70 		.ascii	"help\000"
 1076      00
 1077 01fd 000000   		.space	3
 1078              	.LC32:
 1079 0200 436F6D6D 		.ascii	"Commands: help exit \000"
 1079      616E6473 
 1079      3A206865 
 1079      6C702065 
 1079      78697420 
 1080 0215 000000   		.space	3
 1081              	.LC33:
 1082 0218 25732000 		.ascii	"%s \000"
 1083              	.LC34:
 1084 021c 257300   		.ascii	"%s\000"
 1085 021f 00       		.space	1
 1086              	.LC35:
 1087 0220 203F0D0A 		.ascii	" ?\015\012\000"
 1087      00
 1088 0225 000000   		.section	.bss.shell_terminated,"aw",%nobits
 1089              		.align	2
 1090              		.set	.LANCHOR1,. + 0
 1091              		.type	shell_terminated, %object
 1092              		.size	shell_terminated, 4
 1093              	shell_terminated:
 1094 0000 00000000 		.space	4
 1095              		.text
 1096              	.Letext0:
 1097              		.file 2 "/home/formica/toolchains/gcc-arm-none-eabi-4_7-2012q4/bin/../lib/gcc/arm-none-eabi/4.7.3/
 1098              		.file 3 "/home/formica/toolchains/gcc-arm-none-eabi-4_7-2012q4/bin/../lib/gcc/arm-none-eabi/4.7.3/
 1099              		.file 4 "/home/formica/chibios/chibios/os/ports/GCC/ARMCMx/chtypes.h"
 1100              		.file 5 "/home/formica/chibios/chibios/os/kernel/include/chlists.h"
 1101              		.file 6 "/home/formica/chibios/chibios/os/kernel/include/chthreads.h"
 1102              		.file 7 "/home/formica/chibios/chibios/os/ports/GCC/ARMCMx/chcore_v7m.h"
 1103              		.file 8 "/home/formica/chibios/chibios/os/kernel/include/chvt.h"
 1104              		.file 9 "/home/formica/chibios/chibios/os/kernel/include/chschd.h"
 1105              		.file 10 "/home/formica/chibios/chibios/os/kernel/include/chmtx.h"
 1106              		.file 11 "/home/formica/chibios/chibios/os/kernel/include/chevents.h"
 1107              		.file 12 "/home/formica/chibios/chibios/os/kernel/include/chmemcore.h"
 1108              		.file 13 "/home/formica/chibios/chibios/os/kernel/include/chheap.h"
 1109              		.file 14 "/home/formica/chibios/chibios/os/kernel/include/chioch.h"
ARM GAS  /tmp/ccMp7QoS.s 			page 22


 1110              		.file 15 "/home/formica/chibios/chibios/os/various/shell.h"
 1111              		.file 16 "/home/formica/chibios/chibios/os/ports/common/ARMCMx/CMSIS/include/core_cm3.h"
 1112              		.file 17 "/home/formica/toolchains/gcc-arm-none-eabi-4_7-2012q4/bin/../lib/gcc/arm-none-eabi/4.7.3
 1113              		.file 18 "/home/formica/chibios/chibios/os/kernel/include/chdynamic.h"
 1114              		.file 19 "/home/formica/chibios/chibios/os/various/chprintf.h"
 1115              		.file 20 "<built-in>"
 1116              		.file 21 "/home/formica/chibios/chibios/os/kernel/include/chdebug.h"