ARM GAS  /tmp/ccmzzKax.s 			page 1


   1              		.syntax unified
   2              		.cpu cortex-m3
   3              		.fpu softvfp
   4              		.eabi_attribute 20, 1
   5              		.eabi_attribute 21, 1
   6              		.eabi_attribute 23, 3
   7              		.eabi_attribute 24, 1
   8              		.eabi_attribute 25, 1
   9              		.eabi_attribute 26, 1
  10              		.eabi_attribute 30, 2
  11              		.eabi_attribute 34, 1
  12              		.eabi_attribute 18, 4
  13              		.thumb
  14              		.file	"spi.c"
  15              		.text
  16              	.Ltext0:
  17              		.cfi_sections	.debug_frame
  18              		.section	.text.spiInit,"ax",%progbits
  19              		.align	2
  20              		.p2align 4,,15
  21              		.global	spiInit
  22              		.thumb
  23              		.thumb_func
  24              		.type	spiInit, %function
  25              	spiInit:
  26              	.LFB62:
  27              		.file 1 "/home/formica/chibios/chibios/os/hal/src/spi.c"
  28              		.loc 1 68 0
  29              		.cfi_startproc
  30              		@ args = 0, pretend = 0, frame = 0
  31              		@ frame_needed = 0, uses_anonymous_args = 0
  32              		@ link register save eliminated.
  33              		.loc 1 71 0
  34              		.loc 1 70 0
  35 0000 FFF7FEBF 		b	spi_lld_init
  36              	.LVL0:
  37              		.cfi_endproc
  38              	.LFE62:
  39              		.size	spiInit, .-spiInit
  40 0004 AFF30080 		.section	.text.spiObjectInit,"ax",%progbits
  40      AFF30080 
  40      AFF30080 
  41              		.align	2
  42              		.p2align 4,,15
  43              		.global	spiObjectInit
  44              		.thumb
  45              		.thumb_func
  46              		.type	spiObjectInit, %function
  47              	spiObjectInit:
  48              	.LFB63:
  49              		.loc 1 80 0
  50              		.cfi_startproc
  51              		@ args = 0, pretend = 0, frame = 0
  52              		@ frame_needed = 0, uses_anonymous_args = 0
  53              		@ link register save eliminated.
  54              	.LVL1:
  55              		.loc 1 83 0
ARM GAS  /tmp/ccmzzKax.s 			page 2


  56 0000 0023     		movs	r3, #0
  57              		.loc 1 82 0
  58 0002 0122     		movs	r2, #1
  59 0004 0270     		strb	r2, [r0, #0]
  60              		.loc 1 83 0
  61 0006 4360     		str	r3, [r0, #4]
  62              		.loc 1 85 0
  63 0008 8360     		str	r3, [r0, #8]
  64              		.loc 1 89 0
  65 000a 0C30     		adds	r0, r0, #12
  66              	.LVL2:
  67              		.loc 1 97 0
  68              		.loc 1 89 0
  69 000c FFF7FEBF 		b	chMtxInit
  70              	.LVL3:
  71              		.cfi_endproc
  72              	.LFE63:
  73              		.size	spiObjectInit, .-spiObjectInit
  74              		.section	.text.spiStart,"ax",%progbits
  75              		.align	2
  76              		.p2align 4,,15
  77              		.global	spiStart
  78              		.thumb
  79              		.thumb_func
  80              		.type	spiStart, %function
  81              	spiStart:
  82              	.LFB64:
  83              		.loc 1 107 0
  84              		.cfi_startproc
  85              		@ args = 0, pretend = 0, frame = 0
  86              		@ frame_needed = 0, uses_anonymous_args = 0
  87              	.LVL4:
  88 0000 38B5     		push	{r3, r4, r5, lr}
  89              	.LCFI0:
  90              		.cfi_def_cfa_offset 16
  91              		.cfi_offset 3, -16
  92              		.cfi_offset 4, -12
  93              		.cfi_offset 5, -8
  94              		.cfi_offset 14, -4
  95              		.loc 1 109 0
  96 0002 0446     		mov	r4, r0
  97              		.loc 1 107 0
  98 0004 0D46     		mov	r5, r1
  99              		.loc 1 109 0
 100 0006 C0B1     		cbz	r0, .L4
 101              		.loc 1 109 0 is_stmt 0 discriminator 2
 102 0008 B9B1     		cbz	r1, .L4
 103              	.LVL5:
 104              	.L5:
 105              	.LBB2:
 106              		.loc 1 111 0 is_stmt 1
 107 000a 2023     		movs	r3, #32
 108              	.LVL6:
 109              	@ 111 "/home/formica/chibios/chibios/os/hal/src/spi.c" 1
 110 000c 83F31188 		msr     BASEPRI, r3
 111              	@ 0 "" 2
 112              	.LVL7:
ARM GAS  /tmp/ccmzzKax.s 			page 3


 113              		.thumb
 114              	.LBE2:
 115 0010 FFF7FEFF 		bl	dbg_check_lock
 116              	.LVL8:
 117              		.loc 1 112 0
 118 0014 2378     		ldrb	r3, [r4, #0]	@ zero_extendqisi2
 119 0016 581E     		subs	r0, r3, #1
 120 0018 0128     		cmp	r0, #1
 121 001a 02D9     		bls	.L6
 122              		.loc 1 112 0 is_stmt 0 discriminator 1
 123 001c 0948     		ldr	r0, .L11
 124 001e FFF7FEFF 		bl	chDbgPanic
 125              	.LVL9:
 126              	.L6:
 127              		.loc 1 115 0 is_stmt 1
 128 0022 2046     		mov	r0, r4
 129              		.loc 1 114 0
 130 0024 6560     		str	r5, [r4, #4]
 131              		.loc 1 115 0
 132 0026 FFF7FEFF 		bl	spi_lld_start
 133              	.LVL10:
 134              		.loc 1 116 0
 135 002a 0221     		movs	r1, #2
 136 002c 2170     		strb	r1, [r4, #0]
 137              		.loc 1 117 0
 138 002e FFF7FEFF 		bl	dbg_check_unlock
 139              	.LVL11:
 140              	.LBB3:
 141 0032 0023     		movs	r3, #0
 142              	.LVL12:
 143              	@ 117 "/home/formica/chibios/chibios/os/hal/src/spi.c" 1
 144 0034 83F31188 		msr     BASEPRI, r3
 145              	@ 0 "" 2
 146              	.LVL13:
 147              		.thumb
 148 0038 38BD     		pop	{r3, r4, r5, pc}
 149              	.LVL14:
 150              	.L4:
 151              	.LBE3:
 152              		.loc 1 109 0 discriminator 1
 153 003a 0348     		ldr	r0, .L11+4
 154              	.LVL15:
 155 003c FFF7FEFF 		bl	chDbgPanic
 156              	.LVL16:
 157 0040 E3E7     		b	.L5
 158              	.L12:
 159 0042 00BF     		.align	2
 160              	.L11:
 161 0044 10000000 		.word	.LC1
 162 0048 00000000 		.word	.LC0
 163              		.cfi_endproc
 164              	.LFE64:
 165              		.size	spiStart, .-spiStart
 166 004c AFF30080 		.section	.text.spiStop,"ax",%progbits
 167              		.align	2
 168              		.p2align 4,,15
 169              		.global	spiStop
ARM GAS  /tmp/ccmzzKax.s 			page 4


 170              		.thumb
 171              		.thumb_func
 172              		.type	spiStop, %function
 173              	spiStop:
 174              	.LFB65:
 175              		.loc 1 129 0
 176              		.cfi_startproc
 177              		@ args = 0, pretend = 0, frame = 0
 178              		@ frame_needed = 0, uses_anonymous_args = 0
 179              	.LVL17:
 180 0000 10B5     		push	{r4, lr}
 181              	.LCFI1:
 182              		.cfi_def_cfa_offset 8
 183              		.cfi_offset 4, -8
 184              		.cfi_offset 14, -4
 185              		.loc 1 131 0
 186 0002 0446     		mov	r4, r0
 187 0004 C8B1     		cbz	r0, .L16
 188              	.LVL18:
 189              	.L14:
 190              	.LBB4:
 191              		.loc 1 133 0
 192 0006 2023     		movs	r3, #32
 193              	.LVL19:
 194              	@ 133 "/home/formica/chibios/chibios/os/hal/src/spi.c" 1
 195 0008 83F31188 		msr     BASEPRI, r3
 196              	@ 0 "" 2
 197              	.LVL20:
 198              		.thumb
 199              	.LBE4:
 200 000c FFF7FEFF 		bl	dbg_check_lock
 201              	.LVL21:
 202              		.loc 1 134 0
 203 0010 2378     		ldrb	r3, [r4, #0]	@ zero_extendqisi2
 204 0012 581E     		subs	r0, r3, #1
 205 0014 0128     		cmp	r0, #1
 206 0016 02D9     		bls	.L15
 207              		.loc 1 134 0 is_stmt 0 discriminator 1
 208 0018 0A48     		ldr	r0, .L17
 209 001a FFF7FEFF 		bl	chDbgPanic
 210              	.LVL22:
 211              	.L15:
 212              		.loc 1 136 0 is_stmt 1
 213 001e 2046     		mov	r0, r4
 214 0020 FFF7FEFF 		bl	spi_lld_unselect
 215              	.LVL23:
 216              		.loc 1 137 0
 217 0024 2046     		mov	r0, r4
 218 0026 FFF7FEFF 		bl	spi_lld_stop
 219              	.LVL24:
 220              		.loc 1 138 0
 221 002a 0121     		movs	r1, #1
 222 002c 2170     		strb	r1, [r4, #0]
 223              		.loc 1 139 0
 224 002e FFF7FEFF 		bl	dbg_check_unlock
 225              	.LVL25:
 226              	.LBB5:
ARM GAS  /tmp/ccmzzKax.s 			page 5


 227 0032 0023     		movs	r3, #0
 228              	.LVL26:
 229              	@ 139 "/home/formica/chibios/chibios/os/hal/src/spi.c" 1
 230 0034 83F31188 		msr     BASEPRI, r3
 231              	@ 0 "" 2
 232              	.LVL27:
 233              		.thumb
 234 0038 10BD     		pop	{r4, pc}
 235              	.LVL28:
 236              	.L16:
 237              	.LBE5:
 238              		.loc 1 131 0 discriminator 1
 239 003a 0348     		ldr	r0, .L17+4
 240              	.LVL29:
 241 003c FFF7FEFF 		bl	chDbgPanic
 242              	.LVL30:
 243 0040 E1E7     		b	.L14
 244              	.L18:
 245 0042 00BF     		.align	2
 246              	.L17:
 247 0044 2C000000 		.word	.LC3
 248 0048 20000000 		.word	.LC2
 249              		.cfi_endproc
 250              	.LFE65:
 251              		.size	spiStop, .-spiStop
 252 004c AFF30080 		.section	.text.spiSelect,"ax",%progbits
 253              		.align	2
 254              		.p2align 4,,15
 255              		.global	spiSelect
 256              		.thumb
 257              		.thumb_func
 258              		.type	spiSelect, %function
 259              	spiSelect:
 260              	.LFB66:
 261              		.loc 1 149 0
 262              		.cfi_startproc
 263              		@ args = 0, pretend = 0, frame = 0
 264              		@ frame_needed = 0, uses_anonymous_args = 0
 265              	.LVL31:
 266 0000 10B5     		push	{r4, lr}
 267              	.LCFI2:
 268              		.cfi_def_cfa_offset 8
 269              		.cfi_offset 4, -8
 270              		.cfi_offset 14, -4
 271              		.loc 1 151 0
 272 0002 0446     		mov	r4, r0
 273 0004 98B1     		cbz	r0, .L25
 274              	.LVL32:
 275              	.L20:
 276              	.LBB6:
 277              		.loc 1 153 0
 278 0006 2023     		movs	r3, #32
 279              	.LVL33:
 280              	@ 153 "/home/formica/chibios/chibios/os/hal/src/spi.c" 1
 281 0008 83F31188 		msr     BASEPRI, r3
 282              	@ 0 "" 2
 283              	.LVL34:
ARM GAS  /tmp/ccmzzKax.s 			page 6


 284              		.thumb
 285              	.LBE6:
 286 000c FFF7FEFF 		bl	dbg_check_lock
 287              	.LVL35:
 288              		.loc 1 154 0
 289 0010 2378     		ldrb	r3, [r4, #0]	@ zero_extendqisi2
 290 0012 022B     		cmp	r3, #2
 291 0014 02D0     		beq	.L21
 292              		.loc 1 154 0 is_stmt 0 discriminator 1
 293 0016 0848     		ldr	r0, .L26
 294 0018 FFF7FEFF 		bl	chDbgPanic
 295              	.LVL36:
 296              	.L21:
 297              		.loc 1 155 0 is_stmt 1
 298 001c 2046     		mov	r0, r4
 299 001e FFF7FEFF 		bl	spi_lld_select
 300              	.LVL37:
 301              		.loc 1 156 0
 302 0022 FFF7FEFF 		bl	dbg_check_unlock
 303              	.LVL38:
 304              	.LBB7:
 305 0026 0023     		movs	r3, #0
 306              	.LVL39:
 307              	@ 156 "/home/formica/chibios/chibios/os/hal/src/spi.c" 1
 308 0028 83F31188 		msr     BASEPRI, r3
 309              	@ 0 "" 2
 310              	.LVL40:
 311              		.thumb
 312 002c 10BD     		pop	{r4, pc}
 313              	.LVL41:
 314              	.L25:
 315              	.LBE7:
 316              		.loc 1 151 0 discriminator 1
 317 002e 0348     		ldr	r0, .L26+4
 318              	.LVL42:
 319 0030 FFF7FEFF 		bl	chDbgPanic
 320              	.LVL43:
 321 0034 E7E7     		b	.L20
 322              	.L27:
 323 0036 00BF     		.align	2
 324              	.L26:
 325 0038 4C000000 		.word	.LC5
 326 003c 3C000000 		.word	.LC4
 327              		.cfi_endproc
 328              	.LFE66:
 329              		.size	spiSelect, .-spiSelect
 330              		.section	.text.spiUnselect,"ax",%progbits
 331              		.align	2
 332              		.p2align 4,,15
 333              		.global	spiUnselect
 334              		.thumb
 335              		.thumb_func
 336              		.type	spiUnselect, %function
 337              	spiUnselect:
 338              	.LFB67:
 339              		.loc 1 167 0
 340              		.cfi_startproc
ARM GAS  /tmp/ccmzzKax.s 			page 7


 341              		@ args = 0, pretend = 0, frame = 0
 342              		@ frame_needed = 0, uses_anonymous_args = 0
 343              	.LVL44:
 344 0000 10B5     		push	{r4, lr}
 345              	.LCFI3:
 346              		.cfi_def_cfa_offset 8
 347              		.cfi_offset 4, -8
 348              		.cfi_offset 14, -4
 349              		.loc 1 169 0
 350 0002 0446     		mov	r4, r0
 351 0004 98B1     		cbz	r0, .L34
 352              	.LVL45:
 353              	.L29:
 354              	.LBB8:
 355              		.loc 1 171 0
 356 0006 2023     		movs	r3, #32
 357              	.LVL46:
 358              	@ 171 "/home/formica/chibios/chibios/os/hal/src/spi.c" 1
 359 0008 83F31188 		msr     BASEPRI, r3
 360              	@ 0 "" 2
 361              	.LVL47:
 362              		.thumb
 363              	.LBE8:
 364 000c FFF7FEFF 		bl	dbg_check_lock
 365              	.LVL48:
 366              		.loc 1 172 0
 367 0010 2378     		ldrb	r3, [r4, #0]	@ zero_extendqisi2
 368 0012 022B     		cmp	r3, #2
 369 0014 02D0     		beq	.L30
 370              		.loc 1 172 0 is_stmt 0 discriminator 1
 371 0016 0848     		ldr	r0, .L35
 372 0018 FFF7FEFF 		bl	chDbgPanic
 373              	.LVL49:
 374              	.L30:
 375              		.loc 1 173 0 is_stmt 1
 376 001c 2046     		mov	r0, r4
 377 001e FFF7FEFF 		bl	spi_lld_unselect
 378              	.LVL50:
 379              		.loc 1 174 0
 380 0022 FFF7FEFF 		bl	dbg_check_unlock
 381              	.LVL51:
 382              	.LBB9:
 383 0026 0023     		movs	r3, #0
 384              	.LVL52:
 385              	@ 174 "/home/formica/chibios/chibios/os/hal/src/spi.c" 1
 386 0028 83F31188 		msr     BASEPRI, r3
 387              	@ 0 "" 2
 388              	.LVL53:
 389              		.thumb
 390 002c 10BD     		pop	{r4, pc}
 391              	.LVL54:
 392              	.L34:
 393              	.LBE9:
 394              		.loc 1 169 0 discriminator 1
 395 002e 0348     		ldr	r0, .L35+4
 396              	.LVL55:
 397 0030 FFF7FEFF 		bl	chDbgPanic
ARM GAS  /tmp/ccmzzKax.s 			page 8


 398              	.LVL56:
 399 0034 E7E7     		b	.L29
 400              	.L36:
 401 0036 00BF     		.align	2
 402              	.L35:
 403 0038 6C000000 		.word	.LC7
 404 003c 5C000000 		.word	.LC6
 405              		.cfi_endproc
 406              	.LFE67:
 407              		.size	spiUnselect, .-spiUnselect
 408              		.section	.text.spiStartIgnore,"ax",%progbits
 409              		.align	2
 410              		.p2align 4,,15
 411              		.global	spiStartIgnore
 412              		.thumb
 413              		.thumb_func
 414              		.type	spiStartIgnore, %function
 415              	spiStartIgnore:
 416              	.LFB68:
 417              		.loc 1 190 0
 418              		.cfi_startproc
 419              		@ args = 0, pretend = 0, frame = 0
 420              		@ frame_needed = 0, uses_anonymous_args = 0
 421              	.LVL57:
 422 0000 38B5     		push	{r3, r4, r5, lr}
 423              	.LCFI4:
 424              		.cfi_def_cfa_offset 16
 425              		.cfi_offset 3, -16
 426              		.cfi_offset 4, -12
 427              		.cfi_offset 5, -8
 428              		.cfi_offset 14, -4
 429              		.loc 1 192 0
 430 0002 0446     		mov	r4, r0
 431              		.loc 1 190 0
 432 0004 0D46     		mov	r5, r1
 433              		.loc 1 192 0
 434 0006 B8B1     		cbz	r0, .L38
 435              		.loc 1 192 0 is_stmt 0 discriminator 2
 436 0008 B1B1     		cbz	r1, .L38
 437              	.LVL58:
 438              	.L39:
 439              	.LBB10:
 440              		.loc 1 194 0 is_stmt 1
 441 000a 2023     		movs	r3, #32
 442              	.LVL59:
 443              	@ 194 "/home/formica/chibios/chibios/os/hal/src/spi.c" 1
 444 000c 83F31188 		msr     BASEPRI, r3
 445              	@ 0 "" 2
 446              	.LVL60:
 447              		.thumb
 448              	.LBE10:
 449 0010 FFF7FEFF 		bl	dbg_check_lock
 450              	.LVL61:
 451              		.loc 1 195 0
 452 0014 2378     		ldrb	r3, [r4, #0]	@ zero_extendqisi2
 453 0016 022B     		cmp	r3, #2
 454 0018 02D0     		beq	.L40
ARM GAS  /tmp/ccmzzKax.s 			page 9


 455              		.loc 1 195 0 is_stmt 0 discriminator 1
 456 001a 0948     		ldr	r0, .L47
 457 001c FFF7FEFF 		bl	chDbgPanic
 458              	.LVL62:
 459              	.L40:
 460              		.loc 1 196 0 is_stmt 1
 461 0020 0322     		movs	r2, #3
 462 0022 2046     		mov	r0, r4
 463 0024 2946     		mov	r1, r5
 464 0026 2270     		strb	r2, [r4, #0]
 465 0028 FFF7FEFF 		bl	spi_lld_ignore
 466              	.LVL63:
 467              		.loc 1 197 0
 468 002c FFF7FEFF 		bl	dbg_check_unlock
 469              	.LVL64:
 470              	.LBB11:
 471 0030 0023     		movs	r3, #0
 472              	.LVL65:
 473              	@ 197 "/home/formica/chibios/chibios/os/hal/src/spi.c" 1
 474 0032 83F31188 		msr     BASEPRI, r3
 475              	@ 0 "" 2
 476              	.LVL66:
 477              		.thumb
 478 0036 38BD     		pop	{r3, r4, r5, pc}
 479              	.LVL67:
 480              	.L38:
 481              	.LBE11:
 482              		.loc 1 192 0 discriminator 1
 483 0038 0248     		ldr	r0, .L47+4
 484              	.LVL68:
 485 003a FFF7FEFF 		bl	chDbgPanic
 486              	.LVL69:
 487 003e E4E7     		b	.L39
 488              	.L48:
 489              		.align	2
 490              	.L47:
 491 0040 94000000 		.word	.LC9
 492 0044 80000000 		.word	.LC8
 493              		.cfi_endproc
 494              	.LFE68:
 495              		.size	spiStartIgnore, .-spiStartIgnore
 496 0048 AFF30080 		.section	.text.spiStartExchange,"ax",%progbits
 496      AFF30080 
 497              		.align	2
 498              		.p2align 4,,15
 499              		.global	spiStartExchange
 500              		.thumb
 501              		.thumb_func
 502              		.type	spiStartExchange, %function
 503              	spiStartExchange:
 504              	.LFB69:
 505              		.loc 1 218 0
 506              		.cfi_startproc
 507              		@ args = 0, pretend = 0, frame = 0
 508              		@ frame_needed = 0, uses_anonymous_args = 0
 509              	.LVL70:
 510 0000 F8B5     		push	{r3, r4, r5, r6, r7, lr}
ARM GAS  /tmp/ccmzzKax.s 			page 10


 511              	.LCFI5:
 512              		.cfi_def_cfa_offset 24
 513              		.cfi_offset 3, -24
 514              		.cfi_offset 4, -20
 515              		.cfi_offset 5, -16
 516              		.cfi_offset 6, -12
 517              		.cfi_offset 7, -8
 518              		.cfi_offset 14, -4
 519              		.loc 1 220 0
 520 0002 0446     		mov	r4, r0
 521              		.loc 1 218 0
 522 0004 0D46     		mov	r5, r1
 523 0006 1746     		mov	r7, r2
 524 0008 1E46     		mov	r6, r3
 525              		.loc 1 220 0
 526 000a 00B1     		cbz	r0, .L50
 527              		.loc 1 220 0 is_stmt 0 discriminator 2
 528 000c D9B9     		cbnz	r1, .L65
 529              	.L50:
 530              		.loc 1 220 0 discriminator 1
 531 000e 1048     		ldr	r0, .L66
 532              	.LVL71:
 533 0010 FFF7FEFF 		bl	chDbgPanic
 534              	.LVL72:
 535              	.L51:
 536              	.LBB12:
 537              		.loc 1 223 0 is_stmt 1
 538 0014 2023     		movs	r3, #32
 539              	.LVL73:
 540              	@ 223 "/home/formica/chibios/chibios/os/hal/src/spi.c" 1
 541 0016 83F31188 		msr     BASEPRI, r3
 542              	@ 0 "" 2
 543              	.LVL74:
 544              		.thumb
 545              	.LBE12:
 546 001a FFF7FEFF 		bl	dbg_check_lock
 547              	.LVL75:
 548              		.loc 1 224 0
 549 001e 2378     		ldrb	r3, [r4, #0]	@ zero_extendqisi2
 550 0020 022B     		cmp	r3, #2
 551 0022 02D0     		beq	.L52
 552              		.loc 1 224 0 is_stmt 0 discriminator 1
 553 0024 0B48     		ldr	r0, .L66+4
 554 0026 FFF7FEFF 		bl	chDbgPanic
 555              	.LVL76:
 556              	.L52:
 557              		.loc 1 225 0 is_stmt 1
 558 002a 2946     		mov	r1, r5
 559 002c 0325     		movs	r5, #3
 560              	.LVL77:
 561 002e 3346     		mov	r3, r6
 562 0030 2046     		mov	r0, r4
 563 0032 3A46     		mov	r2, r7
 564 0034 2570     		strb	r5, [r4, #0]
 565 0036 FFF7FEFF 		bl	spi_lld_exchange
 566              	.LVL78:
 567              		.loc 1 226 0
ARM GAS  /tmp/ccmzzKax.s 			page 11


 568 003a FFF7FEFF 		bl	dbg_check_unlock
 569              	.LVL79:
 570              	.LBB13:
 571 003e 0023     		movs	r3, #0
 572              	.LVL80:
 573              	@ 226 "/home/formica/chibios/chibios/os/hal/src/spi.c" 1
 574 0040 83F31188 		msr     BASEPRI, r3
 575              	@ 0 "" 2
 576              	.LVL81:
 577              		.thumb
 578 0044 F8BD     		pop	{r3, r4, r5, r6, r7, pc}
 579              	.LVL82:
 580              	.L65:
 581              	.LBE13:
 582              		.loc 1 220 0 discriminator 3
 583 0046 002B     		cmp	r3, #0
 584 0048 E1D0     		beq	.L50
 585              		.loc 1 220 0 is_stmt 0 discriminator 4
 586 004a 002A     		cmp	r2, #0
 587 004c E2D1     		bne	.L51
 588 004e DEE7     		b	.L50
 589              	.L67:
 590              		.align	2
 591              	.L66:
 592 0050 AC000000 		.word	.LC10
 593 0054 C4000000 		.word	.LC11
 594              		.cfi_endproc
 595              	.LFE69:
 596              		.size	spiStartExchange, .-spiStartExchange
 597 0058 AFF30080 		.section	.text.spiStartSend,"ax",%progbits
 597      AFF30080 
 598              		.align	2
 599              		.p2align 4,,15
 600              		.global	spiStartSend
 601              		.thumb
 602              		.thumb_func
 603              		.type	spiStartSend, %function
 604              	spiStartSend:
 605              	.LFB70:
 606              		.loc 1 244 0 is_stmt 1
 607              		.cfi_startproc
 608              		@ args = 0, pretend = 0, frame = 0
 609              		@ frame_needed = 0, uses_anonymous_args = 0
 610              	.LVL83:
 611 0000 70B5     		push	{r4, r5, r6, lr}
 612              	.LCFI6:
 613              		.cfi_def_cfa_offset 16
 614              		.cfi_offset 4, -16
 615              		.cfi_offset 5, -12
 616              		.cfi_offset 6, -8
 617              		.cfi_offset 14, -4
 618              		.loc 1 246 0
 619 0002 0446     		mov	r4, r0
 620              		.loc 1 244 0
 621 0004 0D46     		mov	r5, r1
 622 0006 1646     		mov	r6, r2
 623              		.loc 1 246 0
ARM GAS  /tmp/ccmzzKax.s 			page 12


 624 0008 00B1     		cbz	r0, .L69
 625              		.loc 1 246 0 is_stmt 0 discriminator 2
 626 000a D1B9     		cbnz	r1, .L81
 627              	.L69:
 628              		.loc 1 246 0 discriminator 1
 629 000c 0E48     		ldr	r0, .L82
 630              	.LVL84:
 631 000e FFF7FEFF 		bl	chDbgPanic
 632              	.LVL85:
 633              	.L70:
 634              	.LBB14:
 635              		.loc 1 249 0 is_stmt 1
 636 0012 2023     		movs	r3, #32
 637              	.LVL86:
 638              	@ 249 "/home/formica/chibios/chibios/os/hal/src/spi.c" 1
 639 0014 83F31188 		msr     BASEPRI, r3
 640              	@ 0 "" 2
 641              	.LVL87:
 642              		.thumb
 643              	.LBE14:
 644 0018 FFF7FEFF 		bl	dbg_check_lock
 645              	.LVL88:
 646              		.loc 1 250 0
 647 001c 2378     		ldrb	r3, [r4, #0]	@ zero_extendqisi2
 648 001e 022B     		cmp	r3, #2
 649 0020 02D0     		beq	.L71
 650              		.loc 1 250 0 is_stmt 0 discriminator 1
 651 0022 0A48     		ldr	r0, .L82+4
 652 0024 FFF7FEFF 		bl	chDbgPanic
 653              	.LVL89:
 654              	.L71:
 655              		.loc 1 251 0 is_stmt 1
 656 0028 0323     		movs	r3, #3
 657 002a 2370     		strb	r3, [r4, #0]
 658 002c 2046     		mov	r0, r4
 659 002e 2946     		mov	r1, r5
 660 0030 3246     		mov	r2, r6
 661 0032 FFF7FEFF 		bl	spi_lld_send
 662              	.LVL90:
 663              		.loc 1 252 0
 664 0036 FFF7FEFF 		bl	dbg_check_unlock
 665              	.LVL91:
 666              	.LBB15:
 667 003a 0023     		movs	r3, #0
 668              	.LVL92:
 669              	@ 252 "/home/formica/chibios/chibios/os/hal/src/spi.c" 1
 670 003c 83F31188 		msr     BASEPRI, r3
 671              	@ 0 "" 2
 672              	.LVL93:
 673              		.thumb
 674 0040 70BD     		pop	{r4, r5, r6, pc}
 675              	.LVL94:
 676              	.L81:
 677              	.LBE15:
 678              		.loc 1 246 0 discriminator 3
 679 0042 002A     		cmp	r2, #0
 680 0044 E5D1     		bne	.L70
ARM GAS  /tmp/ccmzzKax.s 			page 13


 681 0046 E1E7     		b	.L69
 682              	.L83:
 683              		.align	2
 684              	.L82:
 685 0048 DC000000 		.word	.LC12
 686 004c F0000000 		.word	.LC13
 687              		.cfi_endproc
 688              	.LFE70:
 689              		.size	spiStartSend, .-spiStartSend
 690              		.section	.text.spiStartReceive,"ax",%progbits
 691              		.align	2
 692              		.p2align 4,,15
 693              		.global	spiStartReceive
 694              		.thumb
 695              		.thumb_func
 696              		.type	spiStartReceive, %function
 697              	spiStartReceive:
 698              	.LFB71:
 699              		.loc 1 270 0
 700              		.cfi_startproc
 701              		@ args = 0, pretend = 0, frame = 0
 702              		@ frame_needed = 0, uses_anonymous_args = 0
 703              	.LVL95:
 704 0000 70B5     		push	{r4, r5, r6, lr}
 705              	.LCFI7:
 706              		.cfi_def_cfa_offset 16
 707              		.cfi_offset 4, -16
 708              		.cfi_offset 5, -12
 709              		.cfi_offset 6, -8
 710              		.cfi_offset 14, -4
 711              		.loc 1 272 0
 712 0002 0446     		mov	r4, r0
 713              		.loc 1 270 0
 714 0004 0D46     		mov	r5, r1
 715 0006 1646     		mov	r6, r2
 716              		.loc 1 272 0
 717 0008 00B1     		cbz	r0, .L85
 718              		.loc 1 272 0 is_stmt 0 discriminator 2
 719 000a D1B9     		cbnz	r1, .L97
 720              	.L85:
 721              		.loc 1 272 0 discriminator 1
 722 000c 0E48     		ldr	r0, .L98
 723              	.LVL96:
 724 000e FFF7FEFF 		bl	chDbgPanic
 725              	.LVL97:
 726              	.L86:
 727              	.LBB16:
 728              		.loc 1 275 0 is_stmt 1
 729 0012 2023     		movs	r3, #32
 730              	.LVL98:
 731              	@ 275 "/home/formica/chibios/chibios/os/hal/src/spi.c" 1
 732 0014 83F31188 		msr     BASEPRI, r3
 733              	@ 0 "" 2
 734              	.LVL99:
 735              		.thumb
 736              	.LBE16:
 737 0018 FFF7FEFF 		bl	dbg_check_lock
ARM GAS  /tmp/ccmzzKax.s 			page 14


 738              	.LVL100:
 739              		.loc 1 276 0
 740 001c 2378     		ldrb	r3, [r4, #0]	@ zero_extendqisi2
 741 001e 022B     		cmp	r3, #2
 742 0020 02D0     		beq	.L87
 743              		.loc 1 276 0 is_stmt 0 discriminator 1
 744 0022 0A48     		ldr	r0, .L98+4
 745 0024 FFF7FEFF 		bl	chDbgPanic
 746              	.LVL101:
 747              	.L87:
 748              		.loc 1 277 0 is_stmt 1
 749 0028 0323     		movs	r3, #3
 750 002a 2370     		strb	r3, [r4, #0]
 751 002c 2046     		mov	r0, r4
 752 002e 2946     		mov	r1, r5
 753 0030 3246     		mov	r2, r6
 754 0032 FFF7FEFF 		bl	spi_lld_receive
 755              	.LVL102:
 756              		.loc 1 278 0
 757 0036 FFF7FEFF 		bl	dbg_check_unlock
 758              	.LVL103:
 759              	.LBB17:
 760 003a 0023     		movs	r3, #0
 761              	.LVL104:
 762              	@ 278 "/home/formica/chibios/chibios/os/hal/src/spi.c" 1
 763 003c 83F31188 		msr     BASEPRI, r3
 764              	@ 0 "" 2
 765              	.LVL105:
 766              		.thumb
 767 0040 70BD     		pop	{r4, r5, r6, pc}
 768              	.LVL106:
 769              	.L97:
 770              	.LBE17:
 771              		.loc 1 272 0 discriminator 3
 772 0042 002A     		cmp	r2, #0
 773 0044 E5D1     		bne	.L86
 774 0046 E1E7     		b	.L85
 775              	.L99:
 776              		.align	2
 777              	.L98:
 778 0048 04010000 		.word	.LC14
 779 004c 18010000 		.word	.LC15
 780              		.cfi_endproc
 781              	.LFE71:
 782              		.size	spiStartReceive, .-spiStartReceive
 783              		.section	.text.spiIgnore,"ax",%progbits
 784              		.align	2
 785              		.p2align 4,,15
 786              		.global	spiIgnore
 787              		.thumb
 788              		.thumb_func
 789              		.type	spiIgnore, %function
 790              	spiIgnore:
 791              	.LFB72:
 792              		.loc 1 296 0
 793              		.cfi_startproc
 794              		@ args = 0, pretend = 0, frame = 0
ARM GAS  /tmp/ccmzzKax.s 			page 15


 795              		@ frame_needed = 0, uses_anonymous_args = 0
 796              	.LVL107:
 797 0000 38B5     		push	{r3, r4, r5, lr}
 798              	.LCFI8:
 799              		.cfi_def_cfa_offset 16
 800              		.cfi_offset 3, -16
 801              		.cfi_offset 4, -12
 802              		.cfi_offset 5, -8
 803              		.cfi_offset 14, -4
 804              		.loc 1 298 0
 805 0002 0446     		mov	r4, r0
 806              		.loc 1 296 0
 807 0004 0D46     		mov	r5, r1
 808              		.loc 1 298 0
 809 0006 40B3     		cbz	r0, .L101
 810              		.loc 1 298 0 is_stmt 0 discriminator 2
 811 0008 39B3     		cbz	r1, .L101
 812              	.LVL108:
 813              	.L102:
 814              	.LBB18:
 815              		.loc 1 300 0 is_stmt 1
 816 000a 2023     		movs	r3, #32
 817              	.LVL109:
 818              	@ 300 "/home/formica/chibios/chibios/os/hal/src/spi.c" 1
 819 000c 83F31188 		msr     BASEPRI, r3
 820              	@ 0 "" 2
 821              	.LVL110:
 822              		.thumb
 823              	.LBE18:
 824 0010 FFF7FEFF 		bl	dbg_check_lock
 825              	.LVL111:
 826              		.loc 1 301 0
 827 0014 2378     		ldrb	r3, [r4, #0]	@ zero_extendqisi2
 828 0016 022B     		cmp	r3, #2
 829 0018 02D0     		beq	.L103
 830              		.loc 1 301 0 is_stmt 0 discriminator 1
 831 001a 1248     		ldr	r0, .L118
 832 001c FFF7FEFF 		bl	chDbgPanic
 833              	.LVL112:
 834              	.L103:
 835              		.loc 1 302 0 is_stmt 1
 836 0020 6068     		ldr	r0, [r4, #4]
 837 0022 0168     		ldr	r1, [r0, #0]
 838 0024 11B1     		cbz	r1, .L104
 839              		.loc 1 302 0 is_stmt 0 discriminator 1
 840 0026 1048     		ldr	r0, .L118+4
 841 0028 FFF7FEFF 		bl	chDbgPanic
 842              	.LVL113:
 843              	.L104:
 844              		.loc 1 303 0 is_stmt 1
 845 002c 0322     		movs	r2, #3
 846 002e 2270     		strb	r2, [r4, #0]
 847 0030 2046     		mov	r0, r4
 848 0032 2946     		mov	r1, r5
 849 0034 FFF7FEFF 		bl	spi_lld_ignore
 850              	.LVL114:
 851              		.loc 1 304 0
ARM GAS  /tmp/ccmzzKax.s 			page 16


 852 0038 A368     		ldr	r3, [r4, #8]
 853 003a 13B1     		cbz	r3, .L105
 854              		.loc 1 304 0 is_stmt 0 discriminator 1
 855 003c 0B48     		ldr	r0, .L118+8
 856 003e FFF7FEFF 		bl	chDbgPanic
 857              	.LVL115:
 858              	.L105:
 859              		.loc 1 304 0 discriminator 2
 860 0042 0B49     		ldr	r1, .L118+12
 861 0044 0220     		movs	r0, #2
 862 0046 CA69     		ldr	r2, [r1, #28]
 863 0048 A260     		str	r2, [r4, #8]
 864 004a FFF7FEFF 		bl	chSchGoSleepS
 865              	.LVL116:
 866              		.loc 1 305 0 is_stmt 1 discriminator 2
 867 004e FFF7FEFF 		bl	dbg_check_unlock
 868              	.LVL117:
 869              	.LBB19:
 870 0052 0023     		movs	r3, #0
 871              	.LVL118:
 872              	@ 305 "/home/formica/chibios/chibios/os/hal/src/spi.c" 1
 873 0054 83F31188 		msr     BASEPRI, r3
 874              	@ 0 "" 2
 875              	.LVL119:
 876              		.thumb
 877 0058 38BD     		pop	{r3, r4, r5, pc}
 878              	.LVL120:
 879              	.L101:
 880              	.LBE19:
 881              		.loc 1 298 0 discriminator 1
 882 005a 0648     		ldr	r0, .L118+16
 883              	.LVL121:
 884 005c FFF7FEFF 		bl	chDbgPanic
 885              	.LVL122:
 886 0060 D3E7     		b	.L102
 887              	.L119:
 888 0062 00BF     		.align	2
 889              	.L118:
 890 0064 44010000 		.word	.LC17
 891 0068 54010000 		.word	.LC18
 892 006c 64010000 		.word	.LC19
 893 0070 00000000 		.word	rlist
 894 0074 30010000 		.word	.LC16
 895              		.cfi_endproc
 896              	.LFE72:
 897              		.size	spiIgnore, .-spiIgnore
 898 0078 AFF30080 		.section	.text.spiExchange,"ax",%progbits
 898      AFF30080 
 899              		.align	2
 900              		.p2align 4,,15
 901              		.global	spiExchange
 902              		.thumb
 903              		.thumb_func
 904              		.type	spiExchange, %function
 905              	spiExchange:
 906              	.LFB73:
 907              		.loc 1 327 0
ARM GAS  /tmp/ccmzzKax.s 			page 17


 908              		.cfi_startproc
 909              		@ args = 0, pretend = 0, frame = 0
 910              		@ frame_needed = 0, uses_anonymous_args = 0
 911              	.LVL123:
 912 0000 F8B5     		push	{r3, r4, r5, r6, r7, lr}
 913              	.LCFI9:
 914              		.cfi_def_cfa_offset 24
 915              		.cfi_offset 3, -24
 916              		.cfi_offset 4, -20
 917              		.cfi_offset 5, -16
 918              		.cfi_offset 6, -12
 919              		.cfi_offset 7, -8
 920              		.cfi_offset 14, -4
 921              		.loc 1 329 0
 922 0002 0446     		mov	r4, r0
 923              		.loc 1 327 0
 924 0004 0D46     		mov	r5, r1
 925 0006 1746     		mov	r7, r2
 926 0008 1E46     		mov	r6, r3
 927              		.loc 1 329 0
 928 000a 08B1     		cbz	r0, .L121
 929              		.loc 1 329 0 is_stmt 0 discriminator 2
 930 000c 0029     		cmp	r1, #0
 931 000e 2CD1     		bne	.L144
 932              	.L121:
 933              		.loc 1 329 0 discriminator 1
 934 0010 1848     		ldr	r0, .L145
 935              	.LVL124:
 936 0012 FFF7FEFF 		bl	chDbgPanic
 937              	.LVL125:
 938              	.L122:
 939              	.LBB20:
 940              		.loc 1 332 0 is_stmt 1
 941 0016 2023     		movs	r3, #32
 942              	.LVL126:
 943              	@ 332 "/home/formica/chibios/chibios/os/hal/src/spi.c" 1
 944 0018 83F31188 		msr     BASEPRI, r3
 945              	@ 0 "" 2
 946              	.LVL127:
 947              		.thumb
 948              	.LBE20:
 949 001c FFF7FEFF 		bl	dbg_check_lock
 950              	.LVL128:
 951              		.loc 1 333 0
 952 0020 2378     		ldrb	r3, [r4, #0]	@ zero_extendqisi2
 953 0022 022B     		cmp	r3, #2
 954 0024 02D0     		beq	.L123
 955              		.loc 1 333 0 is_stmt 0 discriminator 1
 956 0026 1448     		ldr	r0, .L145+4
 957 0028 FFF7FEFF 		bl	chDbgPanic
 958              	.LVL129:
 959              	.L123:
 960              		.loc 1 334 0 is_stmt 1
 961 002c 6068     		ldr	r0, [r4, #4]
 962 002e 0168     		ldr	r1, [r0, #0]
 963 0030 11B1     		cbz	r1, .L124
 964              		.loc 1 334 0 is_stmt 0 discriminator 1
ARM GAS  /tmp/ccmzzKax.s 			page 18


 965 0032 1248     		ldr	r0, .L145+8
 966 0034 FFF7FEFF 		bl	chDbgPanic
 967              	.LVL130:
 968              	.L124:
 969              		.loc 1 336 0 is_stmt 1
 970 0038 0322     		movs	r2, #3
 971 003a 2270     		strb	r2, [r4, #0]
 972 003c 3346     		mov	r3, r6
 973 003e 2046     		mov	r0, r4
 974 0040 2946     		mov	r1, r5
 975 0042 3A46     		mov	r2, r7
 976 0044 FFF7FEFF 		bl	spi_lld_exchange
 977              	.LVL131:
 978              		.loc 1 337 0
 979 0048 A368     		ldr	r3, [r4, #8]
 980 004a 13B1     		cbz	r3, .L125
 981              		.loc 1 337 0 is_stmt 0 discriminator 1
 982 004c 0C48     		ldr	r0, .L145+12
 983 004e FFF7FEFF 		bl	chDbgPanic
 984              	.LVL132:
 985              	.L125:
 986              		.loc 1 337 0 discriminator 2
 987 0052 0C49     		ldr	r1, .L145+16
 988 0054 0220     		movs	r0, #2
 989 0056 CA69     		ldr	r2, [r1, #28]
 990 0058 A260     		str	r2, [r4, #8]
 991 005a FFF7FEFF 		bl	chSchGoSleepS
 992              	.LVL133:
 993              		.loc 1 338 0 is_stmt 1 discriminator 2
 994 005e FFF7FEFF 		bl	dbg_check_unlock
 995              	.LVL134:
 996              	.LBB21:
 997 0062 0023     		movs	r3, #0
 998              	.LVL135:
 999              	@ 338 "/home/formica/chibios/chibios/os/hal/src/spi.c" 1
 1000 0064 83F31188 		msr     BASEPRI, r3
 1001              	@ 0 "" 2
 1002              	.LVL136:
 1003              		.thumb
 1004 0068 F8BD     		pop	{r3, r4, r5, r6, r7, pc}
 1005              	.LVL137:
 1006              	.L144:
 1007              	.LBE21:
 1008              		.loc 1 329 0 discriminator 3
 1009 006a 002B     		cmp	r3, #0
 1010 006c D0D0     		beq	.L121
 1011              		.loc 1 329 0 is_stmt 0 discriminator 4
 1012 006e 002A     		cmp	r2, #0
 1013 0070 D1D1     		bne	.L122
 1014 0072 CDE7     		b	.L121
 1015              	.L146:
 1016              		.align	2
 1017              	.L145:
 1018 0074 74010000 		.word	.LC20
 1019 0078 84010000 		.word	.LC21
 1020 007c 98010000 		.word	.LC22
 1021 0080 64010000 		.word	.LC19
ARM GAS  /tmp/ccmzzKax.s 			page 19


 1022 0084 00000000 		.word	rlist
 1023              		.cfi_endproc
 1024              	.LFE73:
 1025              		.size	spiExchange, .-spiExchange
 1026 0088 AFF30080 		.section	.text.spiSend,"ax",%progbits
 1026      AFF30080 
 1027              		.align	2
 1028              		.p2align 4,,15
 1029              		.global	spiSend
 1030              		.thumb
 1031              		.thumb_func
 1032              		.type	spiSend, %function
 1033              	spiSend:
 1034              	.LFB74:
 1035              		.loc 1 357 0 is_stmt 1
 1036              		.cfi_startproc
 1037              		@ args = 0, pretend = 0, frame = 0
 1038              		@ frame_needed = 0, uses_anonymous_args = 0
 1039              	.LVL138:
 1040 0000 70B5     		push	{r4, r5, r6, lr}
 1041              	.LCFI10:
 1042              		.cfi_def_cfa_offset 16
 1043              		.cfi_offset 4, -16
 1044              		.cfi_offset 5, -12
 1045              		.cfi_offset 6, -8
 1046              		.cfi_offset 14, -4
 1047              		.loc 1 359 0
 1048 0002 0446     		mov	r4, r0
 1049              		.loc 1 357 0
 1050 0004 0D46     		mov	r5, r1
 1051 0006 1646     		mov	r6, r2
 1052              		.loc 1 359 0
 1053 0008 00B1     		cbz	r0, .L148
 1054              		.loc 1 359 0 is_stmt 0 discriminator 2
 1055 000a 59BB     		cbnz	r1, .L168
 1056              	.L148:
 1057              		.loc 1 359 0 discriminator 1
 1058 000c 1748     		ldr	r0, .L169
 1059              	.LVL139:
 1060 000e FFF7FEFF 		bl	chDbgPanic
 1061              	.LVL140:
 1062              	.L149:
 1063              	.LBB22:
 1064              		.loc 1 361 0 is_stmt 1
 1065 0012 2023     		movs	r3, #32
 1066              	.LVL141:
 1067              	@ 361 "/home/formica/chibios/chibios/os/hal/src/spi.c" 1
 1068 0014 83F31188 		msr     BASEPRI, r3
 1069              	@ 0 "" 2
 1070              	.LVL142:
 1071              		.thumb
 1072              	.LBE22:
 1073 0018 FFF7FEFF 		bl	dbg_check_lock
 1074              	.LVL143:
 1075              		.loc 1 362 0
 1076 001c 2378     		ldrb	r3, [r4, #0]	@ zero_extendqisi2
 1077 001e 022B     		cmp	r3, #2
ARM GAS  /tmp/ccmzzKax.s 			page 20


 1078 0020 02D0     		beq	.L150
 1079              		.loc 1 362 0 is_stmt 0 discriminator 1
 1080 0022 1348     		ldr	r0, .L169+4
 1081 0024 FFF7FEFF 		bl	chDbgPanic
 1082              	.LVL144:
 1083              	.L150:
 1084              		.loc 1 363 0 is_stmt 1
 1085 0028 6068     		ldr	r0, [r4, #4]
 1086 002a 0168     		ldr	r1, [r0, #0]
 1087 002c 11B1     		cbz	r1, .L151
 1088              		.loc 1 363 0 is_stmt 0 discriminator 1
 1089 002e 1148     		ldr	r0, .L169+8
 1090 0030 FFF7FEFF 		bl	chDbgPanic
 1091              	.LVL145:
 1092              	.L151:
 1093              		.loc 1 364 0 is_stmt 1
 1094 0034 0322     		movs	r2, #3
 1095 0036 2270     		strb	r2, [r4, #0]
 1096 0038 2046     		mov	r0, r4
 1097 003a 2946     		mov	r1, r5
 1098 003c 3246     		mov	r2, r6
 1099 003e FFF7FEFF 		bl	spi_lld_send
 1100              	.LVL146:
 1101              		.loc 1 365 0
 1102 0042 A368     		ldr	r3, [r4, #8]
 1103 0044 13B1     		cbz	r3, .L152
 1104              		.loc 1 365 0 is_stmt 0 discriminator 1
 1105 0046 0C48     		ldr	r0, .L169+12
 1106 0048 FFF7FEFF 		bl	chDbgPanic
 1107              	.LVL147:
 1108              	.L152:
 1109              		.loc 1 365 0 discriminator 2
 1110 004c 0B49     		ldr	r1, .L169+16
 1111 004e 0220     		movs	r0, #2
 1112 0050 CA69     		ldr	r2, [r1, #28]
 1113 0052 A260     		str	r2, [r4, #8]
 1114 0054 FFF7FEFF 		bl	chSchGoSleepS
 1115              	.LVL148:
 1116              		.loc 1 366 0 is_stmt 1 discriminator 2
 1117 0058 FFF7FEFF 		bl	dbg_check_unlock
 1118              	.LVL149:
 1119              	.LBB23:
 1120 005c 0023     		movs	r3, #0
 1121              	.LVL150:
 1122              	@ 366 "/home/formica/chibios/chibios/os/hal/src/spi.c" 1
 1123 005e 83F31188 		msr     BASEPRI, r3
 1124              	@ 0 "" 2
 1125              	.LVL151:
 1126              		.thumb
 1127 0062 70BD     		pop	{r4, r5, r6, pc}
 1128              	.LVL152:
 1129              	.L168:
 1130              	.LBE23:
 1131              		.loc 1 359 0 discriminator 3
 1132 0064 002A     		cmp	r2, #0
 1133 0066 D4D1     		bne	.L149
 1134 0068 D0E7     		b	.L148
ARM GAS  /tmp/ccmzzKax.s 			page 21


 1135              	.L170:
 1136 006a 00BF     		.align	2
 1137              	.L169:
 1138 006c AC010000 		.word	.LC23
 1139 0070 B8010000 		.word	.LC24
 1140 0074 C8010000 		.word	.LC25
 1141 0078 64010000 		.word	.LC19
 1142 007c 00000000 		.word	rlist
 1143              		.cfi_endproc
 1144              	.LFE74:
 1145              		.size	spiSend, .-spiSend
 1146              		.section	.text.spiReceive,"ax",%progbits
 1147              		.align	2
 1148              		.p2align 4,,15
 1149              		.global	spiReceive
 1150              		.thumb
 1151              		.thumb_func
 1152              		.type	spiReceive, %function
 1153              	spiReceive:
 1154              	.LFB75:
 1155              		.loc 1 385 0
 1156              		.cfi_startproc
 1157              		@ args = 0, pretend = 0, frame = 0
 1158              		@ frame_needed = 0, uses_anonymous_args = 0
 1159              	.LVL153:
 1160 0000 70B5     		push	{r4, r5, r6, lr}
 1161              	.LCFI11:
 1162              		.cfi_def_cfa_offset 16
 1163              		.cfi_offset 4, -16
 1164              		.cfi_offset 5, -12
 1165              		.cfi_offset 6, -8
 1166              		.cfi_offset 14, -4
 1167              		.loc 1 387 0
 1168 0002 0446     		mov	r4, r0
 1169              		.loc 1 385 0
 1170 0004 0D46     		mov	r5, r1
 1171 0006 1646     		mov	r6, r2
 1172              		.loc 1 387 0
 1173 0008 00B1     		cbz	r0, .L172
 1174              		.loc 1 387 0 is_stmt 0 discriminator 2
 1175 000a 59BB     		cbnz	r1, .L192
 1176              	.L172:
 1177              		.loc 1 387 0 discriminator 1
 1178 000c 1748     		ldr	r0, .L193
 1179              	.LVL154:
 1180 000e FFF7FEFF 		bl	chDbgPanic
 1181              	.LVL155:
 1182              	.L173:
 1183              	.LBB24:
 1184              		.loc 1 390 0 is_stmt 1
 1185 0012 2023     		movs	r3, #32
 1186              	.LVL156:
 1187              	@ 390 "/home/formica/chibios/chibios/os/hal/src/spi.c" 1
 1188 0014 83F31188 		msr     BASEPRI, r3
 1189              	@ 0 "" 2
 1190              	.LVL157:
 1191              		.thumb
ARM GAS  /tmp/ccmzzKax.s 			page 22


 1192              	.LBE24:
 1193 0018 FFF7FEFF 		bl	dbg_check_lock
 1194              	.LVL158:
 1195              		.loc 1 391 0
 1196 001c 2378     		ldrb	r3, [r4, #0]	@ zero_extendqisi2
 1197 001e 022B     		cmp	r3, #2
 1198 0020 02D0     		beq	.L174
 1199              		.loc 1 391 0 is_stmt 0 discriminator 1
 1200 0022 1348     		ldr	r0, .L193+4
 1201 0024 FFF7FEFF 		bl	chDbgPanic
 1202              	.LVL159:
 1203              	.L174:
 1204              		.loc 1 392 0 is_stmt 1
 1205 0028 6068     		ldr	r0, [r4, #4]
 1206 002a 0168     		ldr	r1, [r0, #0]
 1207 002c 11B1     		cbz	r1, .L175
 1208              		.loc 1 392 0 is_stmt 0 discriminator 1
 1209 002e 1148     		ldr	r0, .L193+8
 1210 0030 FFF7FEFF 		bl	chDbgPanic
 1211              	.LVL160:
 1212              	.L175:
 1213              		.loc 1 394 0 is_stmt 1
 1214 0034 0322     		movs	r2, #3
 1215 0036 2270     		strb	r2, [r4, #0]
 1216 0038 2046     		mov	r0, r4
 1217 003a 2946     		mov	r1, r5
 1218 003c 3246     		mov	r2, r6
 1219 003e FFF7FEFF 		bl	spi_lld_receive
 1220              	.LVL161:
 1221              		.loc 1 395 0
 1222 0042 A368     		ldr	r3, [r4, #8]
 1223 0044 13B1     		cbz	r3, .L176
 1224              		.loc 1 395 0 is_stmt 0 discriminator 1
 1225 0046 0C48     		ldr	r0, .L193+12
 1226 0048 FFF7FEFF 		bl	chDbgPanic
 1227              	.LVL162:
 1228              	.L176:
 1229              		.loc 1 395 0 discriminator 2
 1230 004c 0B49     		ldr	r1, .L193+16
 1231 004e 0220     		movs	r0, #2
 1232 0050 CA69     		ldr	r2, [r1, #28]
 1233 0052 A260     		str	r2, [r4, #8]
 1234 0054 FFF7FEFF 		bl	chSchGoSleepS
 1235              	.LVL163:
 1236              		.loc 1 396 0 is_stmt 1 discriminator 2
 1237 0058 FFF7FEFF 		bl	dbg_check_unlock
 1238              	.LVL164:
 1239              	.LBB25:
 1240 005c 0023     		movs	r3, #0
 1241              	.LVL165:
 1242              	@ 396 "/home/formica/chibios/chibios/os/hal/src/spi.c" 1
 1243 005e 83F31188 		msr     BASEPRI, r3
 1244              	@ 0 "" 2
 1245              	.LVL166:
 1246              		.thumb
 1247 0062 70BD     		pop	{r4, r5, r6, pc}
 1248              	.LVL167:
ARM GAS  /tmp/ccmzzKax.s 			page 23


 1249              	.L192:
 1250              	.LBE25:
 1251              		.loc 1 387 0 discriminator 3
 1252 0064 002A     		cmp	r2, #0
 1253 0066 D4D1     		bne	.L173
 1254 0068 D0E7     		b	.L172
 1255              	.L194:
 1256 006a 00BF     		.align	2
 1257              	.L193:
 1258 006c D8010000 		.word	.LC26
 1259 0070 E8010000 		.word	.LC27
 1260 0074 FC010000 		.word	.LC28
 1261 0078 64010000 		.word	.LC19
 1262 007c 00000000 		.word	rlist
 1263              		.cfi_endproc
 1264              	.LFE75:
 1265              		.size	spiReceive, .-spiReceive
 1266              		.section	.text.spiAcquireBus,"ax",%progbits
 1267              		.align	2
 1268              		.p2align 4,,15
 1269              		.global	spiAcquireBus
 1270              		.thumb
 1271              		.thumb_func
 1272              		.type	spiAcquireBus, %function
 1273              	spiAcquireBus:
 1274              	.LFB76:
 1275              		.loc 1 412 0
 1276              		.cfi_startproc
 1277              		@ args = 0, pretend = 0, frame = 0
 1278              		@ frame_needed = 0, uses_anonymous_args = 0
 1279              	.LVL168:
 1280 0000 10B5     		push	{r4, lr}
 1281              	.LCFI12:
 1282              		.cfi_def_cfa_offset 8
 1283              		.cfi_offset 4, -8
 1284              		.cfi_offset 14, -4
 1285              		.loc 1 414 0
 1286 0002 0446     		mov	r4, r0
 1287 0004 28B1     		cbz	r0, .L197
 1288              	.LVL169:
 1289              	.L196:
 1290              		.loc 1 417 0
 1291 0006 04F10C00 		add	r0, r4, #12
 1292              		.loc 1 421 0
 1293 000a BDE81040 		pop	{r4, lr}
 1294              		.loc 1 417 0
 1295 000e FFF7FEBF 		b	chMtxLock
 1296              	.LVL170:
 1297              	.L197:
 1298              		.loc 1 414 0 discriminator 1
 1299 0012 0248     		ldr	r0, .L198
 1300              	.LVL171:
 1301 0014 FFF7FEFF 		bl	chDbgPanic
 1302              	.LVL172:
 1303 0018 F5E7     		b	.L196
 1304              	.L199:
 1305 001a 00BF     		.align	2
ARM GAS  /tmp/ccmzzKax.s 			page 24


 1306              	.L198:
 1307 001c 10020000 		.word	.LC29
 1308              		.cfi_endproc
 1309              	.LFE76:
 1310              		.size	spiAcquireBus, .-spiAcquireBus
 1311              		.section	.text.spiReleaseBus,"ax",%progbits
 1312              		.align	2
 1313              		.p2align 4,,15
 1314              		.global	spiReleaseBus
 1315              		.thumb
 1316              		.thumb_func
 1317              		.type	spiReleaseBus, %function
 1318              	spiReleaseBus:
 1319              	.LFB77:
 1320              		.loc 1 432 0
 1321              		.cfi_startproc
 1322              		@ args = 0, pretend = 0, frame = 0
 1323              		@ frame_needed = 0, uses_anonymous_args = 0
 1324              	.LVL173:
 1325 0000 08B5     		push	{r3, lr}
 1326              	.LCFI13:
 1327              		.cfi_def_cfa_offset 8
 1328              		.cfi_offset 3, -8
 1329              		.cfi_offset 14, -4
 1330              		.loc 1 434 0
 1331 0002 18B1     		cbz	r0, .L202
 1332              	.LVL174:
 1333              	.L201:
 1334              		.loc 1 442 0
 1335 0004 BDE80840 		pop	{r3, lr}
 1336              		.loc 1 438 0
 1337 0008 FFF7FEBF 		b	chMtxUnlock
 1338              	.LVL175:
 1339              	.L202:
 1340              		.loc 1 434 0 discriminator 1
 1341 000c 0148     		ldr	r0, .L203
 1342              	.LVL176:
 1343 000e FFF7FEFF 		bl	chDbgPanic
 1344              	.LVL177:
 1345 0012 F7E7     		b	.L201
 1346              	.L204:
 1347              		.align	2
 1348              	.L203:
 1349 0014 24020000 		.word	.LC30
 1350              		.cfi_endproc
 1351              	.LFE77:
 1352              		.size	spiReleaseBus, .-spiReleaseBus
 1353 0018 AFF30080 		.section	.rodata.str1.4,"aMS",%progbits,1
 1353      AFF30080 
 1354              		.align	2
 1355              	.LC0:
 1356 0000 22737069 		.ascii	"\"spiStart\"()\000"
 1356      53746172 
 1356      74222829 
 1356      00
 1357 000d 000000   		.space	3
 1358              	.LC1:
ARM GAS  /tmp/ccmzzKax.s 			page 25


 1359 0010 73706953 		.ascii	"spiStart(), #1\000"
 1359      74617274 
 1359      28292C20 
 1359      233100
 1360 001f 00       		.space	1
 1361              	.LC2:
 1362 0020 22737069 		.ascii	"\"spiStop\"()\000"
 1362      53746F70 
 1362      22282900 
 1363              	.LC3:
 1364 002c 73706953 		.ascii	"spiStop(), #1\000"
 1364      746F7028 
 1364      292C2023 
 1364      3100
 1365 003a 0000     		.space	2
 1366              	.LC4:
 1367 003c 22737069 		.ascii	"\"spiSelect\"()\000"
 1367      53656C65 
 1367      63742228 
 1367      2900
 1368 004a 0000     		.space	2
 1369              	.LC5:
 1370 004c 73706953 		.ascii	"spiSelect(), #1\000"
 1370      656C6563 
 1370      7428292C 
 1370      20233100 
 1371              	.LC6:
 1372 005c 22737069 		.ascii	"\"spiUnselect\"()\000"
 1372      556E7365 
 1372      6C656374 
 1372      22282900 
 1373              	.LC7:
 1374 006c 73706955 		.ascii	"spiUnselect(), #1\000"
 1374      6E73656C 
 1374      65637428 
 1374      292C2023 
 1374      3100
 1375 007e 0000     		.space	2
 1376              	.LC8:
 1377 0080 22737069 		.ascii	"\"spiStartIgnore\"()\000"
 1377      53746172 
 1377      7449676E 
 1377      6F726522 
 1377      282900
 1378 0093 00       		.space	1
 1379              	.LC9:
 1380 0094 73706953 		.ascii	"spiStartIgnore(), #1\000"
 1380      74617274 
 1380      49676E6F 
 1380      72652829 
 1380      2C202331 
 1381 00a9 000000   		.space	3
 1382              	.LC10:
 1383 00ac 22737069 		.ascii	"\"spiStartExchange\"()\000"
 1383      53746172 
 1383      74457863 
 1383      68616E67 
ARM GAS  /tmp/ccmzzKax.s 			page 26


 1383      65222829 
 1384 00c1 000000   		.space	3
 1385              	.LC11:
 1386 00c4 73706953 		.ascii	"spiStartExchange(), #1\000"
 1386      74617274 
 1386      45786368 
 1386      616E6765 
 1386      28292C20 
 1387 00db 00       		.space	1
 1388              	.LC12:
 1389 00dc 22737069 		.ascii	"\"spiStartSend\"()\000"
 1389      53746172 
 1389      7453656E 
 1389      64222829 
 1389      00
 1390 00ed 000000   		.space	3
 1391              	.LC13:
 1392 00f0 73706953 		.ascii	"spiStartSend(), #1\000"
 1392      74617274 
 1392      53656E64 
 1392      28292C20 
 1392      233100
 1393 0103 00       		.space	1
 1394              	.LC14:
 1395 0104 22737069 		.ascii	"\"spiStartReceive\"()\000"
 1395      53746172 
 1395      74526563 
 1395      65697665 
 1395      22282900 
 1396              	.LC15:
 1397 0118 73706953 		.ascii	"spiStartReceive(), #1\000"
 1397      74617274 
 1397      52656365 
 1397      69766528 
 1397      292C2023 
 1398 012e 0000     		.space	2
 1399              	.LC16:
 1400 0130 22737069 		.ascii	"\"spiIgnoreWait\"()\000"
 1400      49676E6F 
 1400      72655761 
 1400      69742228 
 1400      2900
 1401 0142 0000     		.space	2
 1402              	.LC17:
 1403 0144 73706949 		.ascii	"spiIgnore(), #1\000"
 1403      676E6F72 
 1403      6528292C 
 1403      20233100 
 1404              	.LC18:
 1405 0154 73706949 		.ascii	"spiIgnore(), #2\000"
 1405      676E6F72 
 1405      6528292C 
 1405      20233200 
 1406              	.LC19:
 1407 0164 5F737069 		.ascii	"_spi_wait(), #1\000"
 1407      5F776169 
 1407      7428292C 
ARM GAS  /tmp/ccmzzKax.s 			page 27


 1407      20233100 
 1408              	.LC20:
 1409 0174 22737069 		.ascii	"\"spiExchange\"()\000"
 1409      45786368 
 1409      616E6765 
 1409      22282900 
 1410              	.LC21:
 1411 0184 73706945 		.ascii	"spiExchange(), #1\000"
 1411      78636861 
 1411      6E676528 
 1411      292C2023 
 1411      3100
 1412 0196 0000     		.space	2
 1413              	.LC22:
 1414 0198 73706945 		.ascii	"spiExchange(), #2\000"
 1414      78636861 
 1414      6E676528 
 1414      292C2023 
 1414      3200
 1415 01aa 0000     		.space	2
 1416              	.LC23:
 1417 01ac 22737069 		.ascii	"\"spiSend\"()\000"
 1417      53656E64 
 1417      22282900 
 1418              	.LC24:
 1419 01b8 73706953 		.ascii	"spiSend(), #1\000"
 1419      656E6428 
 1419      292C2023 
 1419      3100
 1420 01c6 0000     		.space	2
 1421              	.LC25:
 1422 01c8 73706953 		.ascii	"spiSend(), #2\000"
 1422      656E6428 
 1422      292C2023 
 1422      3200
 1423 01d6 0000     		.space	2
 1424              	.LC26:
 1425 01d8 22737069 		.ascii	"\"spiReceive\"()\000"
 1425      52656365 
 1425      69766522 
 1425      282900
 1426 01e7 00       		.space	1
 1427              	.LC27:
 1428 01e8 73706952 		.ascii	"spiReceive(), #1\000"
 1428      65636569 
 1428      76652829 
 1428      2C202331 
 1428      00
 1429 01f9 000000   		.space	3
 1430              	.LC28:
 1431 01fc 73706952 		.ascii	"spiReceive(), #2\000"
 1431      65636569 
 1431      76652829 
 1431      2C202332 
 1431      00
 1432 020d 000000   		.space	3
 1433              	.LC29:
ARM GAS  /tmp/ccmzzKax.s 			page 28


 1434 0210 22737069 		.ascii	"\"spiAcquireBus\"()\000"
 1434      41637175 
 1434      69726542 
 1434      75732228 
 1434      2900
 1435 0222 0000     		.space	2
 1436              	.LC30:
 1437 0224 22737069 		.ascii	"\"spiReleaseBus\"()\000"
 1437      52656C65 
 1437      61736542 
 1437      75732228 
 1437      2900
 1438 0236 0000     		.text
 1439              	.Letext0:
 1440              		.file 2 "/home/formica/toolchains/gcc-arm-none-eabi-4_7-2012q4/bin/../lib/gcc/arm-none-eabi/4.7.3/
 1441              		.file 3 "/home/formica/toolchains/gcc-arm-none-eabi-4_7-2012q4/bin/../lib/gcc/arm-none-eabi/4.7.3/
 1442              		.file 4 "/home/formica/chibios/chibios/os/ports/GCC/ARMCMx/chtypes.h"
 1443              		.file 5 "/home/formica/chibios/chibios/os/kernel/include/chlists.h"
 1444              		.file 6 "/home/formica/chibios/chibios/os/kernel/include/chthreads.h"
 1445              		.file 7 "/home/formica/chibios/chibios/os/ports/GCC/ARMCMx/chcore_v7m.h"
 1446              		.file 8 "/home/formica/chibios/chibios/os/kernel/include/chschd.h"
 1447              		.file 9 "/home/formica/chibios/chibios/os/kernel/include/chmtx.h"
 1448              		.file 10 "/home/formica/chibios/chibios/os/hal/platforms/STM32F1xx/stm32f10x.h"
 1449              		.file 11 "/home/formica/chibios/chibios/os/hal/platforms/STM32F1xx/stm32_dma.h"
 1450              		.file 12 "/home/formica/chibios/chibios/os/hal/platforms/STM32/GPIOv1/pal_lld.h"
 1451              		.file 13 "/home/formica/chibios/chibios/os/hal/include/spi.h"
 1452              		.file 14 "/home/formica/chibios/chibios/os/hal/platforms/STM32/spi_lld.h"
 1453              		.file 15 "/home/formica/chibios/chibios/os/ports/common/ARMCMx/CMSIS/include/core_cm3.h"
 1454              		.file 16 "/home/formica/chibios/chibios/os/kernel/include/chdebug.h"