ARM GAS  /tmp/cc5DD3Ya.s 			page 1


   1              		.syntax unified
   2              		.cpu cortex-m3
   3              		.fpu softvfp
   4              		.eabi_attribute 20, 1
   5              		.eabi_attribute 21, 1
   6              		.eabi_attribute 23, 3
   7              		.eabi_attribute 24, 1
   8              		.eabi_attribute 25, 1
   9              		.eabi_attribute 26, 1
  10              		.eabi_attribute 30, 2
  11              		.eabi_attribute 34, 1
  12              		.eabi_attribute 18, 4
  13              		.thumb
  14              		.file	"stm32_dma.c"
  15              		.text
  16              	.Ltext0:
  17              		.cfi_sections	.debug_frame
  18              		.section	.text.Vector6C,"ax",%progbits
  19              		.align	2
  20              		.p2align 4,,15
  21              		.global	Vector6C
  22              		.thumb
  23              		.thumb_func
  24              		.type	Vector6C, %function
  25              	Vector6C:
  26              	.LFB62:
  27              		.file 1 "/home/formica/chibios/chibios/os/hal/platforms/STM32F1xx/stm32_dma.c"
  28              		.loc 1 137 0
  29              		.cfi_startproc
  30              		@ args = 0, pretend = 0, frame = 0
  31              		@ frame_needed = 0, uses_anonymous_args = 0
  32 0000 10B5     		push	{r4, lr}
  33              	.LCFI0:
  34              		.cfi_def_cfa_offset 8
  35              		.cfi_offset 4, -8
  36              		.cfi_offset 14, -4
  37              		.loc 1 140 0
  38 0002 FFF7FEFF 		bl	dbg_check_enter_isr
  39              	.LVL0:
  40              		.loc 1 142 0
  41 0006 0023     		movs	r3, #0
  42              		.loc 1 144 0
  43 0008 0848     		ldr	r0, .L7
  44              		.loc 1 142 0
  45 000a C4F20203 		movt	r3, 16386
  46 000e 1968     		ldr	r1, [r3, #0]
  47              		.loc 1 144 0
  48 0010 0268     		ldr	r2, [r0, #0]
  49              		.loc 1 143 0
  50 0012 0F24     		movs	r4, #15
  51              		.loc 1 142 0
  52 0014 01F00F01 		and	r1, r1, #15
  53              	.LVL1:
  54              		.loc 1 143 0
  55 0018 5C60     		str	r4, [r3, #4]
  56              		.loc 1 144 0
  57 001a 0AB1     		cbz	r2, .L2
ARM GAS  /tmp/cc5DD3Ya.s 			page 2


  58              		.loc 1 145 0
  59 001c 4068     		ldr	r0, [r0, #4]
  60 001e 9047     		blx	r2
  61              	.LVL2:
  62              	.L2:
  63              		.loc 1 147 0
  64 0020 FFF7FEFF 		bl	dbg_check_leave_isr
  65              	.LVL3:
  66              		.loc 1 148 0
  67 0024 BDE81040 		pop	{r4, lr}
  68              		.loc 1 147 0
  69 0028 FFF7FEBF 		b	_port_irq_epilogue
  70              	.LVL4:
  71              	.L8:
  72              		.align	2
  73              	.L7:
  74 002c 00000000 		.word	.LANCHOR0
  75              		.cfi_endproc
  76              	.LFE62:
  77              		.size	Vector6C, .-Vector6C
  78              		.section	.text.Vector70,"ax",%progbits
  79              		.align	2
  80              		.p2align 4,,15
  81              		.global	Vector70
  82              		.thumb
  83              		.thumb_func
  84              		.type	Vector70, %function
  85              	Vector70:
  86              	.LFB63:
  87              		.loc 1 155 0
  88              		.cfi_startproc
  89              		@ args = 0, pretend = 0, frame = 0
  90              		@ frame_needed = 0, uses_anonymous_args = 0
  91 0000 10B5     		push	{r4, lr}
  92              	.LCFI1:
  93              		.cfi_def_cfa_offset 8
  94              		.cfi_offset 4, -8
  95              		.cfi_offset 14, -4
  96              		.loc 1 158 0
  97 0002 FFF7FEFF 		bl	dbg_check_enter_isr
  98              	.LVL5:
  99              		.loc 1 160 0
 100 0006 0023     		movs	r3, #0
 101              		.loc 1 162 0
 102 0008 0848     		ldr	r0, .L14
 103              		.loc 1 160 0
 104 000a C4F20203 		movt	r3, 16386
 105 000e 1968     		ldr	r1, [r3, #0]
 106              		.loc 1 162 0
 107 0010 8268     		ldr	r2, [r0, #8]
 108              		.loc 1 161 0
 109 0012 F024     		movs	r4, #240
 110              		.loc 1 160 0
 111 0014 C1F30311 		ubfx	r1, r1, #4, #4
 112              	.LVL6:
 113              		.loc 1 161 0
 114 0018 5C60     		str	r4, [r3, #4]
ARM GAS  /tmp/cc5DD3Ya.s 			page 3


 115              		.loc 1 162 0
 116 001a 0AB1     		cbz	r2, .L10
 117              		.loc 1 163 0
 118 001c C068     		ldr	r0, [r0, #12]
 119 001e 9047     		blx	r2
 120              	.LVL7:
 121              	.L10:
 122              		.loc 1 165 0
 123 0020 FFF7FEFF 		bl	dbg_check_leave_isr
 124              	.LVL8:
 125              		.loc 1 166 0
 126 0024 BDE81040 		pop	{r4, lr}
 127              		.loc 1 165 0
 128 0028 FFF7FEBF 		b	_port_irq_epilogue
 129              	.LVL9:
 130              	.L15:
 131              		.align	2
 132              	.L14:
 133 002c 00000000 		.word	.LANCHOR0
 134              		.cfi_endproc
 135              	.LFE63:
 136              		.size	Vector70, .-Vector70
 137              		.section	.text.Vector74,"ax",%progbits
 138              		.align	2
 139              		.p2align 4,,15
 140              		.global	Vector74
 141              		.thumb
 142              		.thumb_func
 143              		.type	Vector74, %function
 144              	Vector74:
 145              	.LFB64:
 146              		.loc 1 173 0
 147              		.cfi_startproc
 148              		@ args = 0, pretend = 0, frame = 0
 149              		@ frame_needed = 0, uses_anonymous_args = 0
 150 0000 10B5     		push	{r4, lr}
 151              	.LCFI2:
 152              		.cfi_def_cfa_offset 8
 153              		.cfi_offset 4, -8
 154              		.cfi_offset 14, -4
 155              		.loc 1 176 0
 156 0002 FFF7FEFF 		bl	dbg_check_enter_isr
 157              	.LVL10:
 158              		.loc 1 178 0
 159 0006 0023     		movs	r3, #0
 160              		.loc 1 180 0
 161 0008 0948     		ldr	r0, .L21
 162              		.loc 1 178 0
 163 000a C4F20203 		movt	r3, 16386
 164 000e 1968     		ldr	r1, [r3, #0]
 165              		.loc 1 180 0
 166 0010 0269     		ldr	r2, [r0, #16]
 167              		.loc 1 179 0
 168 0012 4FF47064 		mov	r4, #3840
 169              		.loc 1 178 0
 170 0016 C1F30321 		ubfx	r1, r1, #8, #4
 171              	.LVL11:
ARM GAS  /tmp/cc5DD3Ya.s 			page 4


 172              		.loc 1 179 0
 173 001a 5C60     		str	r4, [r3, #4]
 174              		.loc 1 180 0
 175 001c 0AB1     		cbz	r2, .L17
 176              		.loc 1 181 0
 177 001e 4069     		ldr	r0, [r0, #20]
 178 0020 9047     		blx	r2
 179              	.LVL12:
 180              	.L17:
 181              		.loc 1 183 0
 182 0022 FFF7FEFF 		bl	dbg_check_leave_isr
 183              	.LVL13:
 184              		.loc 1 184 0
 185 0026 BDE81040 		pop	{r4, lr}
 186              		.loc 1 183 0
 187 002a FFF7FEBF 		b	_port_irq_epilogue
 188              	.LVL14:
 189              	.L22:
 190 002e 00BF     		.align	2
 191              	.L21:
 192 0030 00000000 		.word	.LANCHOR0
 193              		.cfi_endproc
 194              	.LFE64:
 195              		.size	Vector74, .-Vector74
 196 0034 AFF30080 		.section	.text.Vector78,"ax",%progbits
 196      AFF30080 
 196      AFF30080 
 197              		.align	2
 198              		.p2align 4,,15
 199              		.global	Vector78
 200              		.thumb
 201              		.thumb_func
 202              		.type	Vector78, %function
 203              	Vector78:
 204              	.LFB65:
 205              		.loc 1 191 0
 206              		.cfi_startproc
 207              		@ args = 0, pretend = 0, frame = 0
 208              		@ frame_needed = 0, uses_anonymous_args = 0
 209 0000 10B5     		push	{r4, lr}
 210              	.LCFI3:
 211              		.cfi_def_cfa_offset 8
 212              		.cfi_offset 4, -8
 213              		.cfi_offset 14, -4
 214              		.loc 1 194 0
 215 0002 FFF7FEFF 		bl	dbg_check_enter_isr
 216              	.LVL15:
 217              		.loc 1 196 0
 218 0006 0023     		movs	r3, #0
 219              		.loc 1 198 0
 220 0008 0948     		ldr	r0, .L28
 221              		.loc 1 196 0
 222 000a C4F20203 		movt	r3, 16386
 223 000e 1968     		ldr	r1, [r3, #0]
 224              		.loc 1 198 0
 225 0010 8269     		ldr	r2, [r0, #24]
 226              		.loc 1 197 0
ARM GAS  /tmp/cc5DD3Ya.s 			page 5


 227 0012 4FF47044 		mov	r4, #61440
 228              		.loc 1 196 0
 229 0016 C1F30331 		ubfx	r1, r1, #12, #4
 230              	.LVL16:
 231              		.loc 1 197 0
 232 001a 5C60     		str	r4, [r3, #4]
 233              		.loc 1 198 0
 234 001c 0AB1     		cbz	r2, .L24
 235              		.loc 1 199 0
 236 001e C069     		ldr	r0, [r0, #28]
 237 0020 9047     		blx	r2
 238              	.LVL17:
 239              	.L24:
 240              		.loc 1 201 0
 241 0022 FFF7FEFF 		bl	dbg_check_leave_isr
 242              	.LVL18:
 243              		.loc 1 202 0
 244 0026 BDE81040 		pop	{r4, lr}
 245              		.loc 1 201 0
 246 002a FFF7FEBF 		b	_port_irq_epilogue
 247              	.LVL19:
 248              	.L29:
 249 002e 00BF     		.align	2
 250              	.L28:
 251 0030 00000000 		.word	.LANCHOR0
 252              		.cfi_endproc
 253              	.LFE65:
 254              		.size	Vector78, .-Vector78
 255 0034 AFF30080 		.section	.text.Vector7C,"ax",%progbits
 255      AFF30080 
 255      AFF30080 
 256              		.align	2
 257              		.p2align 4,,15
 258              		.global	Vector7C
 259              		.thumb
 260              		.thumb_func
 261              		.type	Vector7C, %function
 262              	Vector7C:
 263              	.LFB66:
 264              		.loc 1 209 0
 265              		.cfi_startproc
 266              		@ args = 0, pretend = 0, frame = 0
 267              		@ frame_needed = 0, uses_anonymous_args = 0
 268 0000 10B5     		push	{r4, lr}
 269              	.LCFI4:
 270              		.cfi_def_cfa_offset 8
 271              		.cfi_offset 4, -8
 272              		.cfi_offset 14, -4
 273              		.loc 1 212 0
 274 0002 FFF7FEFF 		bl	dbg_check_enter_isr
 275              	.LVL20:
 276              		.loc 1 214 0
 277 0006 0023     		movs	r3, #0
 278              		.loc 1 216 0
 279 0008 0948     		ldr	r0, .L35
 280              		.loc 1 214 0
 281 000a C4F20203 		movt	r3, 16386
ARM GAS  /tmp/cc5DD3Ya.s 			page 6


 282 000e 1968     		ldr	r1, [r3, #0]
 283              		.loc 1 216 0
 284 0010 026A     		ldr	r2, [r0, #32]
 285              		.loc 1 215 0
 286 0012 4FF47024 		mov	r4, #983040
 287              		.loc 1 214 0
 288 0016 C1F30341 		ubfx	r1, r1, #16, #4
 289              	.LVL21:
 290              		.loc 1 215 0
 291 001a 5C60     		str	r4, [r3, #4]
 292              		.loc 1 216 0
 293 001c 0AB1     		cbz	r2, .L31
 294              		.loc 1 217 0
 295 001e 406A     		ldr	r0, [r0, #36]
 296 0020 9047     		blx	r2
 297              	.LVL22:
 298              	.L31:
 299              		.loc 1 219 0
 300 0022 FFF7FEFF 		bl	dbg_check_leave_isr
 301              	.LVL23:
 302              		.loc 1 220 0
 303 0026 BDE81040 		pop	{r4, lr}
 304              		.loc 1 219 0
 305 002a FFF7FEBF 		b	_port_irq_epilogue
 306              	.LVL24:
 307              	.L36:
 308 002e 00BF     		.align	2
 309              	.L35:
 310 0030 00000000 		.word	.LANCHOR0
 311              		.cfi_endproc
 312              	.LFE66:
 313              		.size	Vector7C, .-Vector7C
 314 0034 AFF30080 		.section	.text.Vector80,"ax",%progbits
 314      AFF30080 
 314      AFF30080 
 315              		.align	2
 316              		.p2align 4,,15
 317              		.global	Vector80
 318              		.thumb
 319              		.thumb_func
 320              		.type	Vector80, %function
 321              	Vector80:
 322              	.LFB67:
 323              		.loc 1 227 0
 324              		.cfi_startproc
 325              		@ args = 0, pretend = 0, frame = 0
 326              		@ frame_needed = 0, uses_anonymous_args = 0
 327 0000 10B5     		push	{r4, lr}
 328              	.LCFI5:
 329              		.cfi_def_cfa_offset 8
 330              		.cfi_offset 4, -8
 331              		.cfi_offset 14, -4
 332              		.loc 1 230 0
 333 0002 FFF7FEFF 		bl	dbg_check_enter_isr
 334              	.LVL25:
 335              		.loc 1 232 0
 336 0006 0023     		movs	r3, #0
ARM GAS  /tmp/cc5DD3Ya.s 			page 7


 337              		.loc 1 234 0
 338 0008 0948     		ldr	r0, .L42
 339              		.loc 1 232 0
 340 000a C4F20203 		movt	r3, 16386
 341 000e 1968     		ldr	r1, [r3, #0]
 342              		.loc 1 234 0
 343 0010 826A     		ldr	r2, [r0, #40]
 344              		.loc 1 233 0
 345 0012 4FF47004 		mov	r4, #15728640
 346              		.loc 1 232 0
 347 0016 C1F30351 		ubfx	r1, r1, #20, #4
 348              	.LVL26:
 349              		.loc 1 233 0
 350 001a 5C60     		str	r4, [r3, #4]
 351              		.loc 1 234 0
 352 001c 0AB1     		cbz	r2, .L38
 353              		.loc 1 235 0
 354 001e C06A     		ldr	r0, [r0, #44]
 355 0020 9047     		blx	r2
 356              	.LVL27:
 357              	.L38:
 358              		.loc 1 237 0
 359 0022 FFF7FEFF 		bl	dbg_check_leave_isr
 360              	.LVL28:
 361              		.loc 1 238 0
 362 0026 BDE81040 		pop	{r4, lr}
 363              		.loc 1 237 0
 364 002a FFF7FEBF 		b	_port_irq_epilogue
 365              	.LVL29:
 366              	.L43:
 367 002e 00BF     		.align	2
 368              	.L42:
 369 0030 00000000 		.word	.LANCHOR0
 370              		.cfi_endproc
 371              	.LFE67:
 372              		.size	Vector80, .-Vector80
 373 0034 AFF30080 		.section	.text.Vector84,"ax",%progbits
 373      AFF30080 
 373      AFF30080 
 374              		.align	2
 375              		.p2align 4,,15
 376              		.global	Vector84
 377              		.thumb
 378              		.thumb_func
 379              		.type	Vector84, %function
 380              	Vector84:
 381              	.LFB68:
 382              		.loc 1 245 0
 383              		.cfi_startproc
 384              		@ args = 0, pretend = 0, frame = 0
 385              		@ frame_needed = 0, uses_anonymous_args = 0
 386 0000 10B5     		push	{r4, lr}
 387              	.LCFI6:
 388              		.cfi_def_cfa_offset 8
 389              		.cfi_offset 4, -8
 390              		.cfi_offset 14, -4
 391              		.loc 1 248 0
ARM GAS  /tmp/cc5DD3Ya.s 			page 8


 392 0002 FFF7FEFF 		bl	dbg_check_enter_isr
 393              	.LVL30:
 394              		.loc 1 250 0
 395 0006 0023     		movs	r3, #0
 396              		.loc 1 252 0
 397 0008 0948     		ldr	r0, .L49
 398              		.loc 1 250 0
 399 000a C4F20203 		movt	r3, 16386
 400 000e 1968     		ldr	r1, [r3, #0]
 401              		.loc 1 252 0
 402 0010 026B     		ldr	r2, [r0, #48]
 403              		.loc 1 251 0
 404 0012 4FF07064 		mov	r4, #251658240
 405              		.loc 1 250 0
 406 0016 C1F30361 		ubfx	r1, r1, #24, #4
 407              	.LVL31:
 408              		.loc 1 251 0
 409 001a 5C60     		str	r4, [r3, #4]
 410              		.loc 1 252 0
 411 001c 0AB1     		cbz	r2, .L45
 412              		.loc 1 253 0
 413 001e 406B     		ldr	r0, [r0, #52]
 414 0020 9047     		blx	r2
 415              	.LVL32:
 416              	.L45:
 417              		.loc 1 255 0
 418 0022 FFF7FEFF 		bl	dbg_check_leave_isr
 419              	.LVL33:
 420              		.loc 1 256 0
 421 0026 BDE81040 		pop	{r4, lr}
 422              		.loc 1 255 0
 423 002a FFF7FEBF 		b	_port_irq_epilogue
 424              	.LVL34:
 425              	.L50:
 426 002e 00BF     		.align	2
 427              	.L49:
 428 0030 00000000 		.word	.LANCHOR0
 429              		.cfi_endproc
 430              	.LFE68:
 431              		.size	Vector84, .-Vector84
 432 0034 AFF30080 		.section	.text.dmaInit,"ax",%progbits
 432      AFF30080 
 432      AFF30080 
 433              		.align	2
 434              		.p2align 4,,15
 435              		.global	dmaInit
 436              		.thumb
 437              		.thumb_func
 438              		.type	dmaInit, %function
 439              	dmaInit:
 440              	.LFB69:
 441              		.loc 1 392 0
 442              		.cfi_startproc
 443              		@ args = 0, pretend = 0, frame = 0
 444              		@ frame_needed = 0, uses_anonymous_args = 0
 445              		@ link register save eliminated.
 446              		.loc 1 400 0
ARM GAS  /tmp/cc5DD3Ya.s 			page 9


 447 0000 0020     		movs	r0, #0
 448              		.loc 1 395 0
 449 0002 40F20001 		movw	r1, #:lower16:.LANCHOR1
 450              		.loc 1 392 0
 451 0006 2DE9F003 		push	{r4, r5, r6, r7, r8, r9}
 452              	.LCFI7:
 453              		.cfi_def_cfa_offset 24
 454              		.cfi_offset 4, -24
 455              		.cfi_offset 5, -20
 456              		.cfi_offset 6, -16
 457              		.cfi_offset 7, -12
 458              		.cfi_offset 8, -8
 459              		.cfi_offset 9, -4
 460              		.loc 1 395 0
 461 000a 0346     		mov	r3, r0
 462 000c C0F20001 		movt	r1, #:upper16:.LANCHOR1
 463              		.loc 1 397 0
 464 0010 4FF00809 		mov	r9, #8
 465              		.loc 1 398 0
 466 0014 40F20002 		movw	r2, #:lower16:.LANCHOR0
 467              		.loc 1 397 0
 468 0018 4FF01C08 		mov	r8, #28
 469 001c 4FF0300C 		mov	ip, #48
 470 0020 4427     		movs	r7, #68
 471 0022 5826     		movs	r6, #88
 472 0024 6C25     		movs	r5, #108
 473 0026 8024     		movs	r4, #128
 474              		.loc 1 395 0
 475 0028 0B60     		str	r3, [r1, #0]
 476              	.LVL35:
 477              		.loc 1 398 0
 478 002a C0F20002 		movt	r2, #:upper16:.LANCHOR0
 479              		.loc 1 397 0
 480 002e C4F20209 		movt	r9, 16386
 481 0032 C4F20208 		movt	r8, 16386
 482 0036 C4F2020C 		movt	ip, 16386
 483 003a C4F20207 		movt	r7, 16386
 484 003e C4F20206 		movt	r6, 16386
 485 0042 C4F20205 		movt	r5, 16386
 486 0046 C4F20204 		movt	r4, 16386
 487              		.loc 1 400 0
 488 004a C4F20200 		movt	r0, 16386
 489 004e 4FF0FF31 		mov	r1, #-1
 490              		.loc 1 397 0
 491 0052 C9F80030 		str	r3, [r9, #0]
 492              		.loc 1 398 0
 493 0056 1360     		str	r3, [r2, #0]
 494              	.LVL36:
 495              		.loc 1 397 0
 496 0058 C8F80030 		str	r3, [r8, #0]
 497              		.loc 1 398 0
 498 005c 9360     		str	r3, [r2, #8]
 499              	.LVL37:
 500              		.loc 1 397 0
 501 005e CCF80030 		str	r3, [ip, #0]
 502              		.loc 1 398 0
 503 0062 1361     		str	r3, [r2, #16]
ARM GAS  /tmp/cc5DD3Ya.s 			page 10


 504              	.LVL38:
 505              		.loc 1 397 0
 506 0064 3B60     		str	r3, [r7, #0]
 507              		.loc 1 398 0
 508 0066 9361     		str	r3, [r2, #24]
 509              	.LVL39:
 510              		.loc 1 397 0
 511 0068 3360     		str	r3, [r6, #0]
 512              		.loc 1 398 0
 513 006a 1362     		str	r3, [r2, #32]
 514              	.LVL40:
 515              		.loc 1 397 0
 516 006c 2B60     		str	r3, [r5, #0]
 517              		.loc 1 398 0
 518 006e 9362     		str	r3, [r2, #40]
 519              	.LVL41:
 520              		.loc 1 397 0
 521 0070 2360     		str	r3, [r4, #0]
 522              		.loc 1 398 0
 523 0072 1363     		str	r3, [r2, #48]
 524              	.LVL42:
 525              		.loc 1 400 0
 526 0074 4160     		str	r1, [r0, #4]
 527              		.loc 1 404 0
 528 0076 BDE8F003 		pop	{r4, r5, r6, r7, r8, r9}
 529 007a 7047     		bx	lr
 530              		.cfi_endproc
 531              	.LFE69:
 532              		.size	dmaInit, .-dmaInit
 533 007c AFF30080 		.section	.text.dmaStreamAllocate,"ax",%progbits
 534              		.align	2
 535              		.p2align 4,,15
 536              		.global	dmaStreamAllocate
 537              		.thumb
 538              		.thumb_func
 539              		.type	dmaStreamAllocate, %function
 540              	dmaStreamAllocate:
 541              	.LFB70:
 542              		.loc 1 433 0
 543              		.cfi_startproc
 544              		@ args = 0, pretend = 0, frame = 16
 545              		@ frame_needed = 0, uses_anonymous_args = 0
 546              	.LVL43:
 547 0000 F0B5     		push	{r4, r5, r6, r7, lr}
 548              	.LCFI8:
 549              		.cfi_def_cfa_offset 20
 550              		.cfi_offset 4, -20
 551              		.cfi_offset 5, -16
 552              		.cfi_offset 6, -12
 553              		.cfi_offset 7, -8
 554              		.cfi_offset 14, -4
 555              		.loc 1 435 0
 556 0002 0446     		mov	r4, r0
 557              		.loc 1 433 0
 558 0004 85B0     		sub	sp, sp, #20
 559              	.LCFI9:
 560              		.cfi_def_cfa_offset 40
ARM GAS  /tmp/cc5DD3Ya.s 			page 11


 561              		.loc 1 435 0
 562 0006 0028     		cmp	r0, #0
 563 0008 33D0     		beq	.L61
 564              	.LVL44:
 565              	.L53:
 566              		.loc 1 438 0
 567 000a 657A     		ldrb	r5, [r4, #9]	@ zero_extendqisi2
 568 000c 0120     		movs	r0, #1
 569 000e 00FA05FC 		lsl	ip, r0, r5
 570 0012 1D4E     		ldr	r6, .L62
 571 0014 3768     		ldr	r7, [r6, #0]
 572 0016 1CEA070F 		tst	ip, r7
 573 001a 26D1     		bne	.L54
 574              		.loc 1 442 0
 575 001c 1B48     		ldr	r0, .L62+4
 576              		.loc 1 444 0
 577 001e 4CEA0707 		orr	r7, ip, r7
 578              		.loc 1 443 0
 579 0022 00EBC50C 		add	ip, r0, r5, lsl #3
 580 0026 CCF80430 		str	r3, [ip, #4]
 581              		.loc 1 447 0
 582 002a 7B06     		lsls	r3, r7, #25
 583              		.loc 1 442 0
 584 002c 40F83520 		str	r2, [r0, r5, lsl #3]
 585              		.loc 1 444 0
 586 0030 3760     		str	r7, [r6, #0]
 587              		.loc 1 447 0
 588 0032 07D0     		beq	.L55
 589              		.loc 1 448 0
 590 0034 4FF48053 		mov	r3, #4096
 591 0038 C4F20203 		movt	r3, 16386
 592 003c 5D69     		ldr	r5, [r3, #20]
 593 003e 45F00106 		orr	r6, r5, #1
 594 0042 5E61     		str	r6, [r3, #20]
 595              	.L55:
 596              		.loc 1 455 0
 597 0044 2368     		ldr	r3, [r4, #0]
 598 0046 6068     		ldr	r0, [r4, #4]
 599 0048 1F68     		ldr	r7, [r3, #0]
 600 004a 27F00105 		bic	r5, r7, #1
 601 004e 1D60     		str	r5, [r3, #0]
 602 0050 267A     		ldrb	r6, [r4, #8]	@ zero_extendqisi2
 603 0052 0F27     		movs	r7, #15
 604 0054 07FA06F6 		lsl	r6, r7, r6
 605              		.loc 1 456 0
 606 0058 0025     		movs	r5, #0
 607              		.loc 1 455 0
 608 005a 0660     		str	r6, [r0, #0]
 609              		.loc 1 456 0
 610 005c 1D60     		str	r5, [r3, #0]
 611              		.loc 1 459 0
 612 005e 32B1     		cbz	r2, .L57
 613              		.loc 1 460 0
 614 0060 A07A     		ldrb	r0, [r4, #10]	@ zero_extendqisi2
 615 0062 0901     		lsls	r1, r1, #4
 616 0064 FFF7FEFF 		bl	nvicEnableVector
 617              	.LVL45:
ARM GAS  /tmp/cc5DD3Ya.s 			page 12


 618              		.loc 1 462 0
 619 0068 2846     		mov	r0, r5
 620              	.L54:
 621              		.loc 1 463 0
 622 006a 05B0     		add	sp, sp, #20
 623 006c F0BD     		pop	{r4, r5, r6, r7, pc}
 624              	.L57:
 625              		.loc 1 462 0
 626 006e 1046     		mov	r0, r2
 627 0070 FBE7     		b	.L54
 628              	.LVL46:
 629              	.L61:
 630              		.loc 1 435 0 discriminator 1
 631 0072 0748     		ldr	r0, .L62+8
 632              	.LVL47:
 633 0074 0391     		str	r1, [sp, #12]
 634 0076 0292     		str	r2, [sp, #8]
 635 0078 0193     		str	r3, [sp, #4]
 636 007a FFF7FEFF 		bl	chDbgPanic
 637              	.LVL48:
 638 007e 019B     		ldr	r3, [sp, #4]
 639 0080 029A     		ldr	r2, [sp, #8]
 640 0082 0399     		ldr	r1, [sp, #12]
 641 0084 C1E7     		b	.L53
 642              	.L63:
 643 0086 00BF     		.align	2
 644              	.L62:
 645 0088 00000000 		.word	.LANCHOR1
 646 008c 00000000 		.word	.LANCHOR0
 647 0090 00000000 		.word	.LC0
 648              		.cfi_endproc
 649              	.LFE70:
 650              		.size	dmaStreamAllocate, .-dmaStreamAllocate
 651 0094 AFF30080 		.section	.text.dmaStreamRelease,"ax",%progbits
 651      AFF30080 
 651      AFF30080 
 652              		.align	2
 653              		.p2align 4,,15
 654              		.global	dmaStreamRelease
 655              		.thumb
 656              		.thumb_func
 657              		.type	dmaStreamRelease, %function
 658              	dmaStreamRelease:
 659              	.LFB71:
 660              		.loc 1 478 0
 661              		.cfi_startproc
 662              		@ args = 0, pretend = 0, frame = 0
 663              		@ frame_needed = 0, uses_anonymous_args = 0
 664              	.LVL49:
 665 0000 38B5     		push	{r3, r4, r5, lr}
 666              	.LCFI10:
 667              		.cfi_def_cfa_offset 16
 668              		.cfi_offset 3, -16
 669              		.cfi_offset 4, -12
 670              		.cfi_offset 5, -8
 671              		.cfi_offset 14, -4
 672              		.loc 1 480 0
ARM GAS  /tmp/cc5DD3Ya.s 			page 13


 673 0002 0446     		mov	r4, r0
 674 0004 08B3     		cbz	r0, .L68
 675              	.LVL50:
 676              	.L65:
 677              		.loc 1 483 0
 678 0006 637A     		ldrb	r3, [r4, #9]	@ zero_extendqisi2
 679 0008 0122     		movs	r2, #1
 680 000a 02FA03F2 		lsl	r2, r2, r3
 681 000e 114D     		ldr	r5, .L70
 682 0010 2868     		ldr	r0, [r5, #0]
 683 0012 0242     		tst	r2, r0
 684 0014 15D0     		beq	.L69
 685              	.L66:
 686              		.loc 1 487 0
 687 0016 A07A     		ldrb	r0, [r4, #10]	@ zero_extendqisi2
 688 0018 FFF7FEFF 		bl	nvicDisableVector
 689              	.LVL51:
 690              		.loc 1 490 0
 691 001c 617A     		ldrb	r1, [r4, #9]	@ zero_extendqisi2
 692 001e 0123     		movs	r3, #1
 693 0020 03FA01F0 		lsl	r0, r3, r1
 694 0024 2A68     		ldr	r2, [r5, #0]
 695 0026 22EA0001 		bic	r1, r2, r0
 696              		.loc 1 493 0
 697 002a 4A06     		lsls	r2, r1, #25
 698              		.loc 1 490 0
 699 002c 2960     		str	r1, [r5, #0]
 700              		.loc 1 493 0
 701 002e 07D1     		bne	.L64
 702              		.loc 1 494 0
 703 0030 4FF48053 		mov	r3, #4096
 704 0034 C4F20203 		movt	r3, 16386
 705 0038 5869     		ldr	r0, [r3, #20]
 706 003a 20F00102 		bic	r2, r0, #1
 707 003e 5A61     		str	r2, [r3, #20]
 708              	.L64:
 709 0040 38BD     		pop	{r3, r4, r5, pc}
 710              	.L69:
 711              		.loc 1 483 0 discriminator 1
 712 0042 0548     		ldr	r0, .L70+4
 713 0044 FFF7FEFF 		bl	chDbgPanic
 714              	.LVL52:
 715 0048 E5E7     		b	.L66
 716              	.LVL53:
 717              	.L68:
 718              		.loc 1 480 0 discriminator 1
 719 004a 0448     		ldr	r0, .L70+8
 720              	.LVL54:
 721 004c FFF7FEFF 		bl	chDbgPanic
 722              	.LVL55:
 723 0050 D9E7     		b	.L65
 724              	.L71:
 725 0052 00BF     		.align	2
 726              	.L70:
 727 0054 00000000 		.word	.LANCHOR1
 728 0058 20000000 		.word	.LC2
 729 005c 10000000 		.word	.LC1
ARM GAS  /tmp/cc5DD3Ya.s 			page 14


 730              		.cfi_endproc
 731              	.LFE71:
 732              		.size	dmaStreamRelease, .-dmaStreamRelease
 733              		.global	_stm32_dma_streams
 734              		.section	.rodata.str1.4,"aMS",%progbits,1
 735              		.align	2
 736              	.LC0:
 737 0000 22646D61 		.ascii	"\"dmaAllocate\"()\000"
 737      416C6C6F 
 737      63617465 
 737      22282900 
 738              	.LC1:
 739 0010 22646D61 		.ascii	"\"dmaRelease\"()\000"
 739      52656C65 
 739      61736522 
 739      282900
 740 001f 00       		.space	1
 741              	.LC2:
 742 0020 646D6152 		.ascii	"dmaRelease(), #1\000"
 742      656C6561 
 742      73652829 
 742      2C202331 
 742      00
 743 0031 000000   		.section	.bss.dma_isr_redir,"aw",%nobits
 744              		.align	2
 745              		.set	.LANCHOR0,. + 0
 746              		.type	dma_isr_redir, %object
 747              		.size	dma_isr_redir, 56
 748              	dma_isr_redir:
 749 0000 00000000 		.space	56
 749      00000000 
 749      00000000 
 749      00000000 
 749      00000000 
 750              		.section	.rodata._stm32_dma_streams,"a",%progbits
 751              		.align	2
 752              		.type	_stm32_dma_streams, %object
 753              		.size	_stm32_dma_streams, 84
 754              	_stm32_dma_streams:
 755 0000 08000240 		.word	1073872904
 756 0004 04000240 		.word	1073872900
 757 0008 00       		.byte	0
 758 0009 00       		.byte	0
 759 000a 0B       		.byte	11
 760 000b 00       		.space	1
 761 000c 1C000240 		.word	1073872924
 762 0010 04000240 		.word	1073872900
 763 0014 04       		.byte	4
 764 0015 01       		.byte	1
 765 0016 0C       		.byte	12
 766 0017 00       		.space	1
 767 0018 30000240 		.word	1073872944
 768 001c 04000240 		.word	1073872900
 769 0020 08       		.byte	8
 770 0021 02       		.byte	2
 771 0022 0D       		.byte	13
 772 0023 00       		.space	1
ARM GAS  /tmp/cc5DD3Ya.s 			page 15


 773 0024 44000240 		.word	1073872964
 774 0028 04000240 		.word	1073872900
 775 002c 0C       		.byte	12
 776 002d 03       		.byte	3
 777 002e 0E       		.byte	14
 778 002f 00       		.space	1
 779 0030 58000240 		.word	1073872984
 780 0034 04000240 		.word	1073872900
 781 0038 10       		.byte	16
 782 0039 04       		.byte	4
 783 003a 0F       		.byte	15
 784 003b 00       		.space	1
 785 003c 6C000240 		.word	1073873004
 786 0040 04000240 		.word	1073872900
 787 0044 14       		.byte	20
 788 0045 05       		.byte	5
 789 0046 10       		.byte	16
 790 0047 00       		.space	1
 791 0048 80000240 		.word	1073873024
 792 004c 04000240 		.word	1073872900
 793 0050 18       		.byte	24
 794 0051 06       		.byte	6
 795 0052 11       		.byte	17
 796 0053 00       		.space	1
 797              		.section	.bss.dma_streams_mask,"aw",%nobits
 798              		.align	2
 799              		.set	.LANCHOR1,. + 0
 800              		.type	dma_streams_mask, %object
 801              		.size	dma_streams_mask, 4
 802              	dma_streams_mask:
 803 0000 00000000 		.space	4
 804              		.text
 805              	.Letext0:
 806              		.file 2 "/home/formica/toolchains/gcc-arm-none-eabi-4_7-2012q4/bin/../lib/gcc/arm-none-eabi/4.7.3/
 807              		.file 3 "/home/formica/chibios/chibios/os/ports/GCC/ARMCMx/chtypes.h"
 808              		.file 4 "/home/formica/chibios/chibios/os/hal/platforms/STM32F1xx/stm32f10x.h"
 809              		.file 5 "/home/formica/chibios/chibios/os/hal/platforms/STM32F1xx/stm32_dma.h"
 810              		.file 6 "/home/formica/chibios/chibios/os/ports/common/ARMCMx/CMSIS/include/core_cm3.h"
 811              		.file 7 "/home/formica/chibios/chibios/os/kernel/include/chdebug.h"
 812              		.file 8 "/home/formica/chibios/chibios/os/ports/GCC/ARMCMx/chcore_v7m.h"
 813              		.file 9 "/home/formica/chibios/chibios/os/ports/common/ARMCMx/nvic.h"