ARM GAS  /tmp/cc0mowet.s 			page 1


   1              		.syntax unified
   2              		.cpu cortex-m3
   3              		.fpu softvfp
   4              		.eabi_attribute 20, 1
   5              		.eabi_attribute 21, 1
   6              		.eabi_attribute 23, 3
   7              		.eabi_attribute 24, 1
   8              		.eabi_attribute 25, 1
   9              		.eabi_attribute 26, 1
  10              		.eabi_attribute 30, 2
  11              		.eabi_attribute 34, 1
  12              		.eabi_attribute 18, 4
  13              		.thumb
  14              		.file	"testsem.c"
  15              		.text
  16              	.Ltext0:
  17              		.cfi_sections	.debug_frame
  18              		.section	.text.sem3_setup,"ax",%progbits
  19              		.align	2
  20              		.p2align 4,,15
  21              		.thumb
  22              		.thumb_func
  23              		.type	sem3_setup, %function
  24              	sem3_setup:
  25              	.LFB13:
  26              		.file 1 "/home/formica/chibios/chibios/test/testsem.c"
  27              		.loc 1 215 0
  28              		.cfi_startproc
  29              		@ args = 0, pretend = 0, frame = 0
  30              		@ frame_needed = 0, uses_anonymous_args = 0
  31              		@ link register save eliminated.
  32              		.loc 1 217 0
  33 0000 40F20000 		movw	r0, #:lower16:.LANCHOR0
  34 0004 C0F20000 		movt	r0, #:upper16:.LANCHOR0
  35 0008 0021     		movs	r1, #0
  36              		.loc 1 218 0
  37              		.loc 1 217 0
  38 000a FFF7FEBF 		b	chSemInit
  39              	.LVL0:
  40              		.cfi_endproc
  41              	.LFE13:
  42              		.size	sem3_setup, .-sem3_setup
  43 000e 00BF     		.section	.text.sem2_setup,"ax",%progbits
  44              		.align	2
  45              		.p2align 4,,15
  46              		.thumb
  47              		.thumb_func
  48              		.type	sem2_setup, %function
  49              	sem2_setup:
  50              	.LFB10:
  51              		.loc 1 139 0
  52              		.cfi_startproc
  53              		@ args = 0, pretend = 0, frame = 0
  54              		@ frame_needed = 0, uses_anonymous_args = 0
  55              		@ link register save eliminated.
  56              		.loc 1 141 0
  57 0000 40F20000 		movw	r0, #:lower16:.LANCHOR0
ARM GAS  /tmp/cc0mowet.s 			page 2


  58 0004 C0F20000 		movt	r0, #:upper16:.LANCHOR0
  59 0008 0021     		movs	r1, #0
  60              		.loc 1 142 0
  61              		.loc 1 141 0
  62 000a FFF7FEBF 		b	chSemInit
  63              	.LVL1:
  64              		.cfi_endproc
  65              	.LFE10:
  66              		.size	sem2_setup, .-sem2_setup
  67 000e 00BF     		.section	.text.sem1_setup,"ax",%progbits
  68              		.align	2
  69              		.p2align 4,,15
  70              		.thumb
  71              		.thumb_func
  72              		.type	sem1_setup, %function
  73              	sem1_setup:
  74              	.LFB7:
  75              		.loc 1 83 0
  76              		.cfi_startproc
  77              		@ args = 0, pretend = 0, frame = 0
  78              		@ frame_needed = 0, uses_anonymous_args = 0
  79              		@ link register save eliminated.
  80              		.loc 1 85 0
  81 0000 40F20000 		movw	r0, #:lower16:.LANCHOR0
  82 0004 C0F20000 		movt	r0, #:upper16:.LANCHOR0
  83 0008 0021     		movs	r1, #0
  84              		.loc 1 86 0
  85              		.loc 1 85 0
  86 000a FFF7FEBF 		b	chSemInit
  87              	.LVL2:
  88              		.cfi_endproc
  89              	.LFE7:
  90              		.size	sem1_setup, .-sem1_setup
  91 000e 00BF     		.section	.text.sem4_execute,"ax",%progbits
  92              		.align	2
  93              		.p2align 4,,15
  94              		.thumb
  95              		.thumb_func
  96              		.type	sem4_execute, %function
  97              	sem4_execute:
  98              	.LFB17:
  99              		.loc 1 262 0
 100              		.cfi_startproc
 101              		@ args = 0, pretend = 0, frame = 16
 102              		@ frame_needed = 0, uses_anonymous_args = 0
 103 0000 00B5     		push	{lr}
 104              	.LCFI0:
 105              		.cfi_def_cfa_offset 4
 106              		.cfi_offset 14, -4
 107 0002 87B0     		sub	sp, sp, #28
 108              	.LCFI1:
 109              		.cfi_def_cfa_offset 32
 110              		.loc 1 266 0
 111 0004 0021     		movs	r1, #0
 112 0006 03A8     		add	r0, sp, #12
 113 0008 FFF7FEFF 		bl	chSemInit
 114              	.LVL3:
ARM GAS  /tmp/cc0mowet.s 			page 3


 115              		.loc 1 267 0
 116 000c 0021     		movs	r1, #0
 117 000e 03A8     		add	r0, sp, #12
 118 0010 FFF7FEFF 		bl	chSemReset
 119              	.LVL4:
 120              		.loc 1 268 0
 121 0014 0599     		ldr	r1, [sp, #20]
 122 0016 0120     		movs	r0, #1
 123 0018 0029     		cmp	r1, #0
 124 001a CCBF     		ite	gt
 125 001c 0021     		movgt	r1, #0
 126 001e 0121     		movle	r1, #1
 127 0020 FFF7FEFF 		bl	_test_assert
 128              	.LVL5:
 129 0024 08B1     		cbz	r0, .L10
 130              	.L4:
 131              		.loc 1 290 0
 132 0026 07B0     		add	sp, sp, #28
 133 0028 00BD     		pop	{pc}
 134              	.L10:
 135              		.loc 1 272 0
 136 002a 334B     		ldr	r3, .L13
 137              		.loc 1 271 0
 138 002c 4FF49871 		mov	r1, #304
 139              		.loc 1 272 0
 140 0030 D869     		ldr	r0, [r3, #28]
 141              		.loc 1 271 0
 142 0032 324B     		ldr	r3, .L13+4
 143 0034 8268     		ldr	r2, [r0, #8]
 144 0036 03A8     		add	r0, sp, #12
 145 0038 0090     		str	r0, [sp, #0]
 146 003a 3148     		ldr	r0, .L13+8
 147 003c 013A     		subs	r2, r2, #1
 148 003e 0068     		ldr	r0, [r0, #0]
 149 0040 FFF7FEFF 		bl	chThdCreateStatic
 150              	.LVL6:
 151 0044 2F49     		ldr	r1, .L13+12
 152 0046 0860     		str	r0, [r1, #0]
 153              		.loc 1 275 0
 154 0048 03A8     		add	r0, sp, #12
 155 004a FFF7FEFF 		bl	chSemWait
 156              	.LVL7:
 157              		.loc 1 278 0
 158 004e 0599     		ldr	r1, [sp, #20]
 159 0050 0220     		movs	r0, #2
 160 0052 0029     		cmp	r1, #0
 161 0054 CCBF     		ite	gt
 162 0056 0021     		movgt	r1, #0
 163 0058 0121     		movle	r1, #1
 164 005a FFF7FEFF 		bl	_test_assert
 165              	.LVL8:
 166 005e 0028     		cmp	r0, #0
 167 0060 E1D1     		bne	.L4
 168              	.LBB2:
 169              		.loc 1 282 0
 170 0062 2023     		movs	r3, #32
 171              	.LVL9:
ARM GAS  /tmp/cc0mowet.s 			page 4


 172              	@ 282 "/home/formica/chibios/chibios/test/testsem.c" 1
 173 0064 83F31188 		msr     BASEPRI, r3
 174              	@ 0 "" 2
 175              	.LVL10:
 176              		.thumb
 177              	.LBE2:
 178 0068 FFF7FEFF 		bl	dbg_check_lock
 179              	.LVL11:
 180 006c 059B     		ldr	r3, [sp, #20]
 181 006e 002B     		cmp	r3, #0
 182 0070 3ADD     		ble	.L11
 183              	.L6:
 184              		.loc 1 282 0 is_stmt 0 discriminator 2
 185 0072 FFF7FEFF 		bl	chSchRescheduleS
 186              	.LVL12:
 187 0076 FFF7FEFF 		bl	dbg_check_unlock
 188              	.LVL13:
 189              	.LBB3:
 190 007a 0023     		movs	r3, #0
 191              	.LVL14:
 192              	@ 282 "/home/formica/chibios/chibios/test/testsem.c" 1
 193 007c 83F31188 		msr     BASEPRI, r3
 194              	@ 0 "" 2
 195              	.LVL15:
 196              		.thumb
 197              	.LBE3:
 198              		.loc 1 283 0 is_stmt 1 discriminator 2
 199 0080 0599     		ldr	r1, [sp, #20]
 200 0082 0320     		movs	r0, #3
 201 0084 9942     		cmp	r1, r3
 202              	.LVL16:
 203 0086 D4BF     		ite	le
 204 0088 0021     		movle	r1, #0
 205 008a 0121     		movgt	r1, #1
 206 008c FFF7FEFF 		bl	_test_assert
 207              	.LVL17:
 208 0090 0028     		cmp	r0, #0
 209 0092 C8D1     		bne	.L4
 210              		.loc 1 284 0
 211 0094 059A     		ldr	r2, [sp, #20]
 212 0096 0420     		movs	r0, #4
 213 0098 531E     		subs	r3, r2, #1
 214 009a 5942     		rsbs	r1, r3, #0
 215 009c 5941     		adcs	r1, r1, r3
 216 009e FFF7FEFF 		bl	_test_assert
 217              	.LVL18:
 218 00a2 0028     		cmp	r0, #0
 219 00a4 BFD1     		bne	.L4
 220              	.LBB4:
 221              		.loc 1 287 0
 222 00a6 2023     		movs	r3, #32
 223              	.LVL19:
 224              	@ 287 "/home/formica/chibios/chibios/test/testsem.c" 1
 225 00a8 83F31188 		msr     BASEPRI, r3
 226              	@ 0 "" 2
 227              	.LVL20:
 228              		.thumb
ARM GAS  /tmp/cc0mowet.s 			page 5


 229              	.LBE4:
 230 00ac FFF7FEFF 		bl	dbg_check_lock
 231              	.LVL21:
 232 00b0 0598     		ldr	r0, [sp, #20]
 233 00b2 0028     		cmp	r0, #0
 234 00b4 1CDD     		ble	.L12
 235              	.L7:
 236              		.loc 1 287 0 is_stmt 0 discriminator 2
 237 00b6 FFF7FEFF 		bl	chSchRescheduleS
 238              	.LVL22:
 239 00ba FFF7FEFF 		bl	dbg_check_unlock
 240              	.LVL23:
 241              	.LBB5:
 242 00be 0023     		movs	r3, #0
 243              	.LVL24:
 244              	@ 287 "/home/formica/chibios/chibios/test/testsem.c" 1
 245 00c0 83F31188 		msr     BASEPRI, r3
 246              	@ 0 "" 2
 247              	.LVL25:
 248              		.thumb
 249              	.LBE5:
 250              		.loc 1 288 0 is_stmt 1 discriminator 2
 251 00c4 0599     		ldr	r1, [sp, #20]
 252 00c6 0320     		movs	r0, #3
 253 00c8 9942     		cmp	r1, r3
 254              	.LVL26:
 255 00ca D4BF     		ite	le
 256 00cc 0021     		movle	r1, #0
 257 00ce 0121     		movgt	r1, #1
 258 00d0 FFF7FEFF 		bl	_test_assert
 259              	.LVL27:
 260 00d4 0028     		cmp	r0, #0
 261 00d6 A6D1     		bne	.L4
 262              		.loc 1 289 0
 263 00d8 059A     		ldr	r2, [sp, #20]
 264 00da 0520     		movs	r0, #5
 265 00dc 531E     		subs	r3, r2, #1
 266 00de 5942     		rsbs	r1, r3, #0
 267 00e0 5941     		adcs	r1, r1, r3
 268 00e2 FFF7FEFF 		bl	_test_assert
 269              	.LVL28:
 270 00e6 9EE7     		b	.L4
 271              	.L11:
 272              		.loc 1 282 0 discriminator 1
 273 00e8 03A8     		add	r0, sp, #12
 274 00ea FFF7FEFF 		bl	chSemSignalI
 275              	.LVL29:
 276 00ee C0E7     		b	.L6
 277              	.L12:
 278              		.loc 1 287 0 discriminator 1
 279 00f0 03A8     		add	r0, sp, #12
 280 00f2 FFF7FEFF 		bl	chSemSignalI
 281              	.LVL30:
 282 00f6 DEE7     		b	.L7
 283              	.L14:
 284              		.align	2
 285              	.L13:
ARM GAS  /tmp/cc0mowet.s 			page 6


 286 00f8 00000000 		.word	rlist
 287 00fc 00000000 		.word	thread4
 288 0100 00000000 		.word	wa
 289 0104 00000000 		.word	threads
 290              		.cfi_endproc
 291              	.LFE17:
 292              		.size	sem4_execute, .-sem4_execute
 293 0108 AFF30080 		.section	.text.thread4,"ax",%progbits
 293      AFF30080 
 294              		.align	2
 295              		.p2align 4,,15
 296              		.thumb
 297              		.thumb_func
 298              		.type	thread4, %function
 299              	thread4:
 300              	.LFB16:
 301              		.loc 1 256 0
 302              		.cfi_startproc
 303              		@ args = 0, pretend = 0, frame = 0
 304              		@ frame_needed = 0, uses_anonymous_args = 0
 305              	.LVL31:
 306 0000 10B5     		push	{r4, lr}
 307              	.LCFI2:
 308              		.cfi_def_cfa_offset 8
 309              		.cfi_offset 4, -8
 310              		.cfi_offset 14, -4
 311              	.LBB6:
 312              		.loc 1 258 0
 313 0002 2023     		movs	r3, #32
 314              	.LVL32:
 315              	.LBE6:
 316              		.loc 1 256 0
 317 0004 0446     		mov	r4, r0
 318              	.LBB7:
 319              		.loc 1 258 0
 320              	@ 258 "/home/formica/chibios/chibios/test/testsem.c" 1
 321 0006 83F31188 		msr     BASEPRI, r3
 322              	@ 0 "" 2
 323              	.LVL33:
 324              		.thumb
 325              	.LBE7:
 326 000a FFF7FEFF 		bl	dbg_check_lock
 327              	.LVL34:
 328 000e A368     		ldr	r3, [r4, #8]
 329 0010 002B     		cmp	r3, #0
 330 0012 08DD     		ble	.L17
 331              	.L16:
 332              		.loc 1 258 0 is_stmt 0 discriminator 2
 333 0014 FFF7FEFF 		bl	chSchRescheduleS
 334              	.LVL35:
 335 0018 FFF7FEFF 		bl	dbg_check_unlock
 336              	.LVL36:
 337              	.LBB8:
 338 001c 0023     		movs	r3, #0
 339              	.LVL37:
 340              	@ 258 "/home/formica/chibios/chibios/test/testsem.c" 1
 341 001e 83F31188 		msr     BASEPRI, r3
ARM GAS  /tmp/cc0mowet.s 			page 7


 342              	@ 0 "" 2
 343              	.LVL38:
 344              		.thumb
 345              	.LBE8:
 346              		.loc 1 260 0 is_stmt 1 discriminator 2
 347 0022 1846     		mov	r0, r3
 348 0024 10BD     		pop	{r4, pc}
 349              	.LVL39:
 350              	.L17:
 351              		.loc 1 258 0 discriminator 1
 352 0026 2046     		mov	r0, r4
 353 0028 FFF7FEFF 		bl	chSemSignalI
 354              	.LVL40:
 355 002c F2E7     		b	.L16
 356              		.cfi_endproc
 357              	.LFE16:
 358              		.size	thread4, .-thread4
 359 002e 00BF     		.section	.text.thread3,"ax",%progbits
 360              		.align	2
 361              		.p2align 4,,15
 362              		.thumb
 363              		.thumb_func
 364              		.type	thread3, %function
 365              	thread3:
 366              	.LFB14:
 367              		.loc 1 220 0
 368              		.cfi_startproc
 369              		@ args = 0, pretend = 0, frame = 0
 370              		@ frame_needed = 0, uses_anonymous_args = 0
 371              	.LVL41:
 372 0000 10B5     		push	{r4, lr}
 373              	.LCFI3:
 374              		.cfi_def_cfa_offset 8
 375              		.cfi_offset 4, -8
 376              		.cfi_offset 14, -4
 377              		.loc 1 223 0
 378 0002 40F20004 		movw	r4, #:lower16:.LANCHOR0
 379 0006 C0F20004 		movt	r4, #:upper16:.LANCHOR0
 380 000a 2046     		mov	r0, r4
 381              	.LVL42:
 382 000c FFF7FEFF 		bl	chSemWait
 383              	.LVL43:
 384              		.loc 1 224 0
 385 0010 2046     		mov	r0, r4
 386 0012 FFF7FEFF 		bl	chSemSignal
 387              	.LVL44:
 388              		.loc 1 226 0
 389 0016 0020     		movs	r0, #0
 390 0018 10BD     		pop	{r4, pc}
 391              		.cfi_endproc
 392              	.LFE14:
 393              		.size	thread3, .-thread3
 394 001a 00BFAFF3 		.section	.text.thread1,"ax",%progbits
 394      0080
 395              		.align	2
 396              		.p2align 4,,15
 397              		.thumb
ARM GAS  /tmp/cc0mowet.s 			page 8


 398              		.thumb_func
 399              		.type	thread1, %function
 400              	thread1:
 401              	.LFB8:
 402              		.loc 1 88 0
 403              		.cfi_startproc
 404              		@ args = 0, pretend = 0, frame = 0
 405              		@ frame_needed = 0, uses_anonymous_args = 0
 406              	.LVL45:
 407 0000 10B5     		push	{r4, lr}
 408              	.LCFI4:
 409              		.cfi_def_cfa_offset 8
 410              		.cfi_offset 4, -8
 411              		.cfi_offset 14, -4
 412              		.loc 1 88 0
 413 0002 0446     		mov	r4, r0
 414              		.loc 1 90 0
 415 0004 40F20000 		movw	r0, #:lower16:.LANCHOR0
 416              	.LVL46:
 417 0008 C0F20000 		movt	r0, #:upper16:.LANCHOR0
 418 000c FFF7FEFF 		bl	chSemWait
 419              	.LVL47:
 420              		.loc 1 91 0
 421 0010 2078     		ldrb	r0, [r4, #0]	@ zero_extendqisi2
 422 0012 FFF7FEFF 		bl	test_emit_token
 423              	.LVL48:
 424              		.loc 1 93 0
 425 0016 0020     		movs	r0, #0
 426 0018 10BD     		pop	{r4, pc}
 427              		.cfi_endproc
 428              	.LFE8:
 429              		.size	thread1, .-thread1
 430 001a 00BFAFF3 		.section	.text.thread2,"ax",%progbits
 430      0080
 431              		.align	2
 432              		.p2align 4,,15
 433              		.thumb
 434              		.thumb_func
 435              		.type	thread2, %function
 436              	thread2:
 437              	.LFB11:
 438              		.loc 1 144 0
 439              		.cfi_startproc
 440              		@ args = 0, pretend = 0, frame = 0
 441              		@ frame_needed = 0, uses_anonymous_args = 0
 442              	.LVL49:
 443 0000 08B5     		push	{r3, lr}
 444              	.LCFI5:
 445              		.cfi_def_cfa_offset 8
 446              		.cfi_offset 3, -8
 447              		.cfi_offset 14, -4
 448              		.loc 1 147 0
 449 0002 3220     		movs	r0, #50
 450              	.LVL50:
 451 0004 FFF7FEFF 		bl	chThdSleep
 452              	.LVL51:
 453              	.LBB9:
ARM GAS  /tmp/cc0mowet.s 			page 9


 454              		.loc 1 148 0
 455 0008 2023     		movs	r3, #32
 456              	.LVL52:
 457              	@ 148 "/home/formica/chibios/chibios/test/testsem.c" 1
 458 000a 83F31188 		msr     BASEPRI, r3
 459              	@ 0 "" 2
 460              	.LVL53:
 461              		.thumb
 462              	.LBE9:
 463 000e FFF7FEFF 		bl	dbg_check_lock
 464              	.LVL54:
 465              		.loc 1 149 0
 466 0012 40F20000 		movw	r0, #:lower16:.LANCHOR0
 467 0016 C0F20000 		movt	r0, #:upper16:.LANCHOR0
 468 001a FFF7FEFF 		bl	chSemSignalI
 469              	.LVL55:
 470              		.loc 1 150 0
 471 001e FFF7FEFF 		bl	chSchRescheduleS
 472              	.LVL56:
 473              		.loc 1 151 0
 474 0022 FFF7FEFF 		bl	dbg_check_unlock
 475              	.LVL57:
 476              	.LBB10:
 477 0026 0023     		movs	r3, #0
 478              	.LVL58:
 479              	@ 151 "/home/formica/chibios/chibios/test/testsem.c" 1
 480 0028 83F31188 		msr     BASEPRI, r3
 481              	@ 0 "" 2
 482              	.LVL59:
 483              		.thumb
 484              	.LBE10:
 485              		.loc 1 153 0
 486 002c 1846     		mov	r0, r3
 487 002e 08BD     		pop	{r3, pc}
 488              		.cfi_endproc
 489              	.LFE11:
 490              		.size	thread2, .-thread2
 491              		.section	.text.sem1_execute,"ax",%progbits
 492              		.align	2
 493              		.p2align 4,,15
 494              		.thumb
 495              		.thumb_func
 496              		.type	sem1_execute, %function
 497              	sem1_execute:
 498              	.LFB9:
 499              		.loc 1 95 0
 500              		.cfi_startproc
 501              		@ args = 0, pretend = 0, frame = 8
 502              		@ frame_needed = 0, uses_anonymous_args = 0
 503 0000 2DE9F043 		push	{r4, r5, r6, r7, r8, r9, lr}
 504              	.LCFI6:
 505              		.cfi_def_cfa_offset 28
 506              		.cfi_offset 4, -28
 507              		.cfi_offset 5, -24
 508              		.cfi_offset 6, -20
 509              		.cfi_offset 7, -16
 510              		.cfi_offset 8, -12
ARM GAS  /tmp/cc0mowet.s 			page 10


 511              		.cfi_offset 9, -8
 512              		.cfi_offset 14, -4
 513              		.loc 1 97 0
 514 0004 DFF84881 		ldr	r8, .L24+40
 515 0008 474C     		ldr	r4, .L24
 516 000a D8F81C30 		ldr	r3, [r8, #28]
 517 000e 2768     		ldr	r7, [r4, #0]
 518 0010 9A68     		ldr	r2, [r3, #8]
 519 0012 464E     		ldr	r6, .L24+4
 520              		.loc 1 95 0
 521 0014 85B0     		sub	sp, sp, #20
 522              	.LCFI7:
 523              		.cfi_def_cfa_offset 48
 524              		.loc 1 97 0
 525 0016 4FF49871 		mov	r1, #304
 526 001a 0532     		adds	r2, r2, #5
 527 001c 444B     		ldr	r3, .L24+8
 528 001e 0096     		str	r6, [sp, #0]
 529 0020 3846     		mov	r0, r7
 530 0022 FFF7FEFF 		bl	chThdCreateStatic
 531              	.LVL60:
 532 0026 434D     		ldr	r5, .L24+12
 533              		.loc 1 98 0
 534 0028 D8F81C10 		ldr	r1, [r8, #28]
 535 002c 6368     		ldr	r3, [r4, #4]
 536 002e 8A68     		ldr	r2, [r1, #8]
 537              		.loc 1 97 0
 538 0030 2860     		str	r0, [r5, #0]
 539              		.loc 1 98 0
 540 0032 4148     		ldr	r0, .L24+16
 541 0034 0393     		str	r3, [sp, #12]
 542 0036 4FF49871 		mov	r1, #304
 543 003a 0132     		adds	r2, r2, #1
 544 003c 3C4B     		ldr	r3, .L24+8
 545 003e 0090     		str	r0, [sp, #0]
 546 0040 0398     		ldr	r0, [sp, #12]
 547 0042 FFF7FEFF 		bl	chThdCreateStatic
 548              	.LVL61:
 549              		.loc 1 99 0
 550 0046 D8F81C10 		ldr	r1, [r8, #28]
 551 004a A268     		ldr	r2, [r4, #8]
 552 004c 8B68     		ldr	r3, [r1, #8]
 553              		.loc 1 98 0
 554 004e 6860     		str	r0, [r5, #4]
 555              		.loc 1 99 0
 556 0050 3A48     		ldr	r0, .L24+20
 557 0052 0392     		str	r2, [sp, #12]
 558 0054 4FF49871 		mov	r1, #304
 559 0058 DA1C     		adds	r2, r3, #3
 560 005a 0090     		str	r0, [sp, #0]
 561 005c 344B     		ldr	r3, .L24+8
 562 005e 0398     		ldr	r0, [sp, #12]
 563 0060 FFF7FEFF 		bl	chThdCreateStatic
 564              	.LVL62:
 565              		.loc 1 100 0
 566 0064 D8F81C10 		ldr	r1, [r8, #28]
 567 0068 E268     		ldr	r2, [r4, #12]
ARM GAS  /tmp/cc0mowet.s 			page 11


 568 006a 8B68     		ldr	r3, [r1, #8]
 569              		.loc 1 99 0
 570 006c A860     		str	r0, [r5, #8]
 571              		.loc 1 100 0
 572 006e 3448     		ldr	r0, .L24+24
 573 0070 0392     		str	r2, [sp, #12]
 574 0072 4FF49871 		mov	r1, #304
 575 0076 1A1D     		adds	r2, r3, #4
 576 0078 0090     		str	r0, [sp, #0]
 577 007a 2D4B     		ldr	r3, .L24+8
 578 007c 0398     		ldr	r0, [sp, #12]
 579 007e FFF7FEFF 		bl	chThdCreateStatic
 580              	.LVL63:
 581              		.loc 1 101 0
 582 0082 D8F81C10 		ldr	r1, [r8, #28]
 583 0086 2469     		ldr	r4, [r4, #16]
 584 0088 8A68     		ldr	r2, [r1, #8]
 585              		.loc 1 100 0
 586 008a E860     		str	r0, [r5, #12]
 587              		.loc 1 101 0
 588 008c 2D48     		ldr	r0, .L24+28
 589 008e 4FF49871 		mov	r1, #304
 590 0092 0232     		adds	r2, r2, #2
 591 0094 264B     		ldr	r3, .L24+8
 592 0096 0090     		str	r0, [sp, #0]
 593 0098 2046     		mov	r0, r4
 594 009a FFF7FEFF 		bl	chThdCreateStatic
 595              	.LVL64:
 596              		.loc 1 102 0
 597 009e 2A4C     		ldr	r4, .L24+32
 598              		.loc 1 101 0
 599 00a0 2861     		str	r0, [r5, #16]
 600              		.loc 1 102 0
 601 00a2 2046     		mov	r0, r4
 602 00a4 FFF7FEFF 		bl	chSemSignal
 603              	.LVL65:
 604              		.loc 1 103 0
 605 00a8 2046     		mov	r0, r4
 606 00aa FFF7FEFF 		bl	chSemSignal
 607              	.LVL66:
 608              		.loc 1 104 0
 609 00ae 2046     		mov	r0, r4
 610 00b0 FFF7FEFF 		bl	chSemSignal
 611              	.LVL67:
 612              		.loc 1 105 0
 613 00b4 2046     		mov	r0, r4
 614 00b6 FFF7FEFF 		bl	chSemSignal
 615              	.LVL68:
 616              		.loc 1 106 0
 617 00ba 2046     		mov	r0, r4
 618 00bc FFF7FEFF 		bl	chSemSignal
 619              	.LVL69:
 620              		.loc 1 107 0
 621 00c0 FFF7FEFF 		bl	test_wait_threads
 622              	.LVL70:
 623              		.loc 1 111 0
 624 00c4 0120     		movs	r0, #1
ARM GAS  /tmp/cc0mowet.s 			page 12


 625 00c6 2149     		ldr	r1, .L24+36
 626 00c8 FFF7FEFF 		bl	_test_assert_sequence
 627              	.LVL71:
 628 00cc 8146     		mov	r9, r0
 629 00ce 10B1     		cbz	r0, .L23
 630              		.loc 1 119 0
 631 00d0 05B0     		add	sp, sp, #20
 632 00d2 BDE8F083 		pop	{r4, r5, r6, r7, r8, r9, pc}
 633              	.L23:
 634              		.loc 1 113 0
 635 00d6 D8F81C30 		ldr	r3, [r8, #28]
 636 00da 3846     		mov	r0, r7
 637 00dc 9A68     		ldr	r2, [r3, #8]
 638 00de 4FF49871 		mov	r1, #304
 639 00e2 0096     		str	r6, [sp, #0]
 640 00e4 0532     		adds	r2, r2, #5
 641 00e6 124B     		ldr	r3, .L24+8
 642 00e8 FFF7FEFF 		bl	chThdCreateStatic
 643              	.LVL72:
 644              	.LBB11:
 645              		.loc 1 114 0
 646 00ec 2023     		movs	r3, #32
 647              	.LVL73:
 648              	.LBE11:
 649              		.loc 1 113 0
 650 00ee 2860     		str	r0, [r5, #0]
 651              	.LBB12:
 652              		.loc 1 114 0
 653              	@ 114 "/home/formica/chibios/chibios/test/testsem.c" 1
 654 00f0 83F31188 		msr     BASEPRI, r3
 655              	@ 0 "" 2
 656              	.LVL74:
 657              		.thumb
 658              	.LBE12:
 659 00f4 FFF7FEFF 		bl	dbg_check_lock
 660              	.LVL75:
 661              		.loc 1 115 0
 662 00f8 2046     		mov	r0, r4
 663 00fa 0221     		movs	r1, #2
 664 00fc FFF7FEFF 		bl	chSemAddCounterI
 665              	.LVL76:
 666              		.loc 1 116 0
 667 0100 FFF7FEFF 		bl	dbg_check_unlock
 668              	.LVL77:
 669              	.LBB13:
 670 0104 4B46     		mov	r3, r9
 671              	.LVL78:
 672              	@ 116 "/home/formica/chibios/chibios/test/testsem.c" 1
 673 0106 83F31188 		msr     BASEPRI, r3
 674              	@ 0 "" 2
 675              	.LVL79:
 676              		.thumb
 677              	.LBE13:
 678              		.loc 1 117 0
 679 010a FFF7FEFF 		bl	test_wait_threads
 680              	.LVL80:
 681              		.loc 1 118 0
ARM GAS  /tmp/cc0mowet.s 			page 13


 682 010e A168     		ldr	r1, [r4, #8]
 683 0110 0220     		movs	r0, #2
 684 0112 B1F1010E 		subs	lr, r1, #1
 685 0116 DEF10003 		rsbs	r3, lr, #0
 686 011a 53EB0E01 		adcs	r1, r3, lr
 687              		.loc 1 119 0
 688 011e 05B0     		add	sp, sp, #20
 689 0120 BDE8F043 		pop	{r4, r5, r6, r7, r8, r9, lr}
 690              		.loc 1 118 0
 691 0124 FFF7FEBF 		b	_test_assert
 692              	.LVL81:
 693              	.L25:
 694              		.align	2
 695              	.L24:
 696 0128 00000000 		.word	wa
 697 012c 00000000 		.word	.LC0
 698 0130 00000000 		.word	thread1
 699 0134 00000000 		.word	threads
 700 0138 04000000 		.word	.LC1
 701 013c 08000000 		.word	.LC2
 702 0140 0C000000 		.word	.LC3
 703 0144 10000000 		.word	.LC4
 704 0148 00000000 		.word	.LANCHOR0
 705 014c 14000000 		.word	.LC5
 706 0150 00000000 		.word	rlist
 707              		.cfi_endproc
 708              	.LFE9:
 709              		.size	sem1_execute, .-sem1_execute
 710 0154 AFF30080 		.section	.text.sem3_execute,"ax",%progbits
 710      AFF30080 
 710      AFF30080 
 711              		.align	2
 712              		.p2align 4,,15
 713              		.thumb
 714              		.thumb_func
 715              		.type	sem3_execute, %function
 716              	sem3_execute:
 717              	.LFB15:
 718              		.loc 1 228 0
 719              		.cfi_startproc
 720              		@ args = 0, pretend = 0, frame = 0
 721              		@ frame_needed = 0, uses_anonymous_args = 0
 722 0000 10B5     		push	{r4, lr}
 723              	.LCFI8:
 724              		.cfi_def_cfa_offset 8
 725              		.cfi_offset 4, -8
 726              		.cfi_offset 14, -4
 727              		.loc 1 230 0
 728 0002 224B     		ldr	r3, .L31
 729              		.loc 1 228 0
 730 0004 82B0     		sub	sp, sp, #8
 731              	.LCFI9:
 732              		.cfi_def_cfa_offset 16
 733              		.loc 1 230 0
 734 0006 D869     		ldr	r0, [r3, #28]
 735 0008 0024     		movs	r4, #0
 736 000a 8268     		ldr	r2, [r0, #8]
ARM GAS  /tmp/cc0mowet.s 			page 14


 737 000c 2048     		ldr	r0, .L31+4
 738 000e 0132     		adds	r2, r2, #1
 739 0010 4FF49871 		mov	r1, #304
 740 0014 1F4B     		ldr	r3, .L31+8
 741 0016 0094     		str	r4, [sp, #0]
 742 0018 0068     		ldr	r0, [r0, #0]
 743 001a FFF7FEFF 		bl	chThdCreateStatic
 744              	.LVL82:
 745              		.loc 1 231 0
 746 001e 1E4C     		ldr	r4, .L31+12
 747              		.loc 1 230 0
 748 0020 1E4B     		ldr	r3, .L31+16
 749              		.loc 1 231 0
 750 0022 2146     		mov	r1, r4
 751              		.loc 1 230 0
 752 0024 1860     		str	r0, [r3, #0]
 753              		.loc 1 231 0
 754 0026 2046     		mov	r0, r4
 755 0028 FFF7FEFF 		bl	chSemSignalWait
 756              	.LVL83:
 757              		.loc 1 232 0
 758 002c 2168     		ldr	r1, [r4, #0]
 759 002e 0120     		movs	r0, #1
 760 0030 0A1B     		subs	r2, r1, r4
 761 0032 5342     		rsbs	r3, r2, #0
 762 0034 53EB0201 		adcs	r1, r3, r2
 763 0038 FFF7FEFF 		bl	_test_assert
 764              	.LVL84:
 765 003c 08B1     		cbz	r0, .L30
 766              	.L26:
 767              		.loc 1 238 0
 768 003e 02B0     		add	sp, sp, #8
 769 0040 10BD     		pop	{r4, pc}
 770              	.L30:
 771              		.loc 1 233 0
 772 0042 A168     		ldr	r1, [r4, #8]
 773 0044 0220     		movs	r0, #2
 774 0046 D1F10101 		rsbs	r1, r1, #1
 775 004a 38BF     		it	cc
 776 004c 0021     		movcc	r1, #0
 777 004e FFF7FEFF 		bl	_test_assert
 778              	.LVL85:
 779 0052 0028     		cmp	r0, #0
 780 0054 F3D1     		bne	.L26
 781              	.LBB16:
 782              	.LBB17:
 783              		.loc 1 235 0
 784 0056 2146     		mov	r1, r4
 785 0058 2046     		mov	r0, r4
 786 005a FFF7FEFF 		bl	chSemSignalWait
 787              	.LVL86:
 788              		.loc 1 236 0
 789 005e 2268     		ldr	r2, [r4, #0]
 790 0060 0320     		movs	r0, #3
 791 0062 B2EB040C 		subs	ip, r2, r4
 792 0066 DCF10003 		rsbs	r3, ip, #0
 793 006a 53EB0C01 		adcs	r1, r3, ip
ARM GAS  /tmp/cc0mowet.s 			page 15


 794 006e FFF7FEFF 		bl	_test_assert
 795              	.LVL87:
 796 0072 0028     		cmp	r0, #0
 797 0074 E3D1     		bne	.L26
 798              		.loc 1 237 0
 799 0076 A168     		ldr	r1, [r4, #8]
 800 0078 0420     		movs	r0, #4
 801 007a D1F10101 		rsbs	r1, r1, #1
 802 007e 38BF     		it	cc
 803 0080 0021     		movcc	r1, #0
 804              	.LBE17:
 805              	.LBE16:
 806              		.loc 1 238 0
 807 0082 02B0     		add	sp, sp, #8
 808 0084 BDE81040 		pop	{r4, lr}
 809              	.LBB19:
 810              	.LBB18:
 811              		.loc 1 237 0
 812 0088 FFF7FEBF 		b	_test_assert
 813              	.LVL88:
 814              	.L32:
 815              		.align	2
 816              	.L31:
 817 008c 00000000 		.word	rlist
 818 0090 00000000 		.word	wa
 819 0094 00000000 		.word	thread3
 820 0098 00000000 		.word	.LANCHOR0
 821 009c 00000000 		.word	threads
 822              	.LBE18:
 823              	.LBE19:
 824              		.cfi_endproc
 825              	.LFE15:
 826              		.size	sem3_execute, .-sem3_execute
 827              		.section	.text.sem2_execute,"ax",%progbits
 828              		.align	2
 829              		.p2align 4,,15
 830              		.thumb
 831              		.thumb_func
 832              		.type	sem2_execute, %function
 833              	sem2_execute:
 834              	.LFB12:
 835              		.loc 1 155 0
 836              		.cfi_startproc
 837              		@ args = 0, pretend = 0, frame = 0
 838              		@ frame_needed = 0, uses_anonymous_args = 0
 839 0000 70B5     		push	{r4, r5, r6, lr}
 840              	.LCFI10:
 841              		.cfi_def_cfa_offset 16
 842              		.cfi_offset 4, -16
 843              		.cfi_offset 5, -12
 844              		.cfi_offset 6, -8
 845              		.cfi_offset 14, -4
 846              		.loc 1 163 0
 847 0002 9F4C     		ldr	r4, .L38
 848 0004 0021     		movs	r1, #0
 849              		.loc 1 155 0
 850 0006 82B0     		sub	sp, sp, #8
ARM GAS  /tmp/cc0mowet.s 			page 16


 851              	.LCFI11:
 852              		.cfi_def_cfa_offset 24
 853              		.loc 1 163 0
 854 0008 2046     		mov	r0, r4
 855 000a FFF7FEFF 		bl	chSemWaitTimeout
 856              	.LVL89:
 857              		.loc 1 164 0
 858 000e B0F1FF3C 		subs	ip, r0, #-1
 859 0012 DCF10001 		rsbs	r1, ip, #0
 860 0016 51EB0C01 		adcs	r1, r1, ip
 861 001a 0120     		movs	r0, #1
 862              	.LVL90:
 863 001c FFF7FEFF 		bl	_test_assert
 864              	.LVL91:
 865 0020 08B1     		cbz	r0, .L37
 866              	.L33:
 867              		.loc 1 193 0
 868 0022 02B0     		add	sp, sp, #8
 869 0024 70BD     		pop	{r4, r5, r6, pc}
 870              	.L37:
 871              		.loc 1 165 0
 872 0026 2268     		ldr	r2, [r4, #0]
 873 0028 0220     		movs	r0, #2
 874 002a B2EB040E 		subs	lr, r2, r4
 875 002e DEF10003 		rsbs	r3, lr, #0
 876 0032 53EB0E01 		adcs	r1, r3, lr
 877 0036 FFF7FEFF 		bl	_test_assert
 878              	.LVL92:
 879 003a 0028     		cmp	r0, #0
 880 003c F1D1     		bne	.L33
 881              		.loc 1 166 0
 882 003e A168     		ldr	r1, [r4, #8]
 883 0040 0320     		movs	r0, #3
 884 0042 D1F10101 		rsbs	r1, r1, #1
 885 0046 38BF     		it	cc
 886 0048 0021     		movcc	r1, #0
 887 004a FFF7FEFF 		bl	_test_assert
 888              	.LVL93:
 889 004e 0028     		cmp	r0, #0
 890 0050 E7D1     		bne	.L33
 891              	.LBB22:
 892              	.LBB23:
 893              		.loc 1 171 0
 894 0052 8C4D     		ldr	r5, .L38+4
 895 0054 8C4B     		ldr	r3, .L38+8
 896 0056 EA69     		ldr	r2, [r5, #28]
 897 0058 9168     		ldr	r1, [r2, #8]
 898 005a 0090     		str	r0, [sp, #0]
 899 005c 8B48     		ldr	r0, .L38+12
 900 005e 4A1E     		subs	r2, r1, #1
 901 0060 0068     		ldr	r0, [r0, #0]
 902 0062 4FF49871 		mov	r1, #304
 903 0066 FFF7FEFF 		bl	chThdCreateStatic
 904              	.LVL94:
 905 006a 894B     		ldr	r3, .L38+16
 906              		.loc 1 173 0
 907 006c 4FF4FA71 		mov	r1, #500
ARM GAS  /tmp/cc0mowet.s 			page 17


 908              		.loc 1 171 0
 909 0070 1860     		str	r0, [r3, #0]
 910              		.loc 1 173 0
 911 0072 2046     		mov	r0, r4
 912 0074 FFF7FEFF 		bl	chSemWaitTimeout
 913              	.LVL95:
 914 0078 0546     		mov	r5, r0
 915              	.LVL96:
 916              		.loc 1 174 0
 917 007a FFF7FEFF 		bl	test_wait_threads
 918              	.LVL97:
 919              		.loc 1 175 0
 920 007e 0420     		movs	r0, #4
 921 0080 D5F10101 		rsbs	r1, r5, #1
 922 0084 38BF     		it	cc
 923 0086 0021     		movcc	r1, #0
 924 0088 FFF7FEFF 		bl	_test_assert
 925              	.LVL98:
 926 008c 0028     		cmp	r0, #0
 927 008e C8D1     		bne	.L33
 928              		.loc 1 176 0
 929 0090 2268     		ldr	r2, [r4, #0]
 930 0092 0520     		movs	r0, #5
 931 0094 131B     		subs	r3, r2, r4
 932 0096 5942     		rsbs	r1, r3, #0
 933 0098 5941     		adcs	r1, r1, r3
 934 009a FFF7FEFF 		bl	_test_assert
 935              	.LVL99:
 936 009e 0028     		cmp	r0, #0
 937 00a0 BFD1     		bne	.L33
 938              		.loc 1 177 0
 939 00a2 A268     		ldr	r2, [r4, #8]
 940 00a4 0620     		movs	r0, #6
 941 00a6 D2F10101 		rsbs	r1, r2, #1
 942 00aa 38BF     		it	cc
 943 00ac 0021     		movcc	r1, #0
 944 00ae FFF7FEFF 		bl	_test_assert
 945              	.LVL100:
 946 00b2 0028     		cmp	r0, #0
 947 00b4 B5D1     		bne	.L33
 948              		.loc 1 183 0
 949 00b6 774E     		ldr	r6, .L38+20
 950              		.loc 1 182 0
 951 00b8 FFF7FEFF 		bl	test_wait_tick
 952              	.LVL101:
 953              		.loc 1 185 0
 954 00bc 4120     		movs	r0, #65
 955              		.loc 1 183 0
 956 00be F668     		ldr	r6, [r6, #12]
 957              	.LVL102:
 958              		.loc 1 185 0
 959 00c0 FFF7FEFF 		bl	test_emit_token
 960              	.LVL103:
 961              		.loc 1 186 0
 962 00c4 4FF4FA71 		mov	r1, #500
 963 00c8 2046     		mov	r0, r4
 964 00ca FFF7FEFF 		bl	chSemWaitTimeout
ARM GAS  /tmp/cc0mowet.s 			page 18


 965              	.LVL104:
 966              		.loc 1 187 0
 967 00ce B0F1FF30 		subs	r0, r0, #-1
 968              	.LVL105:
 969 00d2 4342     		rsbs	r3, r0, #0
 970 00d4 53EB0001 		adcs	r1, r3, r0
 971 00d8 0720     		movs	r0, #7
 972              	.LVL106:
 973 00da FFF7FEFF 		bl	_test_assert
 974              	.LVL107:
 975 00de 0028     		cmp	r0, #0
 976 00e0 9FD1     		bne	.L33
 977              		.loc 1 188 0
 978 00e2 2168     		ldr	r1, [r4, #0]
 979 00e4 0820     		movs	r0, #8
 980 00e6 B1EB040C 		subs	ip, r1, r4
 981 00ea DCF10002 		rsbs	r2, ip, #0
 982 00ee 52EB0C01 		adcs	r1, r2, ip
 983 00f2 FFF7FEFF 		bl	_test_assert
 984              	.LVL108:
 985 00f6 0028     		cmp	r0, #0
 986 00f8 93D1     		bne	.L33
 987              		.loc 1 189 0
 988 00fa A368     		ldr	r3, [r4, #8]
 989 00fc 0920     		movs	r0, #9
 990 00fe D3F10101 		rsbs	r1, r3, #1
 991 0102 38BF     		it	cc
 992 0104 0021     		movcc	r1, #0
 993 0106 FFF7FEFF 		bl	_test_assert
 994              	.LVL109:
 995 010a 0028     		cmp	r0, #0
 996 010c 89D1     		bne	.L33
 997              	.LVL110:
 998              		.loc 1 185 0
 999 010e 4220     		movs	r0, #66
 1000 0110 FFF7FEFF 		bl	test_emit_token
 1001              	.LVL111:
 1002              		.loc 1 186 0
 1003 0114 4FF4FA71 		mov	r1, #500
 1004 0118 2046     		mov	r0, r4
 1005 011a FFF7FEFF 		bl	chSemWaitTimeout
 1006              	.LVL112:
 1007              		.loc 1 187 0
 1008 011e B0F1FF3E 		subs	lr, r0, #-1
 1009 0122 DEF10000 		rsbs	r0, lr, #0
 1010              	.LVL113:
 1011 0126 50EB0E01 		adcs	r1, r0, lr
 1012 012a 0720     		movs	r0, #7
 1013 012c FFF7FEFF 		bl	_test_assert
 1014              	.LVL114:
 1015 0130 0028     		cmp	r0, #0
 1016 0132 7FF476AF 		bne	.L33
 1017              		.loc 1 188 0
 1018 0136 2568     		ldr	r5, [r4, #0]
 1019 0138 0820     		movs	r0, #8
 1020 013a 2A1B     		subs	r2, r5, r4
 1021 013c 5142     		rsbs	r1, r2, #0
ARM GAS  /tmp/cc0mowet.s 			page 19


 1022 013e 5141     		adcs	r1, r1, r2
 1023 0140 2546     		mov	r5, r4
 1024 0142 FFF7FEFF 		bl	_test_assert
 1025              	.LVL115:
 1026 0146 0028     		cmp	r0, #0
 1027 0148 7FF46BAF 		bne	.L33
 1028              		.loc 1 189 0
 1029 014c A368     		ldr	r3, [r4, #8]
 1030 014e 0920     		movs	r0, #9
 1031 0150 D3F10101 		rsbs	r1, r3, #1
 1032 0154 38BF     		it	cc
 1033 0156 0021     		movcc	r1, #0
 1034 0158 FFF7FEFF 		bl	_test_assert
 1035              	.LVL116:
 1036 015c 0028     		cmp	r0, #0
 1037 015e 7FF460AF 		bne	.L33
 1038              	.LVL117:
 1039              		.loc 1 185 0
 1040 0162 4320     		movs	r0, #67
 1041 0164 FFF7FEFF 		bl	test_emit_token
 1042              	.LVL118:
 1043              		.loc 1 186 0
 1044 0168 4FF4FA71 		mov	r1, #500
 1045 016c 2046     		mov	r0, r4
 1046 016e FFF7FEFF 		bl	chSemWaitTimeout
 1047              	.LVL119:
 1048              		.loc 1 187 0
 1049 0172 B0F1FF30 		subs	r0, r0, #-1
 1050              	.LVL120:
 1051 0176 4242     		rsbs	r2, r0, #0
 1052 0178 52EB0001 		adcs	r1, r2, r0
 1053 017c 0720     		movs	r0, #7
 1054              	.LVL121:
 1055 017e FFF7FEFF 		bl	_test_assert
 1056              	.LVL122:
 1057 0182 0028     		cmp	r0, #0
 1058 0184 7FF44DAF 		bne	.L33
 1059              		.loc 1 188 0
 1060 0188 2168     		ldr	r1, [r4, #0]
 1061 018a 0820     		movs	r0, #8
 1062 018c 0B1B     		subs	r3, r1, r4
 1063 018e 5A42     		rsbs	r2, r3, #0
 1064 0190 52EB0301 		adcs	r1, r2, r3
 1065 0194 FFF7FEFF 		bl	_test_assert
 1066              	.LVL123:
 1067 0198 0028     		cmp	r0, #0
 1068 019a 7FF442AF 		bne	.L33
 1069              		.loc 1 189 0
 1070 019e A168     		ldr	r1, [r4, #8]
 1071 01a0 0920     		movs	r0, #9
 1072 01a2 D1F10101 		rsbs	r1, r1, #1
 1073 01a6 38BF     		it	cc
 1074 01a8 0021     		movcc	r1, #0
 1075 01aa FFF7FEFF 		bl	_test_assert
 1076              	.LVL124:
 1077 01ae 0028     		cmp	r0, #0
 1078 01b0 7FF437AF 		bne	.L33
ARM GAS  /tmp/cc0mowet.s 			page 20


 1079              	.LVL125:
 1080              		.loc 1 185 0
 1081 01b4 4420     		movs	r0, #68
 1082 01b6 FFF7FEFF 		bl	test_emit_token
 1083              	.LVL126:
 1084              		.loc 1 186 0
 1085 01ba 4FF4FA71 		mov	r1, #500
 1086 01be 2046     		mov	r0, r4
 1087 01c0 FFF7FEFF 		bl	chSemWaitTimeout
 1088              	.LVL127:
 1089              		.loc 1 187 0
 1090 01c4 B0F1FF3C 		subs	ip, r0, #-1
 1091 01c8 DCF10000 		rsbs	r0, ip, #0
 1092              	.LVL128:
 1093 01cc 50EB0C01 		adcs	r1, r0, ip
 1094 01d0 0720     		movs	r0, #7
 1095 01d2 FFF7FEFF 		bl	_test_assert
 1096              	.LVL129:
 1097 01d6 0028     		cmp	r0, #0
 1098 01d8 7FF423AF 		bne	.L33
 1099              		.loc 1 188 0
 1100 01dc 2368     		ldr	r3, [r4, #0]
 1101 01de 0820     		movs	r0, #8
 1102 01e0 B3EB040E 		subs	lr, r3, r4
 1103 01e4 DEF10002 		rsbs	r2, lr, #0
 1104 01e8 52EB0E01 		adcs	r1, r2, lr
 1105 01ec FFF7FEFF 		bl	_test_assert
 1106              	.LVL130:
 1107 01f0 0028     		cmp	r0, #0
 1108 01f2 7FF416AF 		bne	.L33
 1109              		.loc 1 189 0
 1110 01f6 A168     		ldr	r1, [r4, #8]
 1111 01f8 0920     		movs	r0, #9
 1112 01fa D1F10101 		rsbs	r1, r1, #1
 1113 01fe 38BF     		it	cc
 1114 0200 0021     		movcc	r1, #0
 1115 0202 FFF7FEFF 		bl	_test_assert
 1116              	.LVL131:
 1117 0206 0028     		cmp	r0, #0
 1118 0208 7FF40BAF 		bne	.L33
 1119              	.LVL132:
 1120              		.loc 1 185 0
 1121 020c 4520     		movs	r0, #69
 1122 020e FFF7FEFF 		bl	test_emit_token
 1123              	.LVL133:
 1124              		.loc 1 186 0
 1125 0212 4FF4FA71 		mov	r1, #500
 1126 0216 2046     		mov	r0, r4
 1127 0218 FFF7FEFF 		bl	chSemWaitTimeout
 1128              	.LVL134:
 1129              		.loc 1 187 0
 1130 021c B0F1FF30 		subs	r0, r0, #-1
 1131              	.LVL135:
 1132 0220 4342     		rsbs	r3, r0, #0
 1133 0222 53EB0001 		adcs	r1, r3, r0
 1134 0226 0720     		movs	r0, #7
 1135              	.LVL136:
ARM GAS  /tmp/cc0mowet.s 			page 21


 1136 0228 FFF7FEFF 		bl	_test_assert
 1137              	.LVL137:
 1138 022c 0028     		cmp	r0, #0
 1139 022e 7FF4F8AE 		bne	.L33
 1140              		.loc 1 188 0
 1141 0232 2268     		ldr	r2, [r4, #0]
 1142 0234 0820     		movs	r0, #8
 1143 0236 131B     		subs	r3, r2, r4
 1144 0238 5942     		rsbs	r1, r3, #0
 1145 023a 5941     		adcs	r1, r1, r3
 1146 023c FFF7FEFF 		bl	_test_assert
 1147              	.LVL138:
 1148 0240 0028     		cmp	r0, #0
 1149 0242 7FF4EEAE 		bne	.L33
 1150              		.loc 1 189 0
 1151 0246 A268     		ldr	r2, [r4, #8]
 1152 0248 0920     		movs	r0, #9
 1153 024a D2F10101 		rsbs	r1, r2, #1
 1154 024e 38BF     		it	cc
 1155 0250 0021     		movcc	r1, #0
 1156 0252 FFF7FEFF 		bl	_test_assert
 1157              	.LVL139:
 1158 0256 0028     		cmp	r0, #0
 1159 0258 7FF4E3AE 		bne	.L33
 1160              	.LVL140:
 1161              		.loc 1 191 0
 1162 025c 0A20     		movs	r0, #10
 1163 025e 0E49     		ldr	r1, .L38+24
 1164 0260 FFF7FEFF 		bl	_test_assert_sequence
 1165              	.LVL141:
 1166 0264 0028     		cmp	r0, #0
 1167 0266 7FF4DCAE 		bne	.L33
 1168              		.loc 1 192 0
 1169 026a 0B20     		movs	r0, #11
 1170 026c 06F6C411 		addw	r1, r6, #2500
 1171              	.LVL142:
 1172 0270 06F6C912 		addw	r2, r6, #2505
 1173              	.LBE23:
 1174              	.LBE22:
 1175              		.loc 1 193 0
 1176 0274 02B0     		add	sp, sp, #8
 1177 0276 BDE87040 		pop	{r4, r5, r6, lr}
 1178              	.LBB25:
 1179              	.LBB24:
 1180              		.loc 1 192 0
 1181 027a FFF7FEBF 		b	_test_assert_time_window
 1182              	.LVL143:
 1183              	.L39:
 1184 027e 00BF     		.align	2
 1185              	.L38:
 1186 0280 00000000 		.word	.LANCHOR0
 1187 0284 00000000 		.word	rlist
 1188 0288 00000000 		.word	thread2
 1189 028c 00000000 		.word	wa
 1190 0290 00000000 		.word	threads
 1191 0294 00000000 		.word	vtlist
 1192 0298 14000000 		.word	.LC5
ARM GAS  /tmp/cc0mowet.s 			page 22


 1193              	.LBE24:
 1194              	.LBE25:
 1195              		.cfi_endproc
 1196              	.LFE12:
 1197              		.size	sem2_execute, .-sem2_execute
 1198              		.global	patternsem
 1199              		.global	testsem4
 1200              		.global	testsem3
 1201              		.global	testsem2
 1202              		.global	testsem1
 1203 029c AFF30080 		.section	.rodata.testsem1,"a",%progbits
 1204              		.align	2
 1205              		.type	testsem1, %object
 1206              		.size	testsem1, 16
 1207              	testsem1:
 1208 0000 74000000 		.word	.LC9
 1209 0004 00000000 		.word	sem1_setup
 1210 0008 00000000 		.word	0
 1211 000c 00000000 		.word	sem1_execute
 1212              		.section	.rodata.testsem2,"a",%progbits
 1213              		.align	2
 1214              		.type	testsem2, %object
 1215              		.size	testsem2, 16
 1216              	testsem2:
 1217 0000 60000000 		.word	.LC8
 1218 0004 00000000 		.word	sem2_setup
 1219 0008 00000000 		.word	0
 1220 000c 00000000 		.word	sem2_execute
 1221              		.section	.rodata.testsem3,"a",%progbits
 1222              		.align	2
 1223              		.type	testsem3, %object
 1224              		.size	testsem3, 16
 1225              	testsem3:
 1226 0000 40000000 		.word	.LC7
 1227 0004 00000000 		.word	sem3_setup
 1228 0008 00000000 		.word	0
 1229 000c 00000000 		.word	sem3_execute
 1230              		.section	.rodata.testsem4,"a",%progbits
 1231              		.align	2
 1232              		.type	testsem4, %object
 1233              		.size	testsem4, 16
 1234              	testsem4:
 1235 0000 1C000000 		.word	.LC6
 1236 0004 00000000 		.word	0
 1237 0008 00000000 		.word	0
 1238 000c 00000000 		.word	sem4_execute
 1239              		.section	.data.sem1,"aw",%progbits
 1240              		.align	2
 1241              		.set	.LANCHOR0,. + 0
 1242              		.type	sem1, %object
 1243              		.size	sem1, 12
 1244              	sem1:
 1245 0000 00000000 		.word	sem1
 1246 0004 00000000 		.word	sem1
 1247 0008 00000000 		.word	0
 1248              		.section	.rodata.patternsem,"a",%progbits
 1249              		.align	2
ARM GAS  /tmp/cc0mowet.s 			page 23


 1250              		.type	patternsem, %object
 1251              		.size	patternsem, 20
 1252              	patternsem:
 1253 0000 00000000 		.word	testsem1
 1254 0004 00000000 		.word	testsem2
 1255 0008 00000000 		.word	testsem3
 1256 000c 00000000 		.word	testsem4
 1257 0010 00000000 		.word	0
 1258              		.section	.rodata.str1.4,"aMS",%progbits,1
 1259              		.align	2
 1260              	.LC0:
 1261 0000 4100     		.ascii	"A\000"
 1262 0002 0000     		.space	2
 1263              	.LC1:
 1264 0004 4200     		.ascii	"B\000"
 1265 0006 0000     		.space	2
 1266              	.LC2:
 1267 0008 4300     		.ascii	"C\000"
 1268 000a 0000     		.space	2
 1269              	.LC3:
 1270 000c 4400     		.ascii	"D\000"
 1271 000e 0000     		.space	2
 1272              	.LC4:
 1273 0010 4500     		.ascii	"E\000"
 1274 0012 0000     		.space	2
 1275              	.LC5:
 1276 0014 41424344 		.ascii	"ABCDE\000"
 1276      4500
 1277 001a 0000     		.space	2
 1278              	.LC6:
 1279 001c 42696E61 		.ascii	"Binary Semaphores, functionality\000"
 1279      72792053 
 1279      656D6170 
 1279      686F7265 
 1279      732C2066 
 1280 003d 000000   		.space	3
 1281              	.LC7:
 1282 0040 53656D61 		.ascii	"Semaphores, atomic signal-wait\000"
 1282      70686F72 
 1282      65732C20 
 1282      61746F6D 
 1282      69632073 
 1283 005f 00       		.space	1
 1284              	.LC8:
 1285 0060 53656D61 		.ascii	"Semaphores, timeout\000"
 1285      70686F72 
 1285      65732C20 
 1285      74696D65 
 1285      6F757400 
 1286              	.LC9:
 1287 0074 53656D61 		.ascii	"Semaphores, enqueuing\000"
 1287      70686F72 
 1287      65732C20 
 1287      656E7175 
 1287      6575696E 
 1288 008a 0000     		.text
 1289              	.Letext0:
ARM GAS  /tmp/cc0mowet.s 			page 24


 1290              		.file 2 "/home/formica/toolchains/gcc-arm-none-eabi-4_7-2012q4/bin/../lib/gcc/arm-none-eabi/4.7.3/
 1291              		.file 3 "/home/formica/toolchains/gcc-arm-none-eabi-4_7-2012q4/bin/../lib/gcc/arm-none-eabi/4.7.3/
 1292              		.file 4 "/home/formica/chibios/chibios/os/ports/GCC/ARMCMx/chtypes.h"
 1293              		.file 5 "/home/formica/chibios/chibios/os/kernel/include/chlists.h"
 1294              		.file 6 "/home/formica/chibios/chibios/os/kernel/include/chthreads.h"
 1295              		.file 7 "/home/formica/chibios/chibios/os/ports/GCC/ARMCMx/chcore_v7m.h"
 1296              		.file 8 "/home/formica/chibios/chibios/os/kernel/include/chvt.h"
 1297              		.file 9 "/home/formica/chibios/chibios/os/kernel/include/chschd.h"
 1298              		.file 10 "/home/formica/chibios/chibios/os/kernel/include/chsem.h"
 1299              		.file 11 "/home/formica/chibios/chibios/os/kernel/include/chbsem.h"
 1300              		.file 12 "/home/formica/chibios/chibios/os/kernel/include/chmtx.h"
 1301              		.file 13 "/home/formica/chibios/chibios/test/test.h"
 1302              		.file 14 "/home/formica/chibios/chibios/os/kernel/include/chdebug.h"