ARM GAS  /tmp/ccU38i7l.s 			page 1


   1              		.syntax unified
   2              		.cpu cortex-m3
   3              		.fpu softvfp
   4              		.eabi_attribute 20, 1
   5              		.eabi_attribute 21, 1
   6              		.eabi_attribute 23, 3
   7              		.eabi_attribute 24, 1
   8              		.eabi_attribute 25, 1
   9              		.eabi_attribute 26, 1
  10              		.eabi_attribute 30, 2
  11              		.eabi_attribute 34, 1
  12              		.eabi_attribute 18, 4
  13              		.thumb
  14              		.file	"testthd.c"
  15              		.text
  16              	.Ltext0:
  17              		.cfi_sections	.debug_frame
  18              		.section	.text.thd3_execute,"ax",%progbits
  19              		.align	2
  20              		.p2align 4,,15
  21              		.thumb
  22              		.thumb_func
  23              		.type	thd3_execute, %function
  24              	thd3_execute:
  25              	.LFB10:
  26              		.file 1 "/home/formica/chibios/chibios/test/testthd.c"
  27              		.loc 1 137 0
  28              		.cfi_startproc
  29              		@ args = 0, pretend = 0, frame = 0
  30              		@ frame_needed = 0, uses_anonymous_args = 0
  31 0000 F8B5     		push	{r3, r4, r5, r6, r7, lr}
  32              	.LCFI0:
  33              		.cfi_def_cfa_offset 24
  34              		.cfi_offset 3, -24
  35              		.cfi_offset 4, -20
  36              		.cfi_offset 5, -16
  37              		.cfi_offset 6, -12
  38              		.cfi_offset 7, -8
  39              		.cfi_offset 14, -4
  40              		.loc 1 140 0
  41 0002 534E     		ldr	r6, .L7
  42 0004 F369     		ldr	r3, [r6, #28]
  43 0006 9C68     		ldr	r4, [r3, #8]
  44              	.LVL0:
  45              		.loc 1 141 0
  46 0008 651C     		adds	r5, r4, #1
  47 000a 2846     		mov	r0, r5
  48 000c FFF7FEFF 		bl	chThdSetPriority
  49              	.LVL1:
  50 0010 0746     		mov	r7, r0
  51              	.LVL2:
  52              		.loc 1 142 0
  53 0012 001B     		subs	r0, r0, r4
  54              	.LVL3:
  55 0014 4142     		rsbs	r1, r0, #0
  56 0016 4141     		adcs	r1, r1, r0
  57 0018 0120     		movs	r0, #1
ARM GAS  /tmp/ccU38i7l.s 			page 2


  58 001a FFF7FEFF 		bl	_test_assert
  59              	.LVL4:
  60 001e 00B1     		cbz	r0, .L6
  61              	.LVL5:
  62              	.L1:
  63 0020 F8BD     		pop	{r3, r4, r5, r6, r7, pc}
  64              	.LVL6:
  65              	.L6:
  66              		.loc 1 144 0
  67 0022 F269     		ldr	r2, [r6, #28]
  68 0024 0220     		movs	r0, #2
  69 0026 9368     		ldr	r3, [r2, #8]
  70 0028 B5EB030C 		subs	ip, r5, r3
  71 002c DCF10001 		rsbs	r1, ip, #0
  72 0030 51EB0C01 		adcs	r1, r1, ip
  73 0034 FFF7FEFF 		bl	_test_assert
  74              	.LVL7:
  75 0038 0028     		cmp	r0, #0
  76 003a F1D1     		bne	.L1
  77              		.loc 1 146 0
  78 003c 3846     		mov	r0, r7
  79 003e FFF7FEFF 		bl	chThdSetPriority
  80              	.LVL8:
  81              		.loc 1 147 0
  82 0042 B5EB000E 		subs	lr, r5, r0
  83 0046 DEF10000 		rsbs	r0, lr, #0
  84              	.LVL9:
  85 004a 50EB0E01 		adcs	r1, r0, lr
  86 004e 0320     		movs	r0, #3
  87 0050 FFF7FEFF 		bl	_test_assert
  88              	.LVL10:
  89 0054 0028     		cmp	r0, #0
  90 0056 E3D1     		bne	.L1
  91              		.loc 1 149 0
  92 0058 F769     		ldr	r7, [r6, #28]
  93 005a 0420     		movs	r0, #4
  94 005c BA68     		ldr	r2, [r7, #8]
  95 005e 131B     		subs	r3, r2, r4
  96 0060 5942     		rsbs	r1, r3, #0
  97 0062 5941     		adcs	r1, r1, r3
  98 0064 FFF7FEFF 		bl	_test_assert
  99              	.LVL11:
 100 0068 0746     		mov	r7, r0
 101 006a 0028     		cmp	r0, #0
 102 006c D8D1     		bne	.L1
 103              	.LBB2:
 104              		.loc 1 154 0
 105 006e 2023     		movs	r3, #32
 106              	.LVL12:
 107              	@ 154 "/home/formica/chibios/chibios/test/testthd.c" 1
 108 0070 83F31188 		msr     BASEPRI, r3
 109              	@ 0 "" 2
 110              	.LVL13:
 111              		.thumb
 112              	.LBE2:
 113 0074 FFF7FEFF 		bl	dbg_check_lock
 114              	.LVL14:
ARM GAS  /tmp/ccU38i7l.s 			page 3


 115              		.loc 1 155 0
 116 0078 F069     		ldr	r0, [r6, #28]
 117 007a 8268     		ldr	r2, [r0, #8]
 118 007c 931C     		adds	r3, r2, #2
 119 007e 8360     		str	r3, [r0, #8]
 120              		.loc 1 156 0
 121 0080 FFF7FEFF 		bl	dbg_check_unlock
 122              	.LVL15:
 123              	.LBB3:
 124 0084 3B46     		mov	r3, r7
 125              	.LVL16:
 126              	@ 156 "/home/formica/chibios/chibios/test/testthd.c" 1
 127 0086 83F31188 		msr     BASEPRI, r3
 128              	@ 0 "" 2
 129              	.LVL17:
 130              		.thumb
 131              	.LBE3:
 132              		.loc 1 157 0
 133 008a F169     		ldr	r1, [r6, #28]
 134 008c A71C     		adds	r7, r4, #2
 135 008e 8A68     		ldr	r2, [r1, #8]
 136 0090 0520     		movs	r0, #5
 137 0092 D31B     		subs	r3, r2, r7
 138              	.LVL18:
 139 0094 5942     		rsbs	r1, r3, #0
 140 0096 5941     		adcs	r1, r1, r3
 141 0098 FFF7FEFF 		bl	_test_assert
 142              	.LVL19:
 143 009c 0028     		cmp	r0, #0
 144 009e BFD1     		bne	.L1
 145              		.loc 1 161 0
 146 00a0 2846     		mov	r0, r5
 147 00a2 FFF7FEFF 		bl	chThdSetPriority
 148              	.LVL20:
 149              		.loc 1 162 0
 150 00a6 001B     		subs	r0, r0, r4
 151              	.LVL21:
 152 00a8 4242     		rsbs	r2, r0, #0
 153 00aa 52EB0001 		adcs	r1, r2, r0
 154 00ae 0620     		movs	r0, #6
 155 00b0 FFF7FEFF 		bl	_test_assert
 156              	.LVL22:
 157 00b4 0028     		cmp	r0, #0
 158 00b6 B3D1     		bne	.L1
 159              		.loc 1 164 0
 160 00b8 F369     		ldr	r3, [r6, #28]
 161 00ba 0720     		movs	r0, #7
 162 00bc 9968     		ldr	r1, [r3, #8]
 163 00be B7EB010C 		subs	ip, r7, r1
 164 00c2 DCF10002 		rsbs	r2, ip, #0
 165 00c6 52EB0C01 		adcs	r1, r2, ip
 166 00ca FFF7FEFF 		bl	_test_assert
 167              	.LVL23:
 168 00ce 0028     		cmp	r0, #0
 169 00d0 A6D1     		bne	.L1
 170              		.loc 1 166 0
 171 00d2 F369     		ldr	r3, [r6, #28]
ARM GAS  /tmp/ccU38i7l.s 			page 4


 172 00d4 0820     		movs	r0, #8
 173 00d6 596C     		ldr	r1, [r3, #68]
 174 00d8 B5EB010E 		subs	lr, r5, r1
 175 00dc DEF10002 		rsbs	r2, lr, #0
 176 00e0 52EB0E01 		adcs	r1, r2, lr
 177 00e4 FFF7FEFF 		bl	_test_assert
 178              	.LVL24:
 179 00e8 0028     		cmp	r0, #0
 180 00ea 99D1     		bne	.L1
 181              		.loc 1 170 0
 182 00ec E71C     		adds	r7, r4, #3
 183 00ee 3846     		mov	r0, r7
 184 00f0 FFF7FEFF 		bl	chThdSetPriority
 185              	.LVL25:
 186              		.loc 1 171 0
 187 00f4 281A     		subs	r0, r5, r0
 188              	.LVL26:
 189 00f6 4342     		rsbs	r3, r0, #0
 190 00f8 53EB0001 		adcs	r1, r3, r0
 191 00fc 0920     		movs	r0, #9
 192 00fe FFF7FEFF 		bl	_test_assert
 193              	.LVL27:
 194 0102 0028     		cmp	r0, #0
 195 0104 8CD1     		bne	.L1
 196              		.loc 1 173 0
 197 0106 F169     		ldr	r1, [r6, #28]
 198 0108 0A20     		movs	r0, #10
 199 010a 8A68     		ldr	r2, [r1, #8]
 200 010c BB1A     		subs	r3, r7, r2
 201 010e 5942     		rsbs	r1, r3, #0
 202 0110 5941     		adcs	r1, r1, r3
 203 0112 FFF7FEFF 		bl	_test_assert
 204              	.LVL28:
 205 0116 0028     		cmp	r0, #0
 206 0118 82D1     		bne	.L1
 207              		.loc 1 175 0
 208 011a F569     		ldr	r5, [r6, #28]
 209 011c 0B20     		movs	r0, #11
 210 011e 6A6C     		ldr	r2, [r5, #68]
 211 0120 BB1A     		subs	r3, r7, r2
 212 0122 5942     		rsbs	r1, r3, #0
 213 0124 5941     		adcs	r1, r1, r3
 214 0126 FFF7FEFF 		bl	_test_assert
 215              	.LVL29:
 216 012a 0546     		mov	r5, r0
 217 012c 0028     		cmp	r0, #0
 218 012e 7FF477AF 		bne	.L1
 219              	.LBB4:
 220              		.loc 1 178 0
 221 0132 2023     		movs	r3, #32
 222              	.LVL30:
 223              	@ 178 "/home/formica/chibios/chibios/test/testthd.c" 1
 224 0134 83F31188 		msr     BASEPRI, r3
 225              	@ 0 "" 2
 226              	.LVL31:
 227              		.thumb
 228              	.LBE4:
ARM GAS  /tmp/ccU38i7l.s 			page 5


 229 0138 FFF7FEFF 		bl	dbg_check_lock
 230              	.LVL32:
 231              		.loc 1 179 0
 232 013c F269     		ldr	r2, [r6, #28]
 233 013e 9460     		str	r4, [r2, #8]
 234              		.loc 1 180 0
 235 0140 5464     		str	r4, [r2, #68]
 236              		.loc 1 181 0
 237 0142 FFF7FEFF 		bl	dbg_check_unlock
 238              	.LVL33:
 239              	.LBB5:
 240 0146 2B46     		mov	r3, r5
 241              	@ 181 "/home/formica/chibios/chibios/test/testthd.c" 1
 242 0148 83F31188 		msr     BASEPRI, r3
 243              	@ 0 "" 2
 244              	.LVL34:
 245              		.thumb
 246 014c 68E7     		b	.L1
 247              	.L8:
 248 014e 00BF     		.align	2
 249              	.L7:
 250 0150 00000000 		.word	rlist
 251              	.LBE5:
 252              		.cfi_endproc
 253              	.LFE10:
 254              		.size	thd3_execute, .-thd3_execute
 255 0154 AFF30080 		.section	.text.thd2_execute,"ax",%progbits
 255      AFF30080 
 255      AFF30080 
 256              		.align	2
 257              		.p2align 4,,15
 258              		.thumb
 259              		.thumb_func
 260              		.type	thd2_execute, %function
 261              	thd2_execute:
 262              	.LFB9:
 263              		.loc 1 105 0
 264              		.cfi_startproc
 265              		@ args = 0, pretend = 0, frame = 0
 266              		@ frame_needed = 0, uses_anonymous_args = 0
 267 0000 F0B5     		push	{r4, r5, r6, r7, lr}
 268              	.LCFI1:
 269              		.cfi_def_cfa_offset 20
 270              		.cfi_offset 4, -20
 271              		.cfi_offset 5, -16
 272              		.cfi_offset 6, -12
 273              		.cfi_offset 7, -8
 274              		.cfi_offset 14, -4
 275              		.loc 1 107 0
 276 0002 40F20007 		movw	r7, #:lower16:rlist
 277 0006 C0F20007 		movt	r7, #:upper16:rlist
 278 000a FB69     		ldr	r3, [r7, #28]
 279 000c 40F20006 		movw	r6, #:lower16:wa
 280 0010 9A68     		ldr	r2, [r3, #8]
 281 0012 40F20005 		movw	r5, #:lower16:thread
 282 0016 40F20001 		movw	r1, #:lower16:.LC0
 283              		.loc 1 105 0
ARM GAS  /tmp/ccU38i7l.s 			page 6


 284 001a 83B0     		sub	sp, sp, #12
 285              	.LCFI2:
 286              		.cfi_def_cfa_offset 32
 287              		.loc 1 107 0
 288 001c C0F20006 		movt	r6, #:upper16:wa
 289 0020 C0F20005 		movt	r5, #:upper16:thread
 290 0024 C0F20001 		movt	r1, #:upper16:.LC0
 291 0028 043A     		subs	r2, r2, #4
 292 002a 2B46     		mov	r3, r5
 293 002c 0091     		str	r1, [sp, #0]
 294 002e 7068     		ldr	r0, [r6, #4]
 295 0030 4FF49871 		mov	r1, #304
 296 0034 FFF7FEFF 		bl	chThdCreateStatic
 297              	.LVL35:
 298              		.loc 1 108 0
 299 0038 FC69     		ldr	r4, [r7, #28]
 300 003a 3168     		ldr	r1, [r6, #0]
 301 003c A368     		ldr	r3, [r4, #8]
 302              		.loc 1 107 0
 303 003e 40F20004 		movw	r4, #:lower16:threads
 304 0042 C0F20004 		movt	r4, #:upper16:threads
 305 0046 6060     		str	r0, [r4, #4]
 306              		.loc 1 108 0
 307 0048 40F20000 		movw	r0, #:lower16:.LC1
 308 004c C0F20000 		movt	r0, #:upper16:.LC1
 309 0050 5A1F     		subs	r2, r3, #5
 310 0052 0090     		str	r0, [sp, #0]
 311 0054 2B46     		mov	r3, r5
 312 0056 0846     		mov	r0, r1
 313 0058 4FF49871 		mov	r1, #304
 314 005c FFF7FEFF 		bl	chThdCreateStatic
 315              	.LVL36:
 316              		.loc 1 109 0
 317 0060 FA69     		ldr	r2, [r7, #28]
 318 0062 3169     		ldr	r1, [r6, #16]
 319 0064 9368     		ldr	r3, [r2, #8]
 320              		.loc 1 108 0
 321 0066 2060     		str	r0, [r4, #0]
 322              		.loc 1 109 0
 323 0068 40F20000 		movw	r0, #:lower16:.LC2
 324 006c C0F20000 		movt	r0, #:upper16:.LC2
 325 0070 5A1E     		subs	r2, r3, #1
 326 0072 0090     		str	r0, [sp, #0]
 327 0074 2B46     		mov	r3, r5
 328 0076 0846     		mov	r0, r1
 329 0078 4FF49871 		mov	r1, #304
 330 007c FFF7FEFF 		bl	chThdCreateStatic
 331              	.LVL37:
 332              		.loc 1 110 0
 333 0080 FA69     		ldr	r2, [r7, #28]
 334 0082 F168     		ldr	r1, [r6, #12]
 335 0084 9268     		ldr	r2, [r2, #8]
 336              		.loc 1 109 0
 337 0086 2061     		str	r0, [r4, #16]
 338              		.loc 1 110 0
 339 0088 40F20000 		movw	r0, #:lower16:.LC3
 340 008c C0F20000 		movt	r0, #:upper16:.LC3
ARM GAS  /tmp/ccU38i7l.s 			page 7


 341 0090 2B46     		mov	r3, r5
 342 0092 0090     		str	r0, [sp, #0]
 343 0094 023A     		subs	r2, r2, #2
 344 0096 0846     		mov	r0, r1
 345 0098 4FF49871 		mov	r1, #304
 346 009c FFF7FEFF 		bl	chThdCreateStatic
 347              	.LVL38:
 348              	.LBB6:
 349              		.loc 1 112 0
 350 00a0 2023     		movs	r3, #32
 351              	.LVL39:
 352              	.LBE6:
 353              		.loc 1 110 0
 354 00a2 E060     		str	r0, [r4, #12]
 355              	.LBB7:
 356              		.loc 1 112 0
 357              	@ 112 "/home/formica/chibios/chibios/test/testthd.c" 1
 358 00a4 83F31188 		msr     BASEPRI, r3
 359              	@ 0 "" 2
 360              	.LVL40:
 361              		.thumb
 362              	.LBE7:
 363 00a8 FFF7FEFF 		bl	dbg_check_lock
 364              	.LVL41:
 365              		.loc 1 113 0
 366 00ac FB69     		ldr	r3, [r7, #28]
 367 00ae 4FF49871 		mov	r1, #304
 368 00b2 9A68     		ldr	r2, [r3, #8]
 369 00b4 2B46     		mov	r3, r5
 370 00b6 40F20005 		movw	r5, #:lower16:.LC4
 371 00ba C0F20005 		movt	r5, #:upper16:.LC4
 372 00be 033A     		subs	r2, r2, #3
 373 00c0 B068     		ldr	r0, [r6, #8]
 374 00c2 0095     		str	r5, [sp, #0]
 375 00c4 FFF7FEFF 		bl	chThdCreateI
 376              	.LVL42:
 377 00c8 A060     		str	r0, [r4, #8]
 378              		.loc 1 114 0
 379 00ca FFF7FEFF 		bl	dbg_check_unlock
 380              	.LVL43:
 381              	.LBB8:
 382 00ce 0023     		movs	r3, #0
 383              	.LVL44:
 384              	@ 114 "/home/formica/chibios/chibios/test/testthd.c" 1
 385 00d0 83F31188 		msr     BASEPRI, r3
 386              	@ 0 "" 2
 387              	.LVL45:
 388              		.thumb
 389              	.LBE8:
 390              		.loc 1 115 0
 391 00d4 A068     		ldr	r0, [r4, #8]
 392 00d6 FFF7FEFF 		bl	chThdResume
 393              	.LVL46:
 394              		.loc 1 116 0
 395 00da FFF7FEFF 		bl	test_wait_threads
 396              	.LVL47:
 397              		.loc 1 117 0
ARM GAS  /tmp/ccU38i7l.s 			page 8


 398 00de 40F20001 		movw	r1, #:lower16:.LC5
 399 00e2 0120     		movs	r0, #1
 400 00e4 C0F20001 		movt	r1, #:upper16:.LC5
 401              		.loc 1 118 0
 402 00e8 03B0     		add	sp, sp, #12
 403 00ea BDE8F040 		pop	{r4, r5, r6, r7, lr}
 404              		.loc 1 117 0
 405 00ee FFF7FEBF 		b	_test_assert_sequence
 406              	.LVL48:
 407              		.cfi_endproc
 408              	.LFE9:
 409              		.size	thd2_execute, .-thd2_execute
 410 00f2 00BFAFF3 		.section	.text.thd1_execute,"ax",%progbits
 410      0080AFF3 
 410      0080AFF3 
 410      0080
 411              		.align	2
 412              		.p2align 4,,15
 413              		.thumb
 414              		.thumb_func
 415              		.type	thd1_execute, %function
 416              	thd1_execute:
 417              	.LFB8:
 418              		.loc 1 77 0
 419              		.cfi_startproc
 420              		@ args = 0, pretend = 0, frame = 0
 421              		@ frame_needed = 0, uses_anonymous_args = 0
 422 0000 2DE9F041 		push	{r4, r5, r6, r7, r8, lr}
 423              	.LCFI3:
 424              		.cfi_def_cfa_offset 24
 425              		.cfi_offset 4, -24
 426              		.cfi_offset 5, -20
 427              		.cfi_offset 6, -16
 428              		.cfi_offset 7, -12
 429              		.cfi_offset 8, -8
 430              		.cfi_offset 14, -4
 431              		.loc 1 79 0
 432 0004 40F20008 		movw	r8, #:lower16:rlist
 433 0008 C0F20008 		movt	r8, #:upper16:rlist
 434 000c D8F81C30 		ldr	r3, [r8, #28]
 435 0010 40F20006 		movw	r6, #:lower16:wa
 436 0014 9A68     		ldr	r2, [r3, #8]
 437 0016 40F20005 		movw	r5, #:lower16:thread
 438 001a 40F20004 		movw	r4, #:lower16:.LC1
 439              		.loc 1 77 0
 440 001e 82B0     		sub	sp, sp, #8
 441              	.LCFI4:
 442              		.cfi_def_cfa_offset 32
 443              		.loc 1 79 0
 444 0020 C0F20005 		movt	r5, #:upper16:thread
 445 0024 C0F20006 		movt	r6, #:upper16:wa
 446 0028 C0F20004 		movt	r4, #:upper16:.LC1
 447 002c 053A     		subs	r2, r2, #5
 448 002e 2B46     		mov	r3, r5
 449 0030 0094     		str	r4, [sp, #0]
 450 0032 3068     		ldr	r0, [r6, #0]
 451 0034 4FF49871 		mov	r1, #304
ARM GAS  /tmp/ccU38i7l.s 			page 9


 452 0038 FFF7FEFF 		bl	chThdCreateStatic
 453              	.LVL49:
 454 003c 40F20004 		movw	r4, #:lower16:threads
 455              		.loc 1 80 0
 456 0040 D8F81C10 		ldr	r1, [r8, #28]
 457              		.loc 1 79 0
 458 0044 C0F20004 		movt	r4, #:upper16:threads
 459              		.loc 1 80 0
 460 0048 8B68     		ldr	r3, [r1, #8]
 461 004a 7768     		ldr	r7, [r6, #4]
 462              		.loc 1 79 0
 463 004c 2060     		str	r0, [r4, #0]
 464              		.loc 1 80 0
 465 004e 40F20000 		movw	r0, #:lower16:.LC0
 466 0052 C0F20000 		movt	r0, #:upper16:.LC0
 467 0056 1A1F     		subs	r2, r3, #4
 468 0058 0090     		str	r0, [sp, #0]
 469 005a 2B46     		mov	r3, r5
 470 005c 4FF49871 		mov	r1, #304
 471 0060 3846     		mov	r0, r7
 472 0062 FFF7FEFF 		bl	chThdCreateStatic
 473              	.LVL50:
 474              		.loc 1 81 0
 475 0066 D8F81C20 		ldr	r2, [r8, #28]
 476 006a B768     		ldr	r7, [r6, #8]
 477 006c 9368     		ldr	r3, [r2, #8]
 478              		.loc 1 80 0
 479 006e 6060     		str	r0, [r4, #4]
 480              		.loc 1 81 0
 481 0070 40F20000 		movw	r0, #:lower16:.LC4
 482 0074 C0F20000 		movt	r0, #:upper16:.LC4
 483 0078 DA1E     		subs	r2, r3, #3
 484 007a 0090     		str	r0, [sp, #0]
 485 007c 2B46     		mov	r3, r5
 486 007e 4FF49871 		mov	r1, #304
 487 0082 3846     		mov	r0, r7
 488 0084 FFF7FEFF 		bl	chThdCreateStatic
 489              	.LVL51:
 490              		.loc 1 82 0
 491 0088 D8F81C10 		ldr	r1, [r8, #28]
 492 008c F768     		ldr	r7, [r6, #12]
 493 008e 8A68     		ldr	r2, [r1, #8]
 494              		.loc 1 81 0
 495 0090 A060     		str	r0, [r4, #8]
 496              		.loc 1 82 0
 497 0092 40F20000 		movw	r0, #:lower16:.LC3
 498 0096 C0F20000 		movt	r0, #:upper16:.LC3
 499 009a 023A     		subs	r2, r2, #2
 500 009c 2B46     		mov	r3, r5
 501 009e 0090     		str	r0, [sp, #0]
 502 00a0 4FF49871 		mov	r1, #304
 503 00a4 3846     		mov	r0, r7
 504 00a6 FFF7FEFF 		bl	chThdCreateStatic
 505              	.LVL52:
 506              		.loc 1 83 0
 507 00aa D8F81C30 		ldr	r3, [r8, #28]
 508 00ae 3669     		ldr	r6, [r6, #16]
ARM GAS  /tmp/ccU38i7l.s 			page 10


 509 00b0 9A68     		ldr	r2, [r3, #8]
 510              		.loc 1 82 0
 511 00b2 E060     		str	r0, [r4, #12]
 512              		.loc 1 83 0
 513 00b4 40F20000 		movw	r0, #:lower16:.LC2
 514 00b8 C0F20000 		movt	r0, #:upper16:.LC2
 515 00bc 4FF49871 		mov	r1, #304
 516 00c0 013A     		subs	r2, r2, #1
 517 00c2 2B46     		mov	r3, r5
 518 00c4 0090     		str	r0, [sp, #0]
 519 00c6 3046     		mov	r0, r6
 520 00c8 FFF7FEFF 		bl	chThdCreateStatic
 521              	.LVL53:
 522 00cc 2061     		str	r0, [r4, #16]
 523              		.loc 1 84 0
 524 00ce FFF7FEFF 		bl	test_wait_threads
 525              	.LVL54:
 526              		.loc 1 85 0
 527 00d2 40F20001 		movw	r1, #:lower16:.LC5
 528 00d6 0120     		movs	r0, #1
 529 00d8 C0F20001 		movt	r1, #:upper16:.LC5
 530              		.loc 1 86 0
 531 00dc 02B0     		add	sp, sp, #8
 532 00de BDE8F041 		pop	{r4, r5, r6, r7, r8, lr}
 533              		.loc 1 85 0
 534 00e2 FFF7FEBF 		b	_test_assert_sequence
 535              	.LVL55:
 536              		.cfi_endproc
 537              	.LFE8:
 538              		.size	thd1_execute, .-thd1_execute
 539 00e6 00BFAFF3 		.section	.text.thread,"ax",%progbits
 539      0080AFF3 
 539      0080
 540              		.align	2
 541              		.p2align 4,,15
 542              		.thumb
 543              		.thumb_func
 544              		.type	thread, %function
 545              	thread:
 546              	.LFB7:
 547              		.loc 1 71 0
 548              		.cfi_startproc
 549              		@ args = 0, pretend = 0, frame = 0
 550              		@ frame_needed = 0, uses_anonymous_args = 0
 551              	.LVL56:
 552 0000 08B5     		push	{r3, lr}
 553              	.LCFI5:
 554              		.cfi_def_cfa_offset 8
 555              		.cfi_offset 3, -8
 556              		.cfi_offset 14, -4
 557              		.loc 1 73 0
 558 0002 0078     		ldrb	r0, [r0, #0]	@ zero_extendqisi2
 559              	.LVL57:
 560 0004 FFF7FEFF 		bl	test_emit_token
 561              	.LVL58:
 562              		.loc 1 75 0
 563 0008 0020     		movs	r0, #0
ARM GAS  /tmp/ccU38i7l.s 			page 11


 564 000a 08BD     		pop	{r3, pc}
 565              		.cfi_endproc
 566              	.LFE7:
 567              		.size	thread, .-thread
 568 000c AFF30080 		.section	.text.thd4_execute,"ax",%progbits
 569              		.align	2
 570              		.p2align 4,,15
 571              		.thumb
 572              		.thumb_func
 573              		.type	thd4_execute, %function
 574              	thd4_execute:
 575              	.LFB11:
 576              		.loc 1 200 0
 577              		.cfi_startproc
 578              		@ args = 0, pretend = 0, frame = 0
 579              		@ frame_needed = 0, uses_anonymous_args = 0
 580 0000 38B5     		push	{r3, r4, r5, lr}
 581              	.LCFI6:
 582              		.cfi_def_cfa_offset 16
 583              		.cfi_offset 3, -16
 584              		.cfi_offset 4, -12
 585              		.cfi_offset 5, -8
 586              		.cfi_offset 14, -4
 587              		.loc 1 206 0
 588 0002 1C4D     		ldr	r5, .L17
 589              		.loc 1 203 0
 590 0004 FFF7FEFF 		bl	test_wait_tick
 591              	.LVL59:
 592              		.loc 1 206 0
 593 0008 EC68     		ldr	r4, [r5, #12]
 594              	.LVL60:
 595              		.loc 1 207 0
 596 000a 6420     		movs	r0, #100
 597 000c FFF7FEFF 		bl	chThdSleep
 598              	.LVL61:
 599              		.loc 1 208 0
 600 0010 0120     		movs	r0, #1
 601 0012 04F16401 		add	r1, r4, #100
 602 0016 04F16502 		add	r2, r4, #101
 603 001a FFF7FEFF 		bl	_test_assert_time_window
 604              	.LVL62:
 605 001e 00B1     		cbz	r0, .L16
 606              	.LVL63:
 607              	.L12:
 608 0020 38BD     		pop	{r3, r4, r5, pc}
 609              	.LVL64:
 610              	.L16:
 611              		.loc 1 211 0
 612 0022 EC68     		ldr	r4, [r5, #12]
 613              	.LVL65:
 614              		.loc 1 212 0
 615 0024 6420     		movs	r0, #100
 616 0026 FFF7FEFF 		bl	chThdSleep
 617              	.LVL66:
 618              		.loc 1 213 0
 619 002a 0220     		movs	r0, #2
 620 002c 04F16401 		add	r1, r4, #100
ARM GAS  /tmp/ccU38i7l.s 			page 12


 621 0030 04F16502 		add	r2, r4, #101
 622 0034 FFF7FEFF 		bl	_test_assert_time_window
 623              	.LVL67:
 624 0038 0028     		cmp	r0, #0
 625 003a F1D1     		bne	.L12
 626              	.LBB11:
 627              	.LBB12:
 628              		.loc 1 216 0
 629 003c EC68     		ldr	r4, [r5, #12]
 630              	.LVL68:
 631              		.loc 1 217 0
 632 003e 4FF47A70 		mov	r0, #1000
 633 0042 FFF7FEFF 		bl	chThdSleep
 634              	.LVL69:
 635              		.loc 1 218 0
 636 0046 0320     		movs	r0, #3
 637 0048 04F57A71 		add	r1, r4, #1000
 638 004c 04F2E932 		addw	r2, r4, #1001
 639 0050 FFF7FEFF 		bl	_test_assert_time_window
 640              	.LVL70:
 641 0054 0028     		cmp	r0, #0
 642 0056 E3D1     		bne	.L12
 643              		.loc 1 221 0
 644 0058 EC68     		ldr	r4, [r5, #12]
 645              	.LVL71:
 646 005a 04F16405 		add	r5, r4, #100
 647              	.LVL72:
 648              		.loc 1 222 0
 649 005e 2846     		mov	r0, r5
 650 0060 FFF7FEFF 		bl	chThdSleepUntil
 651              	.LVL73:
 652              		.loc 1 223 0
 653 0064 0420     		movs	r0, #4
 654 0066 2946     		mov	r1, r5
 655 0068 04F16502 		add	r2, r4, #101
 656              	.LBE12:
 657              	.LBE11:
 658              		.loc 1 224 0
 659 006c BDE83840 		pop	{r3, r4, r5, lr}
 660              	.LBB14:
 661              	.LBB13:
 662              		.loc 1 223 0
 663 0070 FFF7FEBF 		b	_test_assert_time_window
 664              	.LVL74:
 665              	.L18:
 666              		.align	2
 667              	.L17:
 668 0074 00000000 		.word	vtlist
 669              	.LBE13:
 670              	.LBE14:
 671              		.cfi_endproc
 672              	.LFE11:
 673              		.size	thd4_execute, .-thd4_execute
 674              		.global	patternthd
 675              		.global	testthd4
 676              		.global	testthd3
 677              		.global	testthd2
ARM GAS  /tmp/ccU38i7l.s 			page 13


 678              		.global	testthd1
 679 0078 AFF30080 		.section	.rodata.testthd1,"a",%progbits
 679      AFF30080 
 680              		.align	2
 681              		.type	testthd1, %object
 682              		.size	testthd1, 16
 683              	testthd1:
 684 0000 64000000 		.word	.LC9
 685 0004 00000000 		.word	0
 686 0008 00000000 		.word	0
 687 000c 00000000 		.word	thd1_execute
 688              		.section	.rodata.testthd2,"a",%progbits
 689              		.align	2
 690              		.type	testthd2, %object
 691              		.size	testthd2, 16
 692              	testthd2:
 693 0000 48000000 		.word	.LC8
 694 0004 00000000 		.word	0
 695 0008 00000000 		.word	0
 696 000c 00000000 		.word	thd2_execute
 697              		.section	.rodata.testthd3,"a",%progbits
 698              		.align	2
 699              		.type	testthd3, %object
 700              		.size	testthd3, 16
 701              	testthd3:
 702 0000 2C000000 		.word	.LC7
 703 0004 00000000 		.word	0
 704 0008 00000000 		.word	0
 705 000c 00000000 		.word	thd3_execute
 706              		.section	.rodata.testthd4,"a",%progbits
 707              		.align	2
 708              		.type	testthd4, %object
 709              		.size	testthd4, 16
 710              	testthd4:
 711 0000 1C000000 		.word	.LC6
 712 0004 00000000 		.word	0
 713 0008 00000000 		.word	0
 714 000c 00000000 		.word	thd4_execute
 715              		.section	.rodata.patternthd,"a",%progbits
 716              		.align	2
 717              		.type	patternthd, %object
 718              		.size	patternthd, 20
 719              	patternthd:
 720 0000 00000000 		.word	testthd1
 721 0004 00000000 		.word	testthd2
 722 0008 00000000 		.word	testthd3
 723 000c 00000000 		.word	testthd4
 724 0010 00000000 		.word	0
 725              		.section	.rodata.str1.4,"aMS",%progbits,1
 726              		.align	2
 727              	.LC0:
 728 0000 4400     		.ascii	"D\000"
 729 0002 0000     		.space	2
 730              	.LC1:
 731 0004 4500     		.ascii	"E\000"
 732 0006 0000     		.space	2
 733              	.LC2:
ARM GAS  /tmp/ccU38i7l.s 			page 14


 734 0008 4100     		.ascii	"A\000"
 735 000a 0000     		.space	2
 736              	.LC3:
 737 000c 4200     		.ascii	"B\000"
 738 000e 0000     		.space	2
 739              	.LC4:
 740 0010 4300     		.ascii	"C\000"
 741 0012 0000     		.space	2
 742              	.LC5:
 743 0014 41424344 		.ascii	"ABCDE\000"
 743      4500
 744 001a 0000     		.space	2
 745              	.LC6:
 746 001c 54687265 		.ascii	"Threads, delays\000"
 746      6164732C 
 746      2064656C 
 746      61797300 
 747              	.LC7:
 748 002c 54687265 		.ascii	"Threads, priority change\000"
 748      6164732C 
 748      20707269 
 748      6F726974 
 748      79206368 
 749 0045 000000   		.space	3
 750              	.LC8:
 751 0048 54687265 		.ascii	"Threads, enqueuing test #2\000"
 751      6164732C 
 751      20656E71 
 751      75657569 
 751      6E672074 
 752 0063 00       		.space	1
 753              	.LC9:
 754 0064 54687265 		.ascii	"Threads, enqueuing test #1\000"
 754      6164732C 
 754      20656E71 
 754      75657569 
 754      6E672074 
 755 007f 00       		.text
 756              	.Letext0:
 757              		.file 2 "/home/formica/toolchains/gcc-arm-none-eabi-4_7-2012q4/bin/../lib/gcc/arm-none-eabi/4.7.3/
 758              		.file 3 "/home/formica/toolchains/gcc-arm-none-eabi-4_7-2012q4/bin/../lib/gcc/arm-none-eabi/4.7.3/
 759              		.file 4 "/home/formica/chibios/chibios/os/ports/GCC/ARMCMx/chtypes.h"
 760              		.file 5 "/home/formica/chibios/chibios/os/kernel/include/chlists.h"
 761              		.file 6 "/home/formica/chibios/chibios/os/kernel/include/chthreads.h"
 762              		.file 7 "/home/formica/chibios/chibios/os/ports/GCC/ARMCMx/chcore_v7m.h"
 763              		.file 8 "/home/formica/chibios/chibios/os/kernel/include/chvt.h"
 764              		.file 9 "/home/formica/chibios/chibios/os/kernel/include/chschd.h"
 765              		.file 10 "/home/formica/chibios/chibios/os/kernel/include/chmtx.h"
 766              		.file 11 "/home/formica/chibios/chibios/test/test.h"
 767              		.file 12 "/home/formica/chibios/chibios/os/kernel/include/chdebug.h"