ARM GAS  /tmp/cce4pmgX.s 			page 1


   1              		.syntax unified
   2              		.cpu cortex-m3
   3              		.fpu softvfp
   4              		.eabi_attribute 20, 1
   5              		.eabi_attribute 21, 1
   6              		.eabi_attribute 23, 3
   7              		.eabi_attribute 24, 1
   8              		.eabi_attribute 25, 1
   9              		.eabi_attribute 26, 1
  10              		.eabi_attribute 30, 2
  11              		.eabi_attribute 34, 1
  12              		.eabi_attribute 18, 4
  13              		.thumb
  14              		.file	"testmbox.c"
  15              		.text
  16              	.Ltext0:
  17              		.cfi_sections	.debug_frame
  18              		.section	.text.mbox1_execute,"ax",%progbits
  19              		.align	2
  20              		.p2align 4,,15
  21              		.thumb
  22              		.thumb_func
  23              		.type	mbox1_execute, %function
  24              	mbox1_execute:
  25              	.LFB8:
  26              		.file 1 "/home/formica/chibios/chibios/test/testmbox.c"
  27              		.loc 1 87 0
  28              		.cfi_startproc
  29              		@ args = 0, pretend = 0, frame = 8
  30              		@ frame_needed = 0, uses_anonymous_args = 0
  31 0000 F0B5     		push	{r4, r5, r6, r7, lr}
  32              	.LCFI0:
  33              		.cfi_def_cfa_offset 20
  34              		.cfi_offset 4, -20
  35              		.cfi_offset 5, -16
  36              		.cfi_offset 6, -12
  37              		.cfi_offset 7, -8
  38              		.cfi_offset 14, -4
  39              		.loc 1 94 0
  40 0002 764C     		ldr	r4, .L30
  41 0004 0120     		movs	r0, #1
  42 0006 616A     		ldr	r1, [r4, #36]
  43              		.loc 1 87 0
  44 0008 83B0     		sub	sp, sp, #12
  45              	.LCFI1:
  46              		.cfi_def_cfa_offset 32
  47              		.loc 1 94 0
  48 000a B1F1050E 		subs	lr, r1, #5
  49 000e DEF10002 		rsbs	r2, lr, #0
  50 0012 52EB0E01 		adcs	r1, r2, lr
  51 0016 FFF7FEFF 		bl	_test_assert
  52              	.LVL0:
  53 001a 0028     		cmp	r0, #0
  54 001c 45D1     		bne	.L1
  55              		.loc 1 100 0
  56 001e 4221     		movs	r1, #66
  57 0020 2046     		mov	r0, r4
ARM GAS  /tmp/cce4pmgX.s 			page 2


  58 0022 4FF0FF32 		mov	r2, #-1
  59 0026 FFF7FEFF 		bl	chMBPost
  60              	.LVL1:
  61              		.loc 1 101 0
  62 002a D0F10101 		rsbs	r1, r0, #1
  63 002e 38BF     		it	cc
  64 0030 0021     		movcc	r1, #0
  65 0032 0220     		movs	r0, #2
  66              	.LVL2:
  67 0034 FFF7FEFF 		bl	_test_assert
  68              	.LVL3:
  69 0038 B8BB     		cbnz	r0, .L1
  70              	.LVL4:
  71              		.loc 1 100 0
  72 003a 4321     		movs	r1, #67
  73 003c 2046     		mov	r0, r4
  74 003e 4FF0FF32 		mov	r2, #-1
  75 0042 FFF7FEFF 		bl	chMBPost
  76              	.LVL5:
  77              		.loc 1 101 0
  78 0046 D0F10101 		rsbs	r1, r0, #1
  79 004a 38BF     		it	cc
  80 004c 0021     		movcc	r1, #0
  81 004e 0220     		movs	r0, #2
  82              	.LVL6:
  83 0050 FFF7FEFF 		bl	_test_assert
  84              	.LVL7:
  85 0054 48BB     		cbnz	r0, .L1
  86              	.LVL8:
  87              		.loc 1 100 0
  88 0056 4421     		movs	r1, #68
  89 0058 2046     		mov	r0, r4
  90 005a 4FF0FF32 		mov	r2, #-1
  91 005e FFF7FEFF 		bl	chMBPost
  92              	.LVL9:
  93              		.loc 1 101 0
  94 0062 D0F10101 		rsbs	r1, r0, #1
  95 0066 38BF     		it	cc
  96 0068 0021     		movcc	r1, #0
  97 006a 0220     		movs	r0, #2
  98              	.LVL10:
  99 006c FFF7FEFF 		bl	_test_assert
 100              	.LVL11:
 101 0070 D8B9     		cbnz	r0, .L1
 102              	.LVL12:
 103              		.loc 1 100 0
 104 0072 4521     		movs	r1, #69
 105 0074 2046     		mov	r0, r4
 106 0076 4FF0FF32 		mov	r2, #-1
 107 007a FFF7FEFF 		bl	chMBPost
 108              	.LVL13:
 109              		.loc 1 101 0
 110 007e D0F10101 		rsbs	r1, r0, #1
 111 0082 38BF     		it	cc
 112 0084 0021     		movcc	r1, #0
 113 0086 0220     		movs	r0, #2
 114              	.LVL14:
ARM GAS  /tmp/cce4pmgX.s 			page 3


 115 0088 FFF7FEFF 		bl	_test_assert
 116              	.LVL15:
 117 008c 68B9     		cbnz	r0, .L1
 118              	.LVL16:
 119              		.loc 1 103 0
 120 008e 4121     		movs	r1, #65
 121 0090 2046     		mov	r0, r4
 122 0092 4FF0FF32 		mov	r2, #-1
 123 0096 FFF7FEFF 		bl	chMBPostAhead
 124              	.LVL17:
 125              		.loc 1 104 0
 126 009a D0F10101 		rsbs	r1, r0, #1
 127 009e 38BF     		it	cc
 128 00a0 0021     		movcc	r1, #0
 129 00a2 0320     		movs	r0, #3
 130              	.LVL18:
 131 00a4 FFF7FEFF 		bl	_test_assert
 132              	.LVL19:
 133 00a8 08B1     		cbz	r0, .L29
 134              	.LVL20:
 135              	.L1:
 136              		.loc 1 231 0
 137 00aa 03B0     		add	sp, sp, #12
 138 00ac F0BD     		pop	{r4, r5, r6, r7, pc}
 139              	.LVL21:
 140              	.L29:
 141              		.loc 1 109 0
 142 00ae 5821     		movs	r1, #88
 143 00b0 0122     		movs	r2, #1
 144 00b2 2046     		mov	r0, r4
 145 00b4 FFF7FEFF 		bl	chMBPost
 146              	.LVL22:
 147              		.loc 1 110 0
 148 00b8 B0F1FF30 		subs	r0, r0, #-1
 149              	.LVL23:
 150 00bc 4342     		rsbs	r3, r0, #0
 151 00be 53EB0001 		adcs	r1, r3, r0
 152 00c2 0420     		movs	r0, #4
 153              	.LVL24:
 154 00c4 FFF7FEFF 		bl	_test_assert
 155              	.LVL25:
 156 00c8 0546     		mov	r5, r0
 157 00ca 0028     		cmp	r0, #0
 158 00cc EDD1     		bne	.L1
 159              	.LBB2:
 160              		.loc 1 111 0
 161 00ce 2023     		movs	r3, #32
 162              	.LVL26:
 163              	@ 111 "/home/formica/chibios/chibios/test/testmbox.c" 1
 164 00d0 83F31188 		msr     BASEPRI, r3
 165              	@ 0 "" 2
 166              	.LVL27:
 167              		.thumb
 168              	.LBE2:
 169 00d4 FFF7FEFF 		bl	dbg_check_lock
 170              	.LVL28:
 171              		.loc 1 112 0
ARM GAS  /tmp/cce4pmgX.s 			page 4


 172 00d8 5821     		movs	r1, #88
 173 00da 2046     		mov	r0, r4
 174 00dc FFF7FEFF 		bl	chMBPostI
 175              	.LVL29:
 176 00e0 0646     		mov	r6, r0
 177              	.LVL30:
 178              		.loc 1 113 0
 179 00e2 FFF7FEFF 		bl	dbg_check_unlock
 180              	.LVL31:
 181              	.LBB3:
 182 00e6 2B46     		mov	r3, r5
 183              	.LVL32:
 184              	@ 113 "/home/formica/chibios/chibios/test/testmbox.c" 1
 185 00e8 83F31188 		msr     BASEPRI, r3
 186              	@ 0 "" 2
 187              	.LVL33:
 188              		.thumb
 189              	.LBE3:
 190              		.loc 1 114 0
 191 00ec 0520     		movs	r0, #5
 192 00ee B6F1FF32 		subs	r2, r6, #-1
 193 00f2 5142     		rsbs	r1, r2, #0
 194 00f4 5141     		adcs	r1, r1, r2
 195 00f6 FFF7FEFF 		bl	_test_assert
 196              	.LVL34:
 197 00fa 0028     		cmp	r0, #0
 198 00fc D5D1     		bne	.L1
 199              		.loc 1 115 0
 200 00fe 5821     		movs	r1, #88
 201 0100 0122     		movs	r2, #1
 202 0102 2046     		mov	r0, r4
 203 0104 FFF7FEFF 		bl	chMBPostAhead
 204              	.LVL35:
 205              		.loc 1 116 0
 206 0108 B0F1FF35 		subs	r5, r0, #-1
 207 010c 6842     		rsbs	r0, r5, #0
 208              	.LVL36:
 209 010e 50EB0501 		adcs	r1, r0, r5
 210 0112 0620     		movs	r0, #6
 211 0114 FFF7FEFF 		bl	_test_assert
 212              	.LVL37:
 213 0118 0546     		mov	r5, r0
 214              	.LVL38:
 215 011a 0028     		cmp	r0, #0
 216 011c C5D1     		bne	.L1
 217              	.LBB4:
 218              		.loc 1 117 0
 219 011e 2023     		movs	r3, #32
 220              	.LVL39:
 221              	@ 117 "/home/formica/chibios/chibios/test/testmbox.c" 1
 222 0120 83F31188 		msr     BASEPRI, r3
 223              	@ 0 "" 2
 224              	.LVL40:
 225              		.thumb
 226              	.LBE4:
 227 0124 FFF7FEFF 		bl	dbg_check_lock
 228              	.LVL41:
ARM GAS  /tmp/cce4pmgX.s 			page 5


 229              		.loc 1 118 0
 230 0128 5821     		movs	r1, #88
 231 012a 2046     		mov	r0, r4
 232 012c FFF7FEFF 		bl	chMBPostAheadI
 233              	.LVL42:
 234 0130 0646     		mov	r6, r0
 235              	.LVL43:
 236              		.loc 1 119 0
 237 0132 FFF7FEFF 		bl	dbg_check_unlock
 238              	.LVL44:
 239              	.LBB5:
 240 0136 2B46     		mov	r3, r5
 241              	.LVL45:
 242              	@ 119 "/home/formica/chibios/chibios/test/testmbox.c" 1
 243 0138 83F31188 		msr     BASEPRI, r3
 244              	@ 0 "" 2
 245              	.LVL46:
 246              		.thumb
 247              	.LBE5:
 248              		.loc 1 120 0
 249 013c 0720     		movs	r0, #7
 250 013e B6F1FF3C 		subs	ip, r6, #-1
 251 0142 DCF10003 		rsbs	r3, ip, #0
 252              	.LVL47:
 253 0146 53EB0C01 		adcs	r1, r3, ip
 254 014a FFF7FEFF 		bl	_test_assert
 255              	.LVL48:
 256 014e 0028     		cmp	r0, #0
 257 0150 ABD1     		bne	.L1
 258              	.LBB6:
 259              		.loc 1 125 0
 260 0152 2023     		movs	r3, #32
 261              	.LVL49:
 262              	@ 125 "/home/formica/chibios/chibios/test/testmbox.c" 1
 263 0154 83F31188 		msr     BASEPRI, r3
 264              	@ 0 "" 2
 265              	.LVL50:
 266              		.thumb
 267              	.LBE6:
 268 0158 FFF7FEFF 		bl	dbg_check_lock
 269              	.LVL51:
 270 015c 666A     		ldr	r6, [r4, #36]
 271              	.LVL52:
 272 015e 0820     		movs	r0, #8
 273 0160 D6F10101 		rsbs	r1, r6, #1
 274 0164 38BF     		it	cc
 275 0166 0021     		movcc	r1, #0
 276 0168 FFF7FEFF 		bl	_test_assert
 277              	.LVL53:
 278 016c 2646     		mov	r6, r4
 279 016e 0746     		mov	r7, r0
 280 0170 68BB     		cbnz	r0, .L20
 281              		.loc 1 125 0 is_stmt 0 discriminator 2
 282 0172 FFF7FEFF 		bl	dbg_check_unlock
 283              	.LVL54:
 284              	.LBB7:
 285 0176 3B46     		mov	r3, r7
ARM GAS  /tmp/cce4pmgX.s 			page 6


 286              	.LVL55:
 287              	@ 125 "/home/formica/chibios/chibios/test/testmbox.c" 1
 288 0178 83F31188 		msr     BASEPRI, r3
 289              	@ 0 "" 2
 290              	.LVL56:
 291              		.thumb
 292              	.LBE7:
 293              	.LBB8:
 294              		.loc 1 126 0 is_stmt 1 discriminator 2
 295 017c 2023     		movs	r3, #32
 296              	.LVL57:
 297              	@ 126 "/home/formica/chibios/chibios/test/testmbox.c" 1
 298 017e 83F31188 		msr     BASEPRI, r3
 299              	@ 0 "" 2
 300              	.LVL58:
 301              		.thumb
 302              	.LBE8:
 303 0182 FFF7FEFF 		bl	dbg_check_lock
 304              	.LVL59:
 305 0186 A269     		ldr	r2, [r4, #24]
 306 0188 0920     		movs	r0, #9
 307 018a B2F1050E 		subs	lr, r2, #5
 308 018e DEF10001 		rsbs	r1, lr, #0
 309 0192 51EB0E01 		adcs	r1, r1, lr
 310 0196 FFF7FEFF 		bl	_test_assert
 311              	.LVL60:
 312 019a 0546     		mov	r5, r0
 313 019c 00B3     		cbz	r0, .L5
 314              		.loc 1 126 0 is_stmt 0 discriminator 1
 315 019e FFF7FEFF 		bl	dbg_check_unlock
 316              	.LVL61:
 317              	.LBB9:
 318 01a2 3B46     		mov	r3, r7
 319              	@ 126 "/home/formica/chibios/chibios/test/testmbox.c" 1
 320 01a4 83F31188 		msr     BASEPRI, r3
 321              	@ 0 "" 2
 322              	.LVL62:
 323              		.thumb
 324 01a8 7FE7     		b	.L1
 325              	.LVL63:
 326              	.L19:
 327              	.LBE9:
 328              		.loc 1 229 0 is_stmt 1 discriminator 2
 329 01aa FFF7FEFF 		bl	dbg_check_unlock
 330              	.LVL64:
 331              	.LBB10:
 332 01ae 2346     		mov	r3, r4
 333              	.LVL65:
 334              	@ 229 "/home/formica/chibios/chibios/test/testmbox.c" 1
 335 01b0 83F31188 		msr     BASEPRI, r3
 336              	@ 0 "" 2
 337              	.LVL66:
 338              		.thumb
 339              	.LBE10:
 340              	.LBB11:
 341              		.loc 1 230 0 discriminator 2
 342 01b4 2023     		movs	r3, #32
ARM GAS  /tmp/cce4pmgX.s 			page 7


 343              	.LVL67:
 344              	@ 230 "/home/formica/chibios/chibios/test/testmbox.c" 1
 345 01b6 83F31188 		msr     BASEPRI, r3
 346              	@ 0 "" 2
 347              	.LVL68:
 348              		.thumb
 349              	.LBE11:
 350 01ba FFF7FEFF 		bl	dbg_check_lock
 351              	.LVL69:
 352 01be 2968     		ldr	r1, [r5, #0]
 353 01c0 EB68     		ldr	r3, [r5, #12]
 354 01c2 2F20     		movs	r0, #47
 355 01c4 CA1A     		subs	r2, r1, r3
 356 01c6 5142     		rsbs	r1, r2, #0
 357 01c8 5141     		adcs	r1, r1, r2
 358 01ca FFF7FEFF 		bl	_test_assert
 359              	.LVL70:
 360              	.L20:
 361 01ce FFF7FEFF 		bl	dbg_check_unlock
 362              	.LVL71:
 363              	.LBB12:
 364 01d2 0023     		movs	r3, #0
 365              	@ 230 "/home/formica/chibios/chibios/test/testmbox.c" 1
 366 01d4 83F31188 		msr     BASEPRI, r3
 367              	@ 0 "" 2
 368              	.LVL72:
 369              		.thumb
 370 01d8 67E7     		b	.L1
 371              	.L31:
 372 01da 00BF     		.align	2
 373              	.L30:
 374 01dc 00000000 		.word	.LANCHOR0
 375              	.LVL73:
 376              	.L5:
 377              	.LBE12:
 378              		.loc 1 126 0 discriminator 2
 379 01e0 FFF7FEFF 		bl	dbg_check_unlock
 380              	.LVL74:
 381              	.LBB13:
 382 01e4 2B46     		mov	r3, r5
 383              	.LVL75:
 384              	@ 126 "/home/formica/chibios/chibios/test/testmbox.c" 1
 385 01e6 83F31188 		msr     BASEPRI, r3
 386              	@ 0 "" 2
 387              	.LVL76:
 388              		.thumb
 389              	.LBE13:
 390              	.LBB14:
 391              		.loc 1 127 0 discriminator 2
 392 01ea 2023     		movs	r3, #32
 393              	.LVL77:
 394              	@ 127 "/home/formica/chibios/chibios/test/testmbox.c" 1
 395 01ec 83F31188 		msr     BASEPRI, r3
 396              	@ 0 "" 2
 397              	.LVL78:
 398              		.thumb
 399              	.LBE14:
ARM GAS  /tmp/cce4pmgX.s 			page 8


 400 01f0 FFF7FEFF 		bl	dbg_check_lock
 401              	.LVL79:
 402 01f4 E268     		ldr	r2, [r4, #12]
 403 01f6 A368     		ldr	r3, [r4, #8]
 404 01f8 0A20     		movs	r0, #10
 405 01fa D61A     		subs	r6, r2, r3
 406 01fc 7142     		rsbs	r1, r6, #0
 407 01fe 7141     		adcs	r1, r1, r6
 408 0200 FFF7FEFF 		bl	_test_assert
 409              	.LVL80:
 410 0204 0646     		mov	r6, r0
 411 0206 0028     		cmp	r0, #0
 412 0208 40F08982 		bne	.L27
 413 020c FFF7FEFF 		bl	dbg_check_unlock
 414              	.LVL81:
 415              	.LBB15:
 416 0210 3346     		mov	r3, r6
 417              	.LVL82:
 418              	@ 127 "/home/formica/chibios/chibios/test/testmbox.c" 1
 419 0212 83F31188 		msr     BASEPRI, r3
 420              	@ 0 "" 2
 421              	.LVL83:
 422              		.thumb
 423 0216 0526     		movs	r6, #5
 424              	.LVL84:
 425              	.L7:
 426              	.LBE15:
 427              		.loc 1 133 0
 428 0218 C84D     		ldr	r5, .L32
 429 021a 01A9     		add	r1, sp, #4
 430 021c 4FF0FF32 		mov	r2, #-1
 431 0220 2846     		mov	r0, r5
 432 0222 FFF7FEFF 		bl	chMBFetch
 433              	.LVL85:
 434              		.loc 1 134 0
 435 0226 D0F10101 		rsbs	r1, r0, #1
 436 022a 38BF     		it	cc
 437 022c 0021     		movcc	r1, #0
 438 022e 0B20     		movs	r0, #11
 439              	.LVL86:
 440 0230 FFF7FEFF 		bl	_test_assert
 441              	.LVL87:
 442 0234 0028     		cmp	r0, #0
 443 0236 7FF438AF 		bne	.L1
 444              		.loc 1 135 0
 445 023a 9DF80400 		ldrb	r0, [sp, #4]	@ zero_extendqisi2
 446 023e FFF7FEFF 		bl	test_emit_token
 447              	.LVL88:
 448              		.loc 1 132 0
 449 0242 013E     		subs	r6, r6, #1
 450 0244 E8D1     		bne	.L7
 451              		.loc 1 137 0
 452 0246 0C20     		movs	r0, #12
 453 0248 BD49     		ldr	r1, .L32+4
 454 024a FFF7FEFF 		bl	_test_assert_sequence
 455              	.LVL89:
 456 024e 0028     		cmp	r0, #0
ARM GAS  /tmp/cce4pmgX.s 			page 9


 457 0250 7FF42BAF 		bne	.L1
 458              		.loc 1 142 0
 459 0254 4721     		movs	r1, #71
 460 0256 2846     		mov	r0, r5
 461 0258 4FF0FF32 		mov	r2, #-1
 462 025c FFF7FEFF 		bl	chMBPost
 463              	.LVL90:
 464              		.loc 1 143 0
 465 0260 D0F10101 		rsbs	r1, r0, #1
 466 0264 38BF     		it	cc
 467 0266 0021     		movcc	r1, #0
 468 0268 0D20     		movs	r0, #13
 469              	.LVL91:
 470 026a FFF7FEFF 		bl	_test_assert
 471              	.LVL92:
 472 026e 0028     		cmp	r0, #0
 473 0270 7FF41BAF 		bne	.L1
 474              		.loc 1 144 0
 475 0274 01A9     		add	r1, sp, #4
 476 0276 2846     		mov	r0, r5
 477 0278 4FF0FF32 		mov	r2, #-1
 478 027c FFF7FEFF 		bl	chMBFetch
 479              	.LVL93:
 480              		.loc 1 145 0
 481 0280 D0F10101 		rsbs	r1, r0, #1
 482 0284 38BF     		it	cc
 483 0286 0021     		movcc	r1, #0
 484 0288 0E20     		movs	r0, #14
 485              	.LVL94:
 486 028a FFF7FEFF 		bl	_test_assert
 487              	.LVL95:
 488 028e 0028     		cmp	r0, #0
 489 0290 7FF40BAF 		bne	.L1
 490              		.loc 1 146 0
 491 0294 2A68     		ldr	r2, [r5, #0]
 492 0296 AB68     		ldr	r3, [r5, #8]
 493 0298 0F20     		movs	r0, #15
 494 029a D21A     		subs	r2, r2, r3
 495 029c 5142     		rsbs	r1, r2, #0
 496 029e 5141     		adcs	r1, r1, r2
 497 02a0 FFF7FEFF 		bl	_test_assert
 498              	.LVL96:
 499 02a4 0028     		cmp	r0, #0
 500 02a6 7FF400AF 		bne	.L1
 501              		.loc 1 147 0
 502 02aa 2A68     		ldr	r2, [r5, #0]
 503 02ac EB68     		ldr	r3, [r5, #12]
 504 02ae 1020     		movs	r0, #16
 505 02b0 D21A     		subs	r2, r2, r3
 506 02b2 5142     		rsbs	r1, r2, #0
 507 02b4 5141     		adcs	r1, r1, r2
 508 02b6 FFF7FEFF 		bl	_test_assert
 509              	.LVL97:
 510 02ba 0028     		cmp	r0, #0
 511 02bc 7FF4F5AE 		bne	.L1
 512              		.loc 1 152 0
 513 02c0 01A9     		add	r1, sp, #4
ARM GAS  /tmp/cce4pmgX.s 			page 10


 514 02c2 0122     		movs	r2, #1
 515 02c4 2846     		mov	r0, r5
 516 02c6 FFF7FEFF 		bl	chMBFetch
 517              	.LVL98:
 518              		.loc 1 153 0
 519 02ca B0F1FF30 		subs	r0, r0, #-1
 520              	.LVL99:
 521 02ce 4342     		rsbs	r3, r0, #0
 522 02d0 53EB0001 		adcs	r1, r3, r0
 523 02d4 1120     		movs	r0, #17
 524              	.LVL100:
 525 02d6 FFF7FEFF 		bl	_test_assert
 526              	.LVL101:
 527 02da 0028     		cmp	r0, #0
 528 02dc 7FF4E5AE 		bne	.L1
 529              	.LBB16:
 530              		.loc 1 154 0
 531 02e0 2023     		movs	r3, #32
 532              	.LVL102:
 533              	@ 154 "/home/formica/chibios/chibios/test/testmbox.c" 1
 534 02e2 83F31188 		msr     BASEPRI, r3
 535              	@ 0 "" 2
 536              	.LVL103:
 537              		.thumb
 538              	.LBE16:
 539 02e6 FFF7FEFF 		bl	dbg_check_lock
 540              	.LVL104:
 541              		.loc 1 155 0
 542 02ea 01A9     		add	r1, sp, #4
 543 02ec 2846     		mov	r0, r5
 544 02ee FFF7FEFF 		bl	chMBFetchI
 545              	.LVL105:
 546 02f2 0746     		mov	r7, r0
 547              	.LVL106:
 548              		.loc 1 156 0
 549 02f4 FFF7FEFF 		bl	dbg_check_unlock
 550              	.LVL107:
 551              	.LBB17:
 552 02f8 3346     		mov	r3, r6
 553              	.LVL108:
 554              	@ 156 "/home/formica/chibios/chibios/test/testmbox.c" 1
 555 02fa 83F31188 		msr     BASEPRI, r3
 556              	@ 0 "" 2
 557              	.LVL109:
 558              		.thumb
 559              	.LBE17:
 560              		.loc 1 157 0
 561 02fe 1220     		movs	r0, #18
 562 0300 B7F1FF3C 		subs	ip, r7, #-1
 563 0304 DCF10002 		rsbs	r2, ip, #0
 564 0308 52EB0C01 		adcs	r1, r2, ip
 565 030c FFF7FEFF 		bl	_test_assert
 566              	.LVL110:
 567 0310 0028     		cmp	r0, #0
 568 0312 7FF4CAAE 		bne	.L1
 569              	.LBB18:
 570              		.loc 1 162 0
ARM GAS  /tmp/cce4pmgX.s 			page 11


 571 0316 2023     		movs	r3, #32
 572              	.LVL111:
 573              	@ 162 "/home/formica/chibios/chibios/test/testmbox.c" 1
 574 0318 83F31188 		msr     BASEPRI, r3
 575              	@ 0 "" 2
 576              	.LVL112:
 577              		.thumb
 578              	.LBE18:
 579 031c FFF7FEFF 		bl	dbg_check_lock
 580              	.LVL113:
 581 0320 696A     		ldr	r1, [r5, #36]
 582 0322 1320     		movs	r0, #19
 583 0324 4B1F     		subs	r3, r1, #5
 584 0326 5A42     		rsbs	r2, r3, #0
 585 0328 52EB0301 		adcs	r1, r2, r3
 586 032c FFF7FEFF 		bl	_test_assert
 587              	.LVL114:
 588 0330 0028     		cmp	r0, #0
 589 0332 7FF44CAF 		bne	.L20
 590              		.loc 1 162 0 is_stmt 0 discriminator 2
 591 0336 FFF7FEFF 		bl	dbg_check_unlock
 592              	.LVL115:
 593              	.LBB19:
 594 033a 0023     		movs	r3, #0
 595              	.LVL116:
 596              	@ 162 "/home/formica/chibios/chibios/test/testmbox.c" 1
 597 033c 83F31188 		msr     BASEPRI, r3
 598              	@ 0 "" 2
 599              	.LVL117:
 600              		.thumb
 601              	.LBE19:
 602              	.LBB20:
 603              		.loc 1 163 0 is_stmt 1 discriminator 2
 604 0340 2023     		movs	r3, #32
 605              	.LVL118:
 606              	@ 163 "/home/formica/chibios/chibios/test/testmbox.c" 1
 607 0342 83F31188 		msr     BASEPRI, r3
 608              	@ 0 "" 2
 609              	.LVL119:
 610              		.thumb
 611              	.LBE20:
 612 0346 FFF7FEFF 		bl	dbg_check_lock
 613              	.LVL120:
 614 034a A469     		ldr	r4, [r4, #24]
 615 034c 1420     		movs	r0, #20
 616 034e D4F10101 		rsbs	r1, r4, #1
 617 0352 38BF     		it	cc
 618 0354 0021     		movcc	r1, #0
 619 0356 FFF7FEFF 		bl	_test_assert
 620              	.LVL121:
 621 035a 784C     		ldr	r4, .L32
 622 035c 0546     		mov	r5, r0
 623 035e 0028     		cmp	r0, #0
 624 0360 7FF435AF 		bne	.L20
 625 0364 FFF7FEFF 		bl	dbg_check_unlock
 626              	.LVL122:
 627              	.LBB21:
ARM GAS  /tmp/cce4pmgX.s 			page 12


 628 0368 2B46     		mov	r3, r5
 629              	.LVL123:
 630              	@ 163 "/home/formica/chibios/chibios/test/testmbox.c" 1
 631 036a 83F31188 		msr     BASEPRI, r3
 632              	@ 0 "" 2
 633              	.LVL124:
 634              		.thumb
 635              	.LBE21:
 636              	.LBB22:
 637              		.loc 1 164 0 discriminator 2
 638 036e 2023     		movs	r3, #32
 639              	.LVL125:
 640              	@ 164 "/home/formica/chibios/chibios/test/testmbox.c" 1
 641 0370 83F31188 		msr     BASEPRI, r3
 642              	@ 0 "" 2
 643              	.LVL126:
 644              		.thumb
 645              	.LBE22:
 646 0374 FFF7FEFF 		bl	dbg_check_lock
 647              	.LVL127:
 648 0378 E668     		ldr	r6, [r4, #12]
 649 037a A168     		ldr	r1, [r4, #8]
 650 037c 1520     		movs	r0, #21
 651 037e 731A     		subs	r3, r6, r1
 652 0380 5A42     		rsbs	r2, r3, #0
 653 0382 52EB0301 		adcs	r1, r2, r3
 654 0386 FFF7FEFF 		bl	_test_assert
 655              	.LVL128:
 656 038a 0646     		mov	r6, r0
 657 038c 0028     		cmp	r0, #0
 658 038e 40F0C681 		bne	.L27
 659 0392 FFF7FEFF 		bl	dbg_check_unlock
 660              	.LVL129:
 661              	.LBB23:
 662 0396 3346     		mov	r3, r6
 663              	.LVL130:
 664              	@ 164 "/home/formica/chibios/chibios/test/testmbox.c" 1
 665 0398 83F31188 		msr     BASEPRI, r3
 666              	@ 0 "" 2
 667              	.LVL131:
 668              		.thumb
 669              	.LBE23:
 670              	.LBB24:
 671              		.loc 1 169 0 discriminator 2
 672 039c 2023     		movs	r3, #32
 673              	.LVL132:
 674              	@ 169 "/home/formica/chibios/chibios/test/testmbox.c" 1
 675 039e 83F31188 		msr     BASEPRI, r3
 676              	@ 0 "" 2
 677              	.LVL133:
 678              		.thumb
 679              	.LBE24:
 680 03a2 FFF7FEFF 		bl	dbg_check_lock
 681              	.LVL134:
 682              		.loc 1 170 0 discriminator 2
 683 03a6 4121     		movs	r1, #65
 684 03a8 2046     		mov	r0, r4
ARM GAS  /tmp/cce4pmgX.s 			page 13


 685 03aa FFF7FEFF 		bl	chMBPostI
 686              	.LVL135:
 687              		.loc 1 171 0 discriminator 2
 688 03ae D0F10101 		rsbs	r1, r0, #1
 689 03b2 38BF     		it	cc
 690 03b4 0021     		movcc	r1, #0
 691 03b6 1620     		movs	r0, #22
 692              	.LVL136:
 693 03b8 FFF7FEFF 		bl	_test_assert
 694              	.LVL137:
 695 03bc 0028     		cmp	r0, #0
 696 03be 7FF474AE 		bne	.L1
 697              		.loc 1 172 0
 698 03c2 4221     		movs	r1, #66
 699 03c4 2046     		mov	r0, r4
 700 03c6 FFF7FEFF 		bl	chMBPostI
 701              	.LVL138:
 702              		.loc 1 173 0
 703 03ca D0F10101 		rsbs	r1, r0, #1
 704 03ce 38BF     		it	cc
 705 03d0 0021     		movcc	r1, #0
 706 03d2 1720     		movs	r0, #23
 707              	.LVL139:
 708 03d4 FFF7FEFF 		bl	_test_assert
 709              	.LVL140:
 710 03d8 0028     		cmp	r0, #0
 711 03da 7FF466AE 		bne	.L1
 712              		.loc 1 174 0
 713 03de 4321     		movs	r1, #67
 714 03e0 2046     		mov	r0, r4
 715 03e2 FFF7FEFF 		bl	chMBPostI
 716              	.LVL141:
 717              		.loc 1 175 0
 718 03e6 D0F10101 		rsbs	r1, r0, #1
 719 03ea 38BF     		it	cc
 720 03ec 0021     		movcc	r1, #0
 721 03ee 1820     		movs	r0, #24
 722              	.LVL142:
 723 03f0 FFF7FEFF 		bl	_test_assert
 724              	.LVL143:
 725 03f4 0028     		cmp	r0, #0
 726 03f6 7FF458AE 		bne	.L1
 727              		.loc 1 176 0
 728 03fa 4421     		movs	r1, #68
 729 03fc 2046     		mov	r0, r4
 730 03fe FFF7FEFF 		bl	chMBPostI
 731              	.LVL144:
 732              		.loc 1 177 0
 733 0402 D0F10101 		rsbs	r1, r0, #1
 734 0406 38BF     		it	cc
 735 0408 0021     		movcc	r1, #0
 736 040a 1920     		movs	r0, #25
 737              	.LVL145:
 738 040c FFF7FEFF 		bl	_test_assert
 739              	.LVL146:
 740 0410 0546     		mov	r5, r0
 741 0412 0028     		cmp	r0, #0
ARM GAS  /tmp/cce4pmgX.s 			page 14


 742 0414 7FF449AE 		bne	.L1
 743              		.loc 1 178 0
 744 0418 4521     		movs	r1, #69
 745 041a 2046     		mov	r0, r4
 746 041c FFF7FEFF 		bl	chMBPostI
 747              	.LVL147:
 748 0420 0646     		mov	r6, r0
 749              	.LVL148:
 750              		.loc 1 179 0
 751 0422 FFF7FEFF 		bl	dbg_check_unlock
 752              	.LVL149:
 753              	.LBB25:
 754 0426 2B46     		mov	r3, r5
 755              	.LVL150:
 756              	@ 179 "/home/formica/chibios/chibios/test/testmbox.c" 1
 757 0428 83F31188 		msr     BASEPRI, r3
 758              	@ 0 "" 2
 759              	.LVL151:
 760              		.thumb
 761              	.LBE25:
 762              		.loc 1 180 0
 763 042c 1A20     		movs	r0, #26
 764 042e D6F10101 		rsbs	r1, r6, #1
 765 0432 38BF     		it	cc
 766 0434 0021     		movcc	r1, #0
 767 0436 FFF7FEFF 		bl	_test_assert
 768              	.LVL152:
 769 043a 0028     		cmp	r0, #0
 770 043c 7FF435AE 		bne	.L1
 771              		.loc 1 181 0
 772 0440 E168     		ldr	r1, [r4, #12]
 773 0442 A368     		ldr	r3, [r4, #8]
 774 0444 1B20     		movs	r0, #27
 775 0446 B1EB030E 		subs	lr, r1, r3
 776 044a DEF10002 		rsbs	r2, lr, #0
 777 044e 52EB0E01 		adcs	r1, r2, lr
 778 0452 FFF7FEFF 		bl	_test_assert
 779              	.LVL153:
 780 0456 0028     		cmp	r0, #0
 781 0458 7FF427AE 		bne	.L1
 782 045c 0525     		movs	r5, #5
 783              	.L11:
 784              	.LBB26:
 785              		.loc 1 183 0
 786 045e 2023     		movs	r3, #32
 787              	.LVL154:
 788              	@ 183 "/home/formica/chibios/chibios/test/testmbox.c" 1
 789 0460 83F31188 		msr     BASEPRI, r3
 790              	@ 0 "" 2
 791              	.LVL155:
 792              		.thumb
 793              	.LBE26:
 794              		.loc 1 184 0
 795 0464 354C     		ldr	r4, .L32
 796              		.loc 1 183 0
 797 0466 FFF7FEFF 		bl	dbg_check_lock
 798              	.LVL156:
ARM GAS  /tmp/cce4pmgX.s 			page 15


 799              		.loc 1 184 0
 800 046a 01A9     		add	r1, sp, #4
 801 046c 2046     		mov	r0, r4
 802 046e FFF7FEFF 		bl	chMBFetchI
 803              	.LVL157:
 804 0472 0646     		mov	r6, r0
 805              	.LVL158:
 806              		.loc 1 185 0
 807 0474 FFF7FEFF 		bl	dbg_check_unlock
 808              	.LVL159:
 809              	.LBB27:
 810 0478 0023     		movs	r3, #0
 811              	.LVL160:
 812              	@ 185 "/home/formica/chibios/chibios/test/testmbox.c" 1
 813 047a 83F31188 		msr     BASEPRI, r3
 814              	@ 0 "" 2
 815              	.LVL161:
 816              		.thumb
 817              	.LBE27:
 818              		.loc 1 186 0
 819 047e 1C20     		movs	r0, #28
 820 0480 F31A     		subs	r3, r6, r3
 821              	.LVL162:
 822 0482 5942     		rsbs	r1, r3, #0
 823 0484 5941     		adcs	r1, r1, r3
 824 0486 FFF7FEFF 		bl	_test_assert
 825              	.LVL163:
 826 048a 0028     		cmp	r0, #0
 827 048c 7FF40DAE 		bne	.L1
 828              		.loc 1 187 0
 829 0490 9DF80400 		ldrb	r0, [sp, #4]	@ zero_extendqisi2
 830 0494 FFF7FEFF 		bl	test_emit_token
 831              	.LVL164:
 832              		.loc 1 182 0
 833 0498 013D     		subs	r5, r5, #1
 834 049a E0D1     		bne	.L11
 835              		.loc 1 189 0
 836 049c 1D20     		movs	r0, #29
 837 049e 2849     		ldr	r1, .L32+4
 838 04a0 FFF7FEFF 		bl	_test_assert_sequence
 839              	.LVL165:
 840 04a4 0028     		cmp	r0, #0
 841 04a6 7FF400AE 		bne	.L1
 842              	.LBB28:
 843              		.loc 1 190 0
 844 04aa 2023     		movs	r3, #32
 845              	.LVL166:
 846              	@ 190 "/home/formica/chibios/chibios/test/testmbox.c" 1
 847 04ac 83F31188 		msr     BASEPRI, r3
 848              	@ 0 "" 2
 849              	.LVL167:
 850              		.thumb
 851              	.LBE28:
 852 04b0 FFF7FEFF 		bl	dbg_check_lock
 853              	.LVL168:
 854 04b4 626A     		ldr	r2, [r4, #36]
 855 04b6 1E20     		movs	r0, #30
ARM GAS  /tmp/cce4pmgX.s 			page 16


 856 04b8 531F     		subs	r3, r2, #5
 857 04ba 5942     		rsbs	r1, r3, #0
 858 04bc 5941     		adcs	r1, r1, r3
 859 04be FFF7FEFF 		bl	_test_assert
 860              	.LVL169:
 861 04c2 0028     		cmp	r0, #0
 862 04c4 40F02B81 		bne	.L27
 863              		.loc 1 190 0 is_stmt 0 discriminator 2
 864 04c8 FFF7FEFF 		bl	dbg_check_unlock
 865              	.LVL170:
 866              	.LBB29:
 867 04cc 2B46     		mov	r3, r5
 868              	.LVL171:
 869              	@ 190 "/home/formica/chibios/chibios/test/testmbox.c" 1
 870 04ce 83F31188 		msr     BASEPRI, r3
 871              	@ 0 "" 2
 872              	.LVL172:
 873              		.thumb
 874              	.LBE29:
 875              	.LBB30:
 876              		.loc 1 191 0 is_stmt 1 discriminator 2
 877 04d2 2023     		movs	r3, #32
 878              	.LVL173:
 879              	@ 191 "/home/formica/chibios/chibios/test/testmbox.c" 1
 880 04d4 83F31188 		msr     BASEPRI, r3
 881              	@ 0 "" 2
 882              	.LVL174:
 883              		.thumb
 884              	.LBE30:
 885 04d8 FFF7FEFF 		bl	dbg_check_lock
 886              	.LVL175:
 887 04dc A269     		ldr	r2, [r4, #24]
 888 04de 1F20     		movs	r0, #31
 889 04e0 D2F10101 		rsbs	r1, r2, #1
 890 04e4 38BF     		it	cc
 891 04e6 0021     		movcc	r1, #0
 892 04e8 FFF7FEFF 		bl	_test_assert
 893              	.LVL176:
 894 04ec 0028     		cmp	r0, #0
 895 04ee 40F01681 		bne	.L27
 896 04f2 FFF7FEFF 		bl	dbg_check_unlock
 897              	.LVL177:
 898              	.LBB31:
 899 04f6 2B46     		mov	r3, r5
 900              	.LVL178:
 901              	@ 191 "/home/formica/chibios/chibios/test/testmbox.c" 1
 902 04f8 83F31188 		msr     BASEPRI, r3
 903              	@ 0 "" 2
 904              	.LVL179:
 905              		.thumb
 906              	.LBE31:
 907              		.loc 1 192 0 discriminator 2
 908 04fc E168     		ldr	r1, [r4, #12]
 909 04fe A368     		ldr	r3, [r4, #8]
 910              	.LVL180:
 911 0500 2020     		movs	r0, #32
 912 0502 CA1A     		subs	r2, r1, r3
ARM GAS  /tmp/cce4pmgX.s 			page 17


 913 0504 5142     		rsbs	r1, r2, #0
 914 0506 5141     		adcs	r1, r1, r2
 915 0508 FFF7FEFF 		bl	_test_assert
 916              	.LVL181:
 917 050c 0028     		cmp	r0, #0
 918 050e 7FF4CCAD 		bne	.L1
 919              	.LBB32:
 920              		.loc 1 194 0
 921 0512 2023     		movs	r3, #32
 922              	.LVL182:
 923              	@ 194 "/home/formica/chibios/chibios/test/testmbox.c" 1
 924 0514 83F31188 		msr     BASEPRI, r3
 925              	@ 0 "" 2
 926              	.LVL183:
 927              		.thumb
 928              	.LBE32:
 929 0518 FFF7FEFF 		bl	dbg_check_lock
 930              	.LVL184:
 931              		.loc 1 195 0
 932 051c 4521     		movs	r1, #69
 933 051e 2046     		mov	r0, r4
 934 0520 FFF7FEFF 		bl	chMBPostAheadI
 935              	.LVL185:
 936              		.loc 1 196 0
 937 0524 D0F10101 		rsbs	r1, r0, #1
 938 0528 38BF     		it	cc
 939 052a 0021     		movcc	r1, #0
 940 052c 2120     		movs	r0, #33
 941              	.LVL186:
 942 052e FFF7FEFF 		bl	_test_assert
 943              	.LVL187:
 944 0532 0028     		cmp	r0, #0
 945 0534 7FF4B9AD 		bne	.L1
 946 0538 04E0     		b	.L33
 947              	.L34:
 948 053a 00BF     		.align	2
 949              	.L32:
 950 053c 00000000 		.word	.LANCHOR0
 951 0540 00000000 		.word	.LC0
 952              	.L33:
 953              		.loc 1 197 0
 954 0544 4421     		movs	r1, #68
 955 0546 2046     		mov	r0, r4
 956 0548 FFF7FEFF 		bl	chMBPostAheadI
 957              	.LVL188:
 958              		.loc 1 198 0
 959 054c D0F10101 		rsbs	r1, r0, #1
 960 0550 38BF     		it	cc
 961 0552 0021     		movcc	r1, #0
 962 0554 2220     		movs	r0, #34
 963              	.LVL189:
 964 0556 FFF7FEFF 		bl	_test_assert
 965              	.LVL190:
 966 055a 0028     		cmp	r0, #0
 967 055c 7FF4A5AD 		bne	.L1
 968              		.loc 1 199 0
 969 0560 4321     		movs	r1, #67
ARM GAS  /tmp/cce4pmgX.s 			page 18


 970 0562 2046     		mov	r0, r4
 971 0564 FFF7FEFF 		bl	chMBPostAheadI
 972              	.LVL191:
 973              		.loc 1 200 0
 974 0568 D0F10101 		rsbs	r1, r0, #1
 975 056c 38BF     		it	cc
 976 056e 0021     		movcc	r1, #0
 977 0570 2320     		movs	r0, #35
 978              	.LVL192:
 979 0572 FFF7FEFF 		bl	_test_assert
 980              	.LVL193:
 981 0576 0028     		cmp	r0, #0
 982 0578 7FF497AD 		bne	.L1
 983              		.loc 1 201 0
 984 057c 4221     		movs	r1, #66
 985 057e 2046     		mov	r0, r4
 986 0580 FFF7FEFF 		bl	chMBPostAheadI
 987              	.LVL194:
 988              		.loc 1 202 0
 989 0584 D0F10101 		rsbs	r1, r0, #1
 990 0588 38BF     		it	cc
 991 058a 0021     		movcc	r1, #0
 992 058c 2420     		movs	r0, #36
 993              	.LVL195:
 994 058e FFF7FEFF 		bl	_test_assert
 995              	.LVL196:
 996 0592 0028     		cmp	r0, #0
 997 0594 7FF489AD 		bne	.L1
 998              		.loc 1 203 0
 999 0598 644C     		ldr	r4, .L35
 1000 059a 4121     		movs	r1, #65
 1001 059c 2046     		mov	r0, r4
 1002 059e FFF7FEFF 		bl	chMBPostAheadI
 1003              	.LVL197:
 1004 05a2 0546     		mov	r5, r0
 1005              	.LVL198:
 1006              		.loc 1 204 0
 1007 05a4 FFF7FEFF 		bl	dbg_check_unlock
 1008              	.LVL199:
 1009              	.LBB33:
 1010 05a8 0023     		movs	r3, #0
 1011              	.LVL200:
 1012              	@ 204 "/home/formica/chibios/chibios/test/testmbox.c" 1
 1013 05aa 83F31188 		msr     BASEPRI, r3
 1014              	@ 0 "" 2
 1015              	.LVL201:
 1016              		.thumb
 1017              	.LBE33:
 1018              		.loc 1 205 0
 1019 05ae 2520     		movs	r0, #37
 1020 05b0 B5EB030C 		subs	ip, r5, r3
 1021              	.LVL202:
 1022 05b4 DCF10003 		rsbs	r3, ip, #0
 1023 05b8 53EB0C01 		adcs	r1, r3, ip
 1024 05bc FFF7FEFF 		bl	_test_assert
 1025              	.LVL203:
 1026 05c0 0028     		cmp	r0, #0
ARM GAS  /tmp/cce4pmgX.s 			page 19


 1027 05c2 7FF472AD 		bne	.L1
 1028              		.loc 1 206 0
 1029 05c6 A168     		ldr	r1, [r4, #8]
 1030 05c8 E268     		ldr	r2, [r4, #12]
 1031 05ca 2620     		movs	r0, #38
 1032 05cc B2EB010E 		subs	lr, r2, r1
 1033 05d0 DEF10003 		rsbs	r3, lr, #0
 1034 05d4 53EB0E01 		adcs	r1, r3, lr
 1035 05d8 FFF7FEFF 		bl	_test_assert
 1036              	.LVL204:
 1037 05dc 0028     		cmp	r0, #0
 1038 05de 7FF464AD 		bne	.L1
 1039 05e2 0524     		movs	r4, #5
 1040              	.LVL205:
 1041              	.L14:
 1042              	.LBB34:
 1043              		.loc 1 208 0
 1044 05e4 2023     		movs	r3, #32
 1045              	.LVL206:
 1046              	@ 208 "/home/formica/chibios/chibios/test/testmbox.c" 1
 1047 05e6 83F31188 		msr     BASEPRI, r3
 1048              	@ 0 "" 2
 1049              	.LVL207:
 1050              		.thumb
 1051              	.LBE34:
 1052              		.loc 1 209 0
 1053 05ea 504D     		ldr	r5, .L35
 1054              		.loc 1 208 0
 1055 05ec FFF7FEFF 		bl	dbg_check_lock
 1056              	.LVL208:
 1057              		.loc 1 209 0
 1058 05f0 01A9     		add	r1, sp, #4
 1059 05f2 2846     		mov	r0, r5
 1060 05f4 FFF7FEFF 		bl	chMBFetchI
 1061              	.LVL209:
 1062 05f8 0646     		mov	r6, r0
 1063              	.LVL210:
 1064              		.loc 1 210 0
 1065 05fa FFF7FEFF 		bl	dbg_check_unlock
 1066              	.LVL211:
 1067              	.LBB35:
 1068 05fe 0023     		movs	r3, #0
 1069              	.LVL212:
 1070              	@ 210 "/home/formica/chibios/chibios/test/testmbox.c" 1
 1071 0600 83F31188 		msr     BASEPRI, r3
 1072              	@ 0 "" 2
 1073              	.LVL213:
 1074              		.thumb
 1075              	.LBE35:
 1076              		.loc 1 211 0
 1077 0604 2720     		movs	r0, #39
 1078 0606 F21A     		subs	r2, r6, r3
 1079              	.LVL214:
 1080 0608 5142     		rsbs	r1, r2, #0
 1081 060a 5141     		adcs	r1, r1, r2
 1082 060c FFF7FEFF 		bl	_test_assert
 1083              	.LVL215:
ARM GAS  /tmp/cce4pmgX.s 			page 20


 1084 0610 0028     		cmp	r0, #0
 1085 0612 7FF44AAD 		bne	.L1
 1086              		.loc 1 212 0
 1087 0616 9DF80400 		ldrb	r0, [sp, #4]	@ zero_extendqisi2
 1088 061a FFF7FEFF 		bl	test_emit_token
 1089              	.LVL216:
 1090              		.loc 1 207 0
 1091 061e 013C     		subs	r4, r4, #1
 1092 0620 E0D1     		bne	.L14
 1093              		.loc 1 214 0
 1094 0622 2820     		movs	r0, #40
 1095 0624 4249     		ldr	r1, .L35+4
 1096 0626 FFF7FEFF 		bl	_test_assert_sequence
 1097              	.LVL217:
 1098 062a 0028     		cmp	r0, #0
 1099 062c 7FF43DAD 		bne	.L1
 1100              	.LBB36:
 1101              		.loc 1 215 0
 1102 0630 2023     		movs	r3, #32
 1103              	.LVL218:
 1104              	@ 215 "/home/formica/chibios/chibios/test/testmbox.c" 1
 1105 0632 83F31188 		msr     BASEPRI, r3
 1106              	@ 0 "" 2
 1107              	.LVL219:
 1108              		.thumb
 1109              	.LBE36:
 1110 0636 FFF7FEFF 		bl	dbg_check_lock
 1111              	.LVL220:
 1112 063a 6B6A     		ldr	r3, [r5, #36]
 1113 063c 2920     		movs	r0, #41
 1114 063e 5A1F     		subs	r2, r3, #5
 1115 0640 5142     		rsbs	r1, r2, #0
 1116 0642 5141     		adcs	r1, r1, r2
 1117 0644 FFF7FEFF 		bl	_test_assert
 1118              	.LVL221:
 1119 0648 0028     		cmp	r0, #0
 1120 064a 62D1     		bne	.L25
 1121              		.loc 1 215 0 is_stmt 0 discriminator 2
 1122 064c FFF7FEFF 		bl	dbg_check_unlock
 1123              	.LVL222:
 1124              	.LBB37:
 1125 0650 2346     		mov	r3, r4
 1126              	.LVL223:
 1127              	@ 215 "/home/formica/chibios/chibios/test/testmbox.c" 1
 1128 0652 83F31188 		msr     BASEPRI, r3
 1129              	@ 0 "" 2
 1130              	.LVL224:
 1131              		.thumb
 1132              	.LBE37:
 1133              	.LBB38:
 1134              		.loc 1 216 0 is_stmt 1 discriminator 2
 1135 0656 2023     		movs	r3, #32
 1136              	.LVL225:
 1137              	@ 216 "/home/formica/chibios/chibios/test/testmbox.c" 1
 1138 0658 83F31188 		msr     BASEPRI, r3
 1139              	@ 0 "" 2
 1140              	.LVL226:
ARM GAS  /tmp/cce4pmgX.s 			page 21


 1141              		.thumb
 1142              	.LBE38:
 1143 065c FFF7FEFF 		bl	dbg_check_lock
 1144              	.LVL227:
 1145 0660 AB69     		ldr	r3, [r5, #24]
 1146 0662 2A20     		movs	r0, #42
 1147 0664 D3F10101 		rsbs	r1, r3, #1
 1148 0668 38BF     		it	cc
 1149 066a 0021     		movcc	r1, #0
 1150 066c FFF7FEFF 		bl	_test_assert
 1151              	.LVL228:
 1152 0670 0028     		cmp	r0, #0
 1153 0672 4ED1     		bne	.L25
 1154 0674 FFF7FEFF 		bl	dbg_check_unlock
 1155              	.LVL229:
 1156              	.LBB39:
 1157 0678 2346     		mov	r3, r4
 1158              	.LVL230:
 1159              	@ 216 "/home/formica/chibios/chibios/test/testmbox.c" 1
 1160 067a 83F31188 		msr     BASEPRI, r3
 1161              	@ 0 "" 2
 1162              	.LVL231:
 1163              		.thumb
 1164              	.LBE39:
 1165              		.loc 1 217 0 discriminator 2
 1166 067e A968     		ldr	r1, [r5, #8]
 1167 0680 EA68     		ldr	r2, [r5, #12]
 1168 0682 2B20     		movs	r0, #43
 1169 0684 B2EB010C 		subs	ip, r2, r1
 1170 0688 DCF10003 		rsbs	r3, ip, #0
 1171              	.LVL232:
 1172 068c 53EB0C01 		adcs	r1, r3, ip
 1173 0690 FFF7FEFF 		bl	_test_assert
 1174              	.LVL233:
 1175 0694 0028     		cmp	r0, #0
 1176 0696 7FF408AD 		bne	.L1
 1177              		.loc 1 222 0
 1178 069a 2846     		mov	r0, r5
 1179 069c FFF7FEFF 		bl	chMBReset
 1180              	.LVL234:
 1181              	.LBB40:
 1182              		.loc 1 227 0
 1183 06a0 2023     		movs	r3, #32
 1184              	.LVL235:
 1185              	@ 227 "/home/formica/chibios/chibios/test/testmbox.c" 1
 1186 06a2 83F31188 		msr     BASEPRI, r3
 1187              	@ 0 "" 2
 1188              	.LVL236:
 1189              		.thumb
 1190              	.LBE40:
 1191 06a6 FFF7FEFF 		bl	dbg_check_lock
 1192              	.LVL237:
 1193 06aa 6A6A     		ldr	r2, [r5, #36]
 1194 06ac 2C20     		movs	r0, #44
 1195 06ae B2F1050E 		subs	lr, r2, #5
 1196 06b2 DEF10001 		rsbs	r1, lr, #0
 1197 06b6 51EB0E01 		adcs	r1, r1, lr
ARM GAS  /tmp/cce4pmgX.s 			page 22


 1198 06ba FFF7FEFF 		bl	_test_assert
 1199              	.LVL238:
 1200 06be 40BB     		cbnz	r0, .L25
 1201              		.loc 1 227 0 is_stmt 0 discriminator 2
 1202 06c0 FFF7FEFF 		bl	dbg_check_unlock
 1203              	.LVL239:
 1204              	.LBB41:
 1205 06c4 2346     		mov	r3, r4
 1206              	.LVL240:
 1207              	@ 227 "/home/formica/chibios/chibios/test/testmbox.c" 1
 1208 06c6 83F31188 		msr     BASEPRI, r3
 1209              	@ 0 "" 2
 1210              	.LVL241:
 1211              		.thumb
 1212              	.LBE41:
 1213              	.LBB42:
 1214              		.loc 1 228 0 is_stmt 1 discriminator 2
 1215 06ca 2023     		movs	r3, #32
 1216              	.LVL242:
 1217              	@ 228 "/home/formica/chibios/chibios/test/testmbox.c" 1
 1218 06cc 83F31188 		msr     BASEPRI, r3
 1219              	@ 0 "" 2
 1220              	.LVL243:
 1221              		.thumb
 1222              	.LBE42:
 1223 06d0 FFF7FEFF 		bl	dbg_check_lock
 1224              	.LVL244:
 1225 06d4 AB69     		ldr	r3, [r5, #24]
 1226 06d6 2D20     		movs	r0, #45
 1227 06d8 D3F10101 		rsbs	r1, r3, #1
 1228 06dc 38BF     		it	cc
 1229 06de 0021     		movcc	r1, #0
 1230 06e0 FFF7FEFF 		bl	_test_assert
 1231              	.LVL245:
 1232 06e4 A8B9     		cbnz	r0, .L25
 1233 06e6 FFF7FEFF 		bl	dbg_check_unlock
 1234              	.LVL246:
 1235              	.LBB43:
 1236 06ea 2346     		mov	r3, r4
 1237              	.LVL247:
 1238              	@ 228 "/home/formica/chibios/chibios/test/testmbox.c" 1
 1239 06ec 83F31188 		msr     BASEPRI, r3
 1240              	@ 0 "" 2
 1241              	.LVL248:
 1242              		.thumb
 1243              	.LBE43:
 1244              	.LBB44:
 1245              		.loc 1 229 0 discriminator 2
 1246 06f0 2023     		movs	r3, #32
 1247              	.LVL249:
 1248              	@ 229 "/home/formica/chibios/chibios/test/testmbox.c" 1
 1249 06f2 83F31188 		msr     BASEPRI, r3
 1250              	@ 0 "" 2
 1251              	.LVL250:
 1252              		.thumb
 1253              	.LBE44:
 1254 06f6 FFF7FEFF 		bl	dbg_check_lock
ARM GAS  /tmp/cce4pmgX.s 			page 23


 1255              	.LVL251:
 1256 06fa 2A68     		ldr	r2, [r5, #0]
 1257 06fc A968     		ldr	r1, [r5, #8]
 1258 06fe 2E20     		movs	r0, #46
 1259 0700 531A     		subs	r3, r2, r1
 1260 0702 5A42     		rsbs	r2, r3, #0
 1261 0704 52EB0301 		adcs	r1, r2, r3
 1262 0708 FFF7FEFF 		bl	_test_assert
 1263              	.LVL252:
 1264 070c 0028     		cmp	r0, #0
 1265 070e 3FF44CAD 		beq	.L19
 1266              	.L25:
 1267              		.loc 1 229 0 is_stmt 0 discriminator 1
 1268 0712 FFF7FEFF 		bl	dbg_check_unlock
 1269              	.LVL253:
 1270              	.LBB45:
 1271 0716 2346     		mov	r3, r4
 1272              	@ 229 "/home/formica/chibios/chibios/test/testmbox.c" 1
 1273 0718 83F31188 		msr     BASEPRI, r3
 1274              	@ 0 "" 2
 1275              	.LVL254:
 1276              		.thumb
 1277 071c C5E4     		b	.L1
 1278              	.LVL255:
 1279              	.L27:
 1280              	.LBE45:
 1281              		.loc 1 191 0 is_stmt 1 discriminator 1
 1282 071e FFF7FEFF 		bl	dbg_check_unlock
 1283              	.LVL256:
 1284              	.LBB46:
 1285 0722 2B46     		mov	r3, r5
 1286              	@ 191 "/home/formica/chibios/chibios/test/testmbox.c" 1
 1287 0724 83F31188 		msr     BASEPRI, r3
 1288              	@ 0 "" 2
 1289              	.LVL257:
 1290              		.thumb
 1291 0728 BFE4     		b	.L1
 1292              	.L36:
 1293 072a 00BF     		.align	2
 1294              	.L35:
 1295 072c 00000000 		.word	.LANCHOR0
 1296 0730 00000000 		.word	.LC0
 1297              	.LBE46:
 1298              		.cfi_endproc
 1299              	.LFE8:
 1300              		.size	mbox1_execute, .-mbox1_execute
 1301 0734 AFF30080 		.section	.text.mbox1_setup,"ax",%progbits
 1301      AFF30080 
 1301      AFF30080 
 1302              		.align	2
 1303              		.p2align 4,,15
 1304              		.thumb
 1305              		.thumb_func
 1306              		.type	mbox1_setup, %function
 1307              	mbox1_setup:
 1308              	.LFB7:
 1309              		.loc 1 82 0
ARM GAS  /tmp/cce4pmgX.s 			page 24


 1310              		.cfi_startproc
 1311              		@ args = 0, pretend = 0, frame = 0
 1312              		@ frame_needed = 0, uses_anonymous_args = 0
 1313              		@ link register save eliminated.
 1314              		.loc 1 84 0
 1315 0000 40F20000 		movw	r0, #:lower16:.LANCHOR0
 1316 0004 40F20001 		movw	r1, #:lower16:test
 1317 0008 C0F20000 		movt	r0, #:upper16:.LANCHOR0
 1318 000c C0F20001 		movt	r1, #:upper16:test
 1319 0010 0522     		movs	r2, #5
 1320              		.loc 1 85 0
 1321              		.loc 1 84 0
 1322 0012 FFF7FEBF 		b	chMBInit
 1323              	.LVL258:
 1324              		.cfi_endproc
 1325              	.LFE7:
 1326              		.size	mbox1_setup, .-mbox1_setup
 1327              		.global	patternmbox
 1328              		.global	testmbox1
 1329 0016 00BFAFF3 		.section	.data.mb1,"aw",%progbits
 1329      0080AFF3 
 1329      0080
 1330              		.align	2
 1331              		.set	.LANCHOR0,. + 0
 1332              		.type	mb1, %object
 1333              		.size	mb1, 40
 1334              	mb1:
 1335 0000 00000000 		.word	test
 1336 0004 14000000 		.word	test+20
 1337 0008 00000000 		.word	test
 1338 000c 00000000 		.word	test
 1339 0010 10000000 		.word	mb1+16
 1340 0014 10000000 		.word	mb1+16
 1341 0018 00000000 		.word	0
 1342 001c 1C000000 		.word	mb1+28
 1343 0020 1C000000 		.word	mb1+28
 1344 0024 05000000 		.word	5
 1345              		.section	.rodata.patternmbox,"a",%progbits
 1346              		.align	2
 1347              		.type	patternmbox, %object
 1348              		.size	patternmbox, 8
 1349              	patternmbox:
 1350 0000 00000000 		.word	testmbox1
 1351 0004 00000000 		.word	0
 1352              		.section	.rodata.str1.4,"aMS",%progbits,1
 1353              		.align	2
 1354              	.LC0:
 1355 0000 41424344 		.ascii	"ABCDE\000"
 1355      4500
 1356 0006 0000     		.space	2
 1357              	.LC1:
 1358 0008 4D61696C 		.ascii	"Mailboxes, queuing and timeouts\000"
 1358      626F7865 
 1358      732C2071 
 1358      75657569 
 1358      6E672061 
 1359              		.section	.rodata.testmbox1,"a",%progbits
ARM GAS  /tmp/cce4pmgX.s 			page 25


 1360              		.align	2
 1361              		.type	testmbox1, %object
 1362              		.size	testmbox1, 16
 1363              	testmbox1:
 1364 0000 08000000 		.word	.LC1
 1365 0004 00000000 		.word	mbox1_setup
 1366 0008 00000000 		.word	0
 1367 000c 00000000 		.word	mbox1_execute
 1368              		.text
 1369              	.Letext0:
 1370              		.file 2 "/home/formica/toolchains/gcc-arm-none-eabi-4_7-2012q4/bin/../lib/gcc/arm-none-eabi/4.7.3/
 1371              		.file 3 "/home/formica/chibios/chibios/os/ports/GCC/ARMCMx/chtypes.h"
 1372              		.file 4 "/home/formica/chibios/chibios/os/kernel/include/chlists.h"
 1373              		.file 5 "/home/formica/chibios/chibios/os/kernel/include/chthreads.h"
 1374              		.file 6 "/home/formica/chibios/chibios/os/ports/GCC/ARMCMx/chcore_v7m.h"
 1375              		.file 7 "/home/formica/chibios/chibios/os/kernel/include/chsem.h"
 1376              		.file 8 "/home/formica/chibios/chibios/os/kernel/include/chmtx.h"
 1377              		.file 9 "/home/formica/chibios/chibios/os/kernel/include/chmboxes.h"
 1378              		.file 10 "/home/formica/chibios/chibios/test/test.h"
 1379              		.file 11 "/home/formica/chibios/chibios/os/kernel/include/chdebug.h"