ARM GAS  /tmp/cc84H9Rf.s 			page 1


   1              		.syntax unified
   2              		.cpu cortex-m3
   3              		.fpu softvfp
   4              		.eabi_attribute 20, 1
   5              		.eabi_attribute 21, 1
   6              		.eabi_attribute 23, 3
   7              		.eabi_attribute 24, 1
   8              		.eabi_attribute 25, 1
   9              		.eabi_attribute 26, 1
  10              		.eabi_attribute 30, 2
  11              		.eabi_attribute 34, 1
  12              		.eabi_attribute 18, 4
  13              		.thumb
  14              		.file	"testheap.c"
  15              		.text
  16              	.Ltext0:
  17              		.cfi_sections	.debug_frame
  18              		.section	.text.heap1_execute,"ax",%progbits
  19              		.align	2
  20              		.p2align 4,,15
  21              		.thumb
  22              		.thumb_func
  23              		.type	heap1_execute, %function
  24              	heap1_execute:
  25              	.LFB8:
  26              		.file 1 "/home/formica/chibios/chibios/test/testheap.c"
  27              		.loc 1 80 0
  28              		.cfi_startproc
  29              		@ args = 0, pretend = 0, frame = 8
  30              		@ frame_needed = 0, uses_anonymous_args = 0
  31 0000 70B5     		push	{r4, r5, r6, lr}
  32              	.LCFI0:
  33              		.cfi_def_cfa_offset 16
  34              		.cfi_offset 4, -16
  35              		.cfi_offset 5, -12
  36              		.cfi_offset 6, -8
  37              		.cfi_offset 14, -4
  38 0002 82B0     		sub	sp, sp, #8
  39              	.LCFI1:
  40              		.cfi_def_cfa_offset 24
  41              		.loc 1 85 0
  42 0004 FFF7FEFF 		bl	chCoreStatus
  43              	.LVL0:
  44              		.loc 1 91 0
  45 0008 01A9     		add	r1, sp, #4
  46 000a 0020     		movs	r0, #0
  47 000c FFF7FEFF 		bl	chHeapStatus
  48              	.LVL1:
  49              		.loc 1 92 0
  50 0010 1021     		movs	r1, #16
  51 0012 0020     		movs	r0, #0
  52 0014 FFF7FEFF 		bl	chHeapAlloc
  53              	.LVL2:
  54              		.loc 1 93 0
  55 0018 011C     		adds	r1, r0, #0
  56 001a 18BF     		it	ne
  57 001c 0121     		movne	r1, #1
ARM GAS  /tmp/cc84H9Rf.s 			page 2


  58 001e 0446     		mov	r4, r0
  59 0020 0120     		movs	r0, #1
  60              	.LVL3:
  61 0022 FFF7FEFF 		bl	_test_assert
  62              	.LVL4:
  63 0026 0546     		mov	r5, r0
  64 0028 08B1     		cbz	r0, .L7
  65              	.LVL5:
  66              	.L1:
  67              		.loc 1 151 0
  68 002a 02B0     		add	sp, sp, #8
  69 002c 70BD     		pop	{r4, r5, r6, pc}
  70              	.LVL6:
  71              	.L7:
  72              		.loc 1 94 0
  73 002e 2046     		mov	r0, r4
  74 0030 FFF7FEFF 		bl	chHeapFree
  75              	.LVL7:
  76              		.loc 1 95 0
  77 0034 6FF0FF01 		mvn	r1, #255
  78 0038 2846     		mov	r0, r5
  79 003a FFF7FEFF 		bl	chHeapAlloc
  80              	.LVL8:
  81              		.loc 1 96 0
  82 003e D0F10101 		rsbs	r1, r0, #1
  83 0042 38BF     		it	cc
  84 0044 0021     		movcc	r1, #0
  85 0046 0220     		movs	r0, #2
  86              	.LVL9:
  87 0048 FFF7FEFF 		bl	_test_assert
  88              	.LVL10:
  89 004c 0028     		cmp	r0, #0
  90 004e ECD1     		bne	.L1
  91              		.loc 1 99 0
  92 0050 01A9     		add	r1, sp, #4
  93 0052 7E48     		ldr	r0, .L8
  94 0054 FFF7FEFF 		bl	chHeapStatus
  95              	.LVL11:
  96              		.loc 1 102 0
  97 0058 1021     		movs	r1, #16
  98 005a 7C48     		ldr	r0, .L8
  99 005c FFF7FEFF 		bl	chHeapAlloc
 100              	.LVL12:
 101              		.loc 1 103 0
 102 0060 1021     		movs	r1, #16
 103              		.loc 1 102 0
 104 0062 0546     		mov	r5, r0
 105              	.LVL13:
 106              		.loc 1 103 0
 107 0064 7948     		ldr	r0, .L8
 108              	.LVL14:
 109 0066 FFF7FEFF 		bl	chHeapAlloc
 110              	.LVL15:
 111              		.loc 1 104 0
 112 006a 1021     		movs	r1, #16
 113              		.loc 1 103 0
 114 006c 0446     		mov	r4, r0
ARM GAS  /tmp/cc84H9Rf.s 			page 3


 115              	.LVL16:
 116              		.loc 1 104 0
 117 006e 7748     		ldr	r0, .L8
 118              	.LVL17:
 119 0070 FFF7FEFF 		bl	chHeapAlloc
 120              	.LVL18:
 121 0074 0646     		mov	r6, r0
 122              	.LVL19:
 123              		.loc 1 105 0
 124 0076 2846     		mov	r0, r5
 125              	.LVL20:
 126 0078 FFF7FEFF 		bl	chHeapFree
 127              	.LVL21:
 128              		.loc 1 106 0
 129 007c 2046     		mov	r0, r4
 130 007e FFF7FEFF 		bl	chHeapFree
 131              	.LVL22:
 132              		.loc 1 107 0
 133 0082 3046     		mov	r0, r6
 134 0084 FFF7FEFF 		bl	chHeapFree
 135              	.LVL23:
 136              		.loc 1 108 0
 137 0088 6946     		mov	r1, sp
 138 008a 7048     		ldr	r0, .L8
 139 008c FFF7FEFF 		bl	chHeapStatus
 140              	.LVL24:
 141 0090 B0F1010E 		subs	lr, r0, #1
 142 0094 DEF10001 		rsbs	r1, lr, #0
 143 0098 51EB0E01 		adcs	r1, r1, lr
 144 009c 0320     		movs	r0, #3
 145 009e FFF7FEFF 		bl	_test_assert
 146              	.LVL25:
 147 00a2 0028     		cmp	r0, #0
 148 00a4 C1D1     		bne	.L1
 149              		.loc 1 111 0
 150 00a6 1021     		movs	r1, #16
 151 00a8 6848     		ldr	r0, .L8
 152 00aa FFF7FEFF 		bl	chHeapAlloc
 153              	.LVL26:
 154              		.loc 1 112 0
 155 00ae 1021     		movs	r1, #16
 156              		.loc 1 111 0
 157 00b0 0446     		mov	r4, r0
 158              	.LVL27:
 159              		.loc 1 112 0
 160 00b2 6648     		ldr	r0, .L8
 161              	.LVL28:
 162 00b4 FFF7FEFF 		bl	chHeapAlloc
 163              	.LVL29:
 164              		.loc 1 113 0
 165 00b8 1021     		movs	r1, #16
 166              		.loc 1 112 0
 167 00ba 0546     		mov	r5, r0
 168              	.LVL30:
 169              		.loc 1 113 0
 170 00bc 6348     		ldr	r0, .L8
 171              	.LVL31:
ARM GAS  /tmp/cc84H9Rf.s 			page 4


 172 00be FFF7FEFF 		bl	chHeapAlloc
 173              	.LVL32:
 174              		.loc 1 114 0
 175 00c2 FFF7FEFF 		bl	chHeapFree
 176              	.LVL33:
 177              		.loc 1 115 0
 178 00c6 2846     		mov	r0, r5
 179 00c8 FFF7FEFF 		bl	chHeapFree
 180              	.LVL34:
 181              		.loc 1 116 0
 182 00cc 2046     		mov	r0, r4
 183 00ce FFF7FEFF 		bl	chHeapFree
 184              	.LVL35:
 185              		.loc 1 117 0
 186 00d2 6946     		mov	r1, sp
 187 00d4 5D48     		ldr	r0, .L8
 188 00d6 FFF7FEFF 		bl	chHeapStatus
 189              	.LVL36:
 190 00da 0138     		subs	r0, r0, #1
 191 00dc 4242     		rsbs	r2, r0, #0
 192 00de 52EB0001 		adcs	r1, r2, r0
 193 00e2 0420     		movs	r0, #4
 194 00e4 FFF7FEFF 		bl	_test_assert
 195              	.LVL37:
 196 00e8 0028     		cmp	r0, #0
 197 00ea 9ED1     		bne	.L1
 198              		.loc 1 120 0
 199 00ec 1121     		movs	r1, #17
 200 00ee 5748     		ldr	r0, .L8
 201 00f0 FFF7FEFF 		bl	chHeapAlloc
 202              	.LVL38:
 203              		.loc 1 121 0
 204 00f4 1021     		movs	r1, #16
 205              		.loc 1 120 0
 206 00f6 0446     		mov	r4, r0
 207              	.LVL39:
 208              		.loc 1 121 0
 209 00f8 5448     		ldr	r0, .L8
 210              	.LVL40:
 211 00fa FFF7FEFF 		bl	chHeapAlloc
 212              	.LVL41:
 213 00fe 0546     		mov	r5, r0
 214              	.LVL42:
 215              		.loc 1 122 0
 216 0100 2046     		mov	r0, r4
 217              	.LVL43:
 218 0102 FFF7FEFF 		bl	chHeapFree
 219              	.LVL44:
 220              		.loc 1 123 0
 221 0106 6946     		mov	r1, sp
 222 0108 5048     		ldr	r0, .L8
 223 010a FFF7FEFF 		bl	chHeapStatus
 224              	.LVL45:
 225 010e 831E     		subs	r3, r0, #2
 226 0110 5942     		rsbs	r1, r3, #0
 227 0112 5941     		adcs	r1, r1, r3
 228 0114 0520     		movs	r0, #5
ARM GAS  /tmp/cc84H9Rf.s 			page 5


 229 0116 FFF7FEFF 		bl	_test_assert
 230              	.LVL46:
 231 011a 0028     		cmp	r0, #0
 232 011c 85D1     		bne	.L1
 233              		.loc 1 124 0
 234 011e 1021     		movs	r1, #16
 235 0120 4A48     		ldr	r0, .L8
 236 0122 FFF7FEFF 		bl	chHeapAlloc
 237              	.LVL47:
 238              		.loc 1 127 0
 239 0126 6946     		mov	r1, sp
 240              		.loc 1 124 0
 241 0128 0446     		mov	r4, r0
 242              	.LVL48:
 243              		.loc 1 127 0
 244 012a 4848     		ldr	r0, .L8
 245              	.LVL49:
 246 012c FFF7FEFF 		bl	chHeapStatus
 247              	.LVL50:
 248 0130 0128     		cmp	r0, #1
 249 0132 00F08980 		beq	.L5
 250              		.loc 1 127 0 is_stmt 0 discriminator 2
 251 0136 6946     		mov	r1, sp
 252 0138 4448     		ldr	r0, .L8
 253 013a FFF7FEFF 		bl	chHeapStatus
 254              	.LVL51:
 255 013e 0238     		subs	r0, r0, #2
 256 0140 4242     		rsbs	r2, r0, #0
 257 0142 52EB0001 		adcs	r1, r2, r0
 258              	.L3:
 259              		.loc 1 127 0 discriminator 4
 260 0146 0620     		movs	r0, #6
 261 0148 FFF7FEFF 		bl	_test_assert
 262              	.LVL52:
 263 014c 0028     		cmp	r0, #0
 264 014e 7FF46CAF 		bne	.L1
 265              		.loc 1 129 0 is_stmt 1
 266 0152 2846     		mov	r0, r5
 267 0154 FFF7FEFF 		bl	chHeapFree
 268              	.LVL53:
 269              		.loc 1 130 0
 270 0158 2046     		mov	r0, r4
 271 015a FFF7FEFF 		bl	chHeapFree
 272              	.LVL54:
 273              		.loc 1 131 0
 274 015e 6946     		mov	r1, sp
 275 0160 3A48     		ldr	r0, .L8
 276 0162 FFF7FEFF 		bl	chHeapStatus
 277              	.LVL55:
 278 0166 B0F1010C 		subs	ip, r0, #1
 279 016a DCF10003 		rsbs	r3, ip, #0
 280 016e 53EB0C01 		adcs	r1, r3, ip
 281 0172 0720     		movs	r0, #7
 282 0174 FFF7FEFF 		bl	_test_assert
 283              	.LVL56:
 284 0178 0028     		cmp	r0, #0
 285 017a 7FF456AF 		bne	.L1
ARM GAS  /tmp/cc84H9Rf.s 			page 6


 286              		.loc 1 134 0
 287 017e 1021     		movs	r1, #16
 288 0180 3248     		ldr	r0, .L8
 289 0182 FFF7FEFF 		bl	chHeapAlloc
 290              	.LVL57:
 291              		.loc 1 135 0
 292 0186 1021     		movs	r1, #16
 293              		.loc 1 134 0
 294 0188 0546     		mov	r5, r0
 295              	.LVL58:
 296              		.loc 1 135 0
 297 018a 3048     		ldr	r0, .L8
 298              	.LVL59:
 299 018c FFF7FEFF 		bl	chHeapAlloc
 300              	.LVL60:
 301 0190 0446     		mov	r4, r0
 302              	.LVL61:
 303              		.loc 1 136 0
 304 0192 2846     		mov	r0, r5
 305              	.LVL62:
 306 0194 FFF7FEFF 		bl	chHeapFree
 307              	.LVL63:
 308              		.loc 1 137 0
 309 0198 6946     		mov	r1, sp
 310 019a 2C48     		ldr	r0, .L8
 311 019c FFF7FEFF 		bl	chHeapStatus
 312              	.LVL64:
 313 01a0 B0F1020E 		subs	lr, r0, #2
 314 01a4 DEF10001 		rsbs	r1, lr, #0
 315 01a8 51EB0E01 		adcs	r1, r1, lr
 316 01ac 0820     		movs	r0, #8
 317 01ae FFF7FEFF 		bl	_test_assert
 318              	.LVL65:
 319 01b2 0028     		cmp	r0, #0
 320 01b4 7FF439AF 		bne	.L1
 321              		.loc 1 138 0
 322 01b8 2021     		movs	r1, #32
 323 01ba 2448     		ldr	r0, .L8
 324 01bc FFF7FEFF 		bl	chHeapAlloc
 325              	.LVL66:
 326              		.loc 1 139 0
 327 01c0 FFF7FEFF 		bl	chHeapFree
 328              	.LVL67:
 329              		.loc 1 140 0
 330 01c4 2046     		mov	r0, r4
 331 01c6 FFF7FEFF 		bl	chHeapFree
 332              	.LVL68:
 333              		.loc 1 141 0
 334 01ca 6946     		mov	r1, sp
 335 01cc 1F48     		ldr	r0, .L8
 336 01ce FFF7FEFF 		bl	chHeapStatus
 337              	.LVL69:
 338 01d2 0138     		subs	r0, r0, #1
 339 01d4 4242     		rsbs	r2, r0, #0
 340 01d6 52EB0001 		adcs	r1, r2, r0
 341 01da 0920     		movs	r0, #9
 342 01dc FFF7FEFF 		bl	_test_assert
ARM GAS  /tmp/cc84H9Rf.s 			page 7


 343              	.LVL70:
 344 01e0 0028     		cmp	r0, #0
 345 01e2 7FF422AF 		bne	.L1
 346              		.loc 1 144 0
 347 01e6 6946     		mov	r1, sp
 348 01e8 1848     		ldr	r0, .L8
 349 01ea FFF7FEFF 		bl	chHeapStatus
 350              	.LVL71:
 351              		.loc 1 145 0
 352 01ee 0099     		ldr	r1, [sp, #0]
 353 01f0 1648     		ldr	r0, .L8
 354 01f2 FFF7FEFF 		bl	chHeapAlloc
 355              	.LVL72:
 356              		.loc 1 146 0
 357 01f6 6946     		mov	r1, sp
 358              		.loc 1 145 0
 359 01f8 0446     		mov	r4, r0
 360              	.LVL73:
 361              		.loc 1 146 0
 362 01fa 1448     		ldr	r0, .L8
 363              	.LVL74:
 364 01fc FFF7FEFF 		bl	chHeapStatus
 365              	.LVL75:
 366 0200 D0F10101 		rsbs	r1, r0, #1
 367 0204 38BF     		it	cc
 368 0206 0021     		movcc	r1, #0
 369 0208 0A20     		movs	r0, #10
 370 020a FFF7FEFF 		bl	_test_assert
 371              	.LVL76:
 372 020e 0028     		cmp	r0, #0
 373 0210 7FF40BAF 		bne	.L1
 374              		.loc 1 147 0
 375 0214 2046     		mov	r0, r4
 376 0216 FFF7FEFF 		bl	chHeapFree
 377              	.LVL77:
 378              		.loc 1 149 0
 379 021a 6946     		mov	r1, sp
 380 021c 0B48     		ldr	r0, .L8
 381 021e FFF7FEFF 		bl	chHeapStatus
 382              	.LVL78:
 383 0222 431E     		subs	r3, r0, #1
 384 0224 5942     		rsbs	r1, r3, #0
 385 0226 5941     		adcs	r1, r1, r3
 386 0228 0B20     		movs	r0, #11
 387 022a FFF7FEFF 		bl	_test_assert
 388              	.LVL79:
 389 022e 0028     		cmp	r0, #0
 390 0230 7FF4FBAE 		bne	.L1
 391              	.LVL80:
 392              		.loc 1 150 0
 393 0234 9DE80A00 		ldmia	sp, {r1, r3}
 394 0238 0C20     		movs	r0, #12
 395 023a CA1A     		subs	r2, r1, r3
 396              	.LVL81:
 397 023c 5342     		rsbs	r3, r2, #0
 398 023e 53EB0201 		adcs	r1, r3, r2
 399              	.LVL82:
ARM GAS  /tmp/cc84H9Rf.s 			page 8


 400 0242 FFF7FEFF 		bl	_test_assert
 401              	.LVL83:
 402 0246 F0E6     		b	.L1
 403              	.LVL84:
 404              	.L5:
 405              		.loc 1 127 0
 406 0248 0146     		mov	r1, r0
 407 024a 7CE7     		b	.L3
 408              	.L9:
 409              		.align	2
 410              	.L8:
 411 024c 00000000 		.word	.LANCHOR0
 412              		.cfi_endproc
 413              	.LFE8:
 414              		.size	heap1_execute, .-heap1_execute
 415              		.section	.text.heap1_setup,"ax",%progbits
 416              		.align	2
 417              		.p2align 4,,15
 418              		.thumb
 419              		.thumb_func
 420              		.type	heap1_setup, %function
 421              	heap1_setup:
 422              	.LFB7:
 423              		.loc 1 75 0
 424              		.cfi_startproc
 425              		@ args = 0, pretend = 0, frame = 0
 426              		@ frame_needed = 0, uses_anonymous_args = 0
 427              		@ link register save eliminated.
 428              		.loc 1 77 0
 429 0000 40F20000 		movw	r0, #:lower16:.LANCHOR0
 430 0004 40F20001 		movw	r1, #:lower16:test
 431 0008 C0F20000 		movt	r0, #:upper16:.LANCHOR0
 432 000c C0F20001 		movt	r1, #:upper16:test
 433 0010 4FF4BE62 		mov	r2, #1520
 434              		.loc 1 78 0
 435              		.loc 1 77 0
 436 0014 FFF7FEBF 		b	chHeapInit
 437              	.LVL85:
 438              		.cfi_endproc
 439              	.LFE7:
 440              		.size	heap1_setup, .-heap1_setup
 441              		.global	patternheap
 442              		.global	testheap1
 443 0018 AFF30080 		.section	.rodata.patternheap,"a",%progbits
 443      AFF30080 
 444              		.align	2
 445              		.type	patternheap, %object
 446              		.size	patternheap, 8
 447              	patternheap:
 448 0000 00000000 		.word	testheap1
 449 0004 00000000 		.word	0
 450              		.section	.rodata.str1.4,"aMS",%progbits,1
 451              		.align	2
 452              	.LC0:
 453 0000 48656170 		.ascii	"Heap, allocation and fragmentation test\000"
 453      2C20616C 
 453      6C6F6361 
ARM GAS  /tmp/cc84H9Rf.s 			page 9


 453      74696F6E 
 453      20616E64 
 454              		.section	.rodata.testheap1,"a",%progbits
 455              		.align	2
 456              		.type	testheap1, %object
 457              		.size	testheap1, 16
 458              	testheap1:
 459 0000 00000000 		.word	.LC0
 460 0004 00000000 		.word	heap1_setup
 461 0008 00000000 		.word	0
 462 000c 00000000 		.word	heap1_execute
 463              		.section	.bss.test_heap,"aw",%nobits
 464              		.align	3
 465              		.set	.LANCHOR0,. + 0
 466              		.type	test_heap, %object
 467              		.size	test_heap, 32
 468              	test_heap:
 469 0000 00000000 		.space	32
 469      00000000 
 469      00000000 
 469      00000000 
 469      00000000 
 470              		.text
 471              	.Letext0:
 472              		.file 2 "/home/formica/toolchains/gcc-arm-none-eabi-4_7-2012q4/bin/../lib/gcc/arm-none-eabi/4.7.3/
 473              		.file 3 "/home/formica/toolchains/gcc-arm-none-eabi-4_7-2012q4/bin/../lib/gcc/arm-none-eabi/4.7.3/
 474              		.file 4 "/home/formica/chibios/chibios/os/ports/GCC/ARMCMx/chtypes.h"
 475              		.file 5 "/home/formica/chibios/chibios/os/kernel/include/chlists.h"
 476              		.file 6 "/home/formica/chibios/chibios/os/kernel/include/chthreads.h"
 477              		.file 7 "/home/formica/chibios/chibios/os/ports/GCC/ARMCMx/chcore_v7m.h"
 478              		.file 8 "/home/formica/chibios/chibios/os/kernel/include/chmtx.h"
 479              		.file 9 "/home/formica/chibios/chibios/os/kernel/include/chmemcore.h"
 480              		.file 10 "/home/formica/chibios/chibios/os/kernel/include/chheap.h"
 481              		.file 11 "/home/formica/chibios/chibios/test/test.h"