ARM GAS  /tmp/cce4pmgX.s 			page 1


   1              		.syntax unified
   2              		.cpu cortex-m3
   3              		.fpu softvfp
   4              		.eabi_attribute 20, 1
   5              		.eabi_attribute 21, 1
   6              		.eabi_attribute 23, 3
   7              		.eabi_attribute 24, 1
   8              		.eabi_attribute 25, 1
   9              		.eabi_attribute 26, 1
  10              		.eabi_attribute 30, 2
  11              		.eabi_attribute 34, 1
  12              		.eabi_attribute 18, 4
  13              		.thumb
  14              		.file	"testmbox.c"
  15              		.text
  16              	.Ltext0:
  17              		.cfi_sections	.debug_frame
  18              		.section	.text.mbox1_execute,"ax",%progbits
  19              		.align	2
  20              		.p2align 4,,15
  21              		.thumb
  22              		.thumb_func
  23              		.type	mbox1_execute, %function
  24              	mbox1_execute:
  25              	.LFB8:
  26              		.file 1 "/home/formica/chibios/chibios/test/testmbox.c"
  27              		.loc 1 87 0
  28              		.cfi_startproc
  29              		@ args = 0, pretend = 0, frame = 8
  30              		@ frame_needed = 0, uses_anonymous_args = 0
  31 0000 F0B5     		push	{r4, r5, r6, r7, lr}
  32              	.LCFI0:
  33              		.cfi_def_cfa_offset 20
  34              		.cfi_offset 4, -20
  35              		.cfi_offset 5, -16
  36              		.cfi_offset 6, -12
  37              		.cfi_offset 7, -8
  38              		.cfi_offset 14, -4
  39              		.loc 1 94 0
  40 0002 764C     		ldr	r4, .L30
  41 0004 0120     		movs	r0, #1
  42 0006 616A     		ldr	r1, [r4, #36]
  43              		.loc 1 87 0
  44 0008 83B0     		sub	sp, sp, #12
  45              	.LCFI1:
  46              		.cfi_def_cfa_offset 32
  47              		.loc 1 94 0
  48 000a B1F1050E 		subs	lr, r1, #5
  49 000e DEF10002 		rsbs	r2, lr, #0
  50 0012 52EB0E01 		adcs	r1, r2, lr
  51 0016 FFF7FEFF 		bl	_test_assert
  52              	.LVL0:
  53 001a 0028     		cmp	r0, #0
  54 001c 45D1     		bne	.L1
  55              		.loc 1 100 0
  56 001e 4221     		movs	r1, #66
  57 0020 2046     		mov	r0, r4
ARM GAS  /tmp/cce4pmgX.s 			page 2


  58 0022 4FF0FF32 		mov	r2, #-1
  59 0026 FFF7FEFF 		bl	chMBPost
  60              	.LVL1:
  61              		.loc 1 101 0
  62 002a D0F10101 		rsbs	r1, r0, #1
  63 002e 38BF     		it	cc
  64 0030 0021     		movcc	r1, #0
  65 0032 0220     		movs	r0, #2
  66              	.LVL2:
  67 0034 FFF7FEFF 		bl	_test_assert
  68              	.LVL3:
  69 0038 B8BB     		cbnz	r0, .L1
  70              	.LVL4:
  71              		.loc 1 100 0
  72 003a 4321     		movs	r1, #67
  73 003c 2046     		mov	r0, r4
  74 003e 4FF0FF32 		mov	r2, #-1
  75 0042 FFF7FEFF 		bl	chMBPost
  76              	.LVL5:
  77              		.loc 1 101 0
  78 0046 D0F10101 		rsbs	r1, r0, #1
  79 004a 38BF     		it	cc
  80 004c 0021     		movcc	r1, #0
  81 004e 0220     		movs	r0, #2
  82              	.LVL6:
  83 0050 FFF7FEFF 		bl	_test_assert
  84              	.LVL7:
  85 0054 48BB     		cbnz	r0, .L1
  86              	.LVL8:
  87              		.loc 1 100 0
  88 0056 4421     		movs	r1, #68
  89 0058 2046     		mov	r0, r4
  90 005a 4FF0FF32 		mov	r2, #-1
  91 005e FFF7FEFF 		bl	chMBPost
  92              	.LVL9:
  93              		.loc 1 101 0
  94 0062 D0F10101 		rsbs	r1, r0, #1
  95 0066 38BF     		it	cc
  96 0068 0021     		movcc	r1, #0
  97 006a 0220     		movs	r0, #2
  98              	.LVL10:
  99 006c FFF7FEFF 		bl	_test_assert
 100              	.LVL11:
 101 0070 D8B9     		cbnz	r0, .L1
 102              	.LVL12:
 103              		.loc 1 100 0
 104 0072 4521     		movs	r1, #69
 105 0074 2046     		mov	r0, r4
 106 0076 4FF0FF32 		mov	r2, #-1
 107 007a FFF7FEFF 		bl	chMBPost
 108              	.LVL13:
 109              		.loc 1 101 0
 110 007e D0F10101 		rsbs	r1, r0, #1
 111 0082 38BF     		it	cc
 112 0084 0021     		movcc	r1, #0
 113 0086 0220     		movs	r0, #2
 114              	.LVL14:
ARM GAS  /tmp/cce4pmgX.s 			page 3


 115 0088 FFF7FEFF 		bl	_test_assert
 116              	.LVL15:
 117 008c 68B9     		cbnz	r0, .L1
 118              	.LVL16:
 119              		.loc 1 103 0
 120 008e 4121     		movs	r1, #65
 121 0090 2046     		mov	r0, r4
 122 0092 4FF0FF32 		mov	r2, #-1
 123 0096 FFF7FEFF 		bl	chMBPostAhead
 124              	.LVL17:
 125              		.loc 1 104 0
 126 009a D0F10101 		rsbs	r1, r0, #1
 127 009e 38BF     		it	cc
 128 00a0 0021     		movcc	r1, #0
 129 00a2 0320     		movs	r0, #3
 130              	.LVL18:
 131 00a4 FFF7FEFF 		bl	_test_assert
 132              	.LVL19:
 133 00a8 08B1     		cbz	r0, .L29
 134              	.LVL20:
 135              	.L1:
 136              		.loc 1 231 0
 137 00aa 03B0     		add	sp, sp, #12
 138 00ac F0BD     		pop	{r4, r5, r6, r7, pc}
 139              	.LVL21:
 140              	.L29:
 141              		.loc 1 109 0
 142 00ae 5821     		movs	r1, #88
 143 00b0 0122     		movs	r2, #1
 144 00b2 2046     		mov	r0, r4
 145 00b4 FFF7FEFF 		bl	chMBPost
 146              	.LVL22:
 147              		.loc 1 110 0
 148 00b8 B0F1FF30 		subs	r0, r0, #-1
 149              	.LVL23:
 150 00bc 4342     		rsbs	r3, r0, #0
 151 00be 53EB0001 		adcs	r1, r3, r0
 152 00c2 0420     		movs	r0, #4
 153              	.LVL24:
 154 00c4 FFF7FEFF 		bl	_test_assert
 155              	.LVL25:
 156 00c8 0546     		mov	r5, r0
 157 00ca 0028     		cmp	r0, #0
 158 00cc EDD1     		bne	.L1
 159              	.LBB2:
 160              		.loc 1 111 0
 161 00ce 2023     		movs	r3, #32
 162              	.LVL26:
 163              	@ 111 "/home/formica/chibios/chibios/test/testmbox.c" 1
 164 00d0 83F31188 		msr     BASEPRI, r3
 165              	@ 0 "" 2
 166              	.LVL27:
 167              		.thumb
 168              	.LBE2:
 169 00d4 FFF7FEFF 		bl	dbg_check_lock
 170              	.LVL28:
 171              		.loc 1 112 0
ARM GAS  /tmp/cce4pmgX.s 			page 4


 172 00d8 5821     		movs	r1, #88
 173 00da 2046     		mov	r0, r4
 174 00dc FFF7FEFF 		bl	chMBPostI
 175              	.LVL29:
 176 00e0 0646     		mov	r6, r0
 177              	.LVL30:
 178              		.loc 1 113 0
 179 00e2 FFF7FEFF 		bl	dbg_check_unlock
 180              	.LVL31:
 181              	.LBB3:
 182 00e6 2B46     		mov	r3, r5
 183              	.LVL32:
 184              	@ 113 "/home/formica/chibios/chibios/test/testmbox.c" 1
 185 00e8 83F31188 		msr     BASEPRI, r3
 186              	@ 0 "" 2
 187              	.LVL33:
 188              		.thumb
 189              	.LBE3:
 190              		.loc 1 114 0
 191 00ec 0520     		movs	r0, #5
 192 00ee B6F1FF32 		subs	r2, r6, #-1
 193 00f2 5142     		rsbs	r1, r2, #0
 194 00f4 5141     		adcs	r1, r1, r2
 195 00f6 FFF7FEFF 		bl	_test_assert
 196              	.LVL34:
 197 00fa 0028     		cmp	r0, #0
 198 00fc D5D1     		bne	.L1
 199              		.loc 1 115 0
 200 00fe 5821     		movs	r1, #88
 201 0100 0122     		movs	r2, #1
 202 0102 2046     		mov	r0, r4
 203 0104 FFF7FEFF 		bl	chMBPostAhead
 204              	.LVL35:
 205              		.loc 1 116 0
 206 0108 B0F1FF35 		subs	r5, r0, #-1
 207 010c 6842     		rsbs	r0, r5, #0
 208              	.LVL36:
 209 010e 50EB0501 		adcs	r1, r0, r5
 210 0112 0620     		movs	r0, #6
 211 0114 FFF7FEFF 		bl	_test_assert
 212              	.LVL37:
 213 0118 0546     		mov	r5, r0
 214              	.LVL38:
 215 011a 0028     		cmp	r0, #0
 216 011c C5D1     		bne	.L1
 217              	.LBB4:
 218              		.loc 1 117 0
 219 011e 2023     		movs	r3, #32
 220              	.LVL39:
 221              	@ 117 "/home/formica/chibios/chibios/test/testmbox.c" 1
 222 0120 83F31188 		msr     BASEPRI, r3
 223              	@ 0 "" 2
 224              	.LVL40:
 225              		.thumb
 226              	.LBE4:
 227 0124 FFF7FEFF 		bl	dbg_check_lock
 228              	.LVL41:
ARM GAS  /tmp/cce4pmgX.s 			page 5


 229              		.loc 1 118 0
 230 0128 5821     		movs	r1, #88
 231 012a 2046     		mov	r0, r4
 232 012c FFF7FEFF 		bl	chMBPostAheadI
 233              	.LVL42:
 234 0130 0646     		mov	r6, r0
 235              	.LVL43:
 236              		.loc 1 119 0
 237 0132 FFF7FEFF 		bl	dbg_check_unlock
 238              	.LVL44:
 239              	.LBB5:
 240 0136 2B46     		mov	r3, r5
 241              	.LVL45:
 242              	@ 119 "/home/formica/chibios/chibios/test/testmbox.c" 1
 243 0138 83F31188 		msr     BASEPRI, r3
 244              	@ 0 "" 2
 245              	.LVL46:
 246              		.thumb
 247              	.LBE5:
 248              		.loc 1 120 0
 249 013c 0720     		movs	r0, #7
 250 013e B6F1FF3C 		subs	ip, r6, #-1
 251 0142 DCF10003 		rsbs	r3, ip, #0
 252              	.LVL47:
 253 0146 53EB0C01 		adcs	r1, r3, ip
 254 014a FFF7FEFF 		bl	_test_assert
 255              	.LVL48:
 256 014e 0028     		cmp	r0, #0
 257 0150 ABD1     		bne	.L1
 258              	.LBB6:
 259              		.loc 1 125 0
 260 0152 2023     		movs	r3, #32
 261              	.LVL49:
 262              	@ 125 "/home/formica/chibios/chibios/test/testmbox.c" 1
 263 0154 83F31188 		msr     BASEPRI, r3
 264              	@ 0 "" 2
 265              	.LVL50:
 266              		.thumb
 267              	.LBE6:
 268 0158 FFF7FEFF 		bl	dbg_check_lock
 269              	.LVL51:
 270 015c 666A     		ldr	r6, [r4, #36]
 271              	.LVL52:
 272 015e 0820     		movs	r0, #8
 273 0160 D6F10101 		rsbs	r1, r6, #1
 274 0164 38BF     		it	cc
 275 0166 0021     		movcc	r1, #0
 276 0168 FFF7FEFF 		bl	_test_assert
 277              	.LVL53:
 278 016c 2646     		mov	r6, r4
 279 016e 0746     		mov	r7, r0
 280 0170 68BB     		cbnz	r0, .L20
 281              		.loc 1 125 0 is_stmt 0 discriminator 2
 282 0172 FFF7FEFF 		bl	dbg_check_unlock
 283              	.LVL54:
 284              	.LBB7:
 285 0176 3B46     		mov	r3, r7
ARM GAS  /tmp/cce4pmgX.s 			page 6


 286              	.LVL55:
 287              	@ 125 "/home/formica/chibios/chibios/test/testmbox.c" 1
 288 0178 83F31188 		msr     BASEPRI, r3
 289              	@ 0 "" 2
 290              	.LVL56:
 291              		.thumb
 292              	.LBE7:
 293              	.LBB8:
 294              		.loc 1 126 0 is_stmt 1 discriminator 2
 295 017c 2023     		movs	r3, #32
 296              	.LVL57:
 297              	@ 126 "/home/formica/chibios/chibios/test/testmbox.c" 1
 298 017e 83F31188 		msr     BASEPRI, r3
 299              	@ 0 "" 2
 300              	.LVL58:
 301              		.thumb
 302              	.LBE8:
 303 0182 FFF7FEFF 		bl	dbg_check_lock
 304              	.LVL59:
 305 0186 A269     		ldr	r2, [r4, #24]
 306 0188 0920     		movs	r0, #9
 307 018a B2F1050E 		subs	lr, r2, #5
 308 018e DEF10001 		rsbs	r1, lr, #0
 309 0192 51EB0E01 		adcs	r1, r1, lr
 310 0196 FFF7FEFF 		bl	_test_assert
 311              	.LVL60:
 312 019a 0546     		mov	r5, r0
 313 019c 00B3     		cbz	r0, .L5
 314              		.loc 1 126 0 is_stmt 0 discriminator 1
 315 019e FFF7FEFF 		bl	dbg_check_unlock
 316              	.LVL61:
 317              	.LBB9:
 318 01a2 3B46     		mov	r3, r7
 319              	@ 126 "/home/formica/chibios/chibios/test/testmbox.c" 1
 320 01a4 83F31188 		msr     BASEPRI, r3
 321              	@ 0 "" 2
 322              	.LVL62:
 323              		.thumb
 324 01a8 7FE7     		b	.L1
 325              	.LVL63:
 326              	.L19:
 327              	.LBE9:
 328              		.loc 1 229 0 is_stmt 1 discriminator 2
 329 01aa FFF7FEFF 		bl	dbg_check_unlock
 330              	.LVL64:
 331              	.LBB10:
 332 01ae 2346     		mov	r3, r4
 333              	.LVL65:
 334              	@ 229 "/home/formica/chibios/chibios/test/testmbox.c" 1
 335 01b0 83F31188 		msr     BASEPRI, r3
 336              	@ 0 "" 2
 337              	.LVL66:
 338              		.thumb
 339              	.LBE10:
 340              	.LBB11:
 341              		.loc 1 230 0 discriminator 2
 342 01b4 2023     		movs	r3, #32
ARM GAS  /tmp/cce4pmgX.s 			page 7


 343              	.LVL67:
 344              	@ 230 "/home/formica/chibios/chibios/test/testmbox.c" 1
 345 01b6 83F31188 		msr     BASEPRI, r3
 346              	@ 0 "" 2
 347              	.LVL68:
 348              		.thumb
 349              	.LBE11:
 350 01ba FFF7FEFF 		bl	dbg_check_lock
 351              	.LVL69:
 352 01be 2968     		ldr	r1, [r5, #0]
 353 01c0 EB68     		ldr	r3, [r5, #12]
 354 01c2 2F20     		movs	r0, #47
 355 01c4 CA1A     		subs	r2, r1, r3
 356 01c6 5142     		rsbs	r1, r2, #0
 357 01c8 5141     		adcs	r1, r1, r2
 358 01ca FFF7FEFF 		bl	_test_assert
 359              	.LVL70:
 360              	.L20:
 361 01ce FFF7FEFF 		bl	dbg_check_unlock
 362              	.LVL71:
 363              	.LBB12:
 364 01d2 0023     		movs	r3, #0
 365              	@ 230 "/home/formica/chibios/chibios/test/testmbox.c" 1
 366 01d4 83F31188 		msr     BASEPRI, r3
 367              	@ 0 "" 2
 368              	.LVL72:
 369              		.thumb
 370 01d8 67E7     		b	.L1
 371              	.L31:
 372 01da 00BF     		.align	2
 373              	.L30:
 374 01dc 00000000 		.word	.LANCHOR0
 375              	.LVL73:
 376              	.L5:
 377              	.LBE12:
 378              		.loc 1 126 0 discriminator 2
 379 01e0 FFF7FEFF 		bl	dbg_check_unlock
 380              	.LVL74:
 381              	.LBB13:
 382 01e4 2B46     		mov	r3, r5
 383              	.LVL75:
 384              	@ 126 "/home/formica/chibios/chibios/test/testmbox.c" 1
 385 01e6 83F31188 		msr     BASEPRI, r3
 386              	@ 0 "" 2
 387              	.LVL76:
 388              		.thumb
 389              	.LBE13:
 390              	.LBB14:
 391              		.loc 1 127 0 discriminator 2
 392 01ea 2023     		movs	r3, #32
 393              	.LVL77:
 394              	@ 127 "/home/formica/chibios/chibios/test/testmbox.c" 1
 395 01ec 83F31188 		msr     BASEPRI, r3
 396              	@ 0 "" 2
 397              	.LVL78:
 398              		.thumb
 399              	.LBE14:
ARM GAS  /tmp/cce4pmgX.s 			page 8


 400 01f0 FFF7FEFF 		bl	dbg_check_lock
 401              	.LVL79:
 402 01f4 E268     		ldr	r2, [r4, #12]
 403 01f6 A368     		ldr	r3, [r4, #8]
 404 01f8 0A20     		movs	r0, #10
 405 01fa D61A     		subs	r6, r2, r3
 406 01fc 7142     		rsbs	r1, r6, #0
 407 01fe 7141     		adcs	r1, r1, r6
 408 0200 FFF7FEFF 		bl	_test_assert
 409              	.LVL80:
 410 0204 0646     		mov	r6, r0
 411 0206 0028     		cmp	r0, #0
 412 0208 40F08982 		bne	.L27
 413 020c FFF7FEFF 		bl	dbg_check_unlock
 414              	.LVL81:
 415              	.LBB15:
 416 0210 3346     		mov	r3, r6
 417              	.LVL82:
 418              	@ 127 "/home/formica/chibios/chibios/test/testmbox.c" 1
 419 0212 83F31188 		msr     BASEPRI, r3
 420              	@ 0 "" 2
 421              	.LVL83:
 422              		.thumb
 423 0216 0526     		movs	r6, #5
 424              	.LVL84:
 425              	.L7:
 426              	.LBE15:
 427              		.loc 1 133 0
 428 0218 C84D     		ldr	r5, .L32
 429 021a 01A9     		add	r1, sp, #4
 430 021c 4FF0FF32 		mov	r2, #-1
 431 0220 2846     		mov	r0, r5
 432 0222 FFF7FEFF 		bl	chMBFetch
 433              	.LVL85:
 434              		.loc 1 134 0
 435 0226 D0F10101 		rsbs	r1, r0, #1
 436 022a 38BF     		it	cc
 437 022c 0021     		movcc	r1, #0
 438 022e 0B20     		movs	r0, #11
 439              	.LVL86:
 440 0230 FFF7FEFF 		bl	_test_assert
 441              	.LVL87:
 442 0234 0028     		cmp	r0, #0
 443 0236 7FF438AF 		bne	.L1
 444              		.loc 1 135 0
 445 023a 9DF80400 		ldrb	r0, [sp, #4]	@ zero_extendqisi2
 446 023e FFF7FEFF 		bl	test_emit_token
 447              	.LVL88:
 448              		.loc 1 132 0
 449 0242 013E     		subs	r6, r6, #1
 450 0244 E8D1     		bne	.L7
 451              		.loc 1 137 0
 452 0246 0C20     		movs	r0, #12
 453 0248 BD49     		ldr	r1, .L32+4
 454 024a FFF7FEFF 		bl	_test_assert_sequence
 455              	.LVL89:
 456 024e 0028     		cmp	r0, #0
ARM GAS  /tmp/cce4pmgX.s 			page 9


 457 0250 7FF42BAF 		bne	.L1
 458              		.loc 1 142 0
 459 0254 4721     		movs	r1, #71
 460 0256 2846     		mov	r0, r5
 461 0258 4FF0FF32 		mov	r2, #-1
 462 025c FFF7FEFF 		bl	chMBPost
 463              	.LVL90:
 464              		.loc 1 143 0
 465 0260 D0F10101 		rsbs	r1, r0, #1
 466 0264 38BF     		it	cc
 467 0266 0021     		movcc	r1, #0
 468 0268 0D20     		movs	r0, #13
 469              	.LVL91:
 470 026a FFF7FEFF 		bl	_test_assert
 471              	.LVL92:
 472 026e 0028     		cmp	r0, #0
 473 0270 7FF41BAF 		bne	.L1
 474              		.loc 1 144 0
 475 0274 01A9     		add	r1, sp, #4
 476 0276 2846     		mov	r0, r5
 477 0278 4FF0FF32 		mov	r2, #-1
 478 027c FFF7FEFF 		bl	chMBFetch
 479              	.LVL93:
 480              		.loc 1 145 0
 481 0280 D0F10101 		rsbs	r1, r0, #1
 482 0284 38BF     		it	cc
 483 0286 0021     		movcc	r1, #0
 484 0288 0E20     		movs	r0, #14
 485              	.LVL94:
 486 028a FFF7FEFF 		bl	_test_assert
 487              	.LVL95:
 488 028e 0028     		cmp	r0, #0
 489 0290 7FF40BAF 		bne	.L1
 490              		.loc 1 146 0
 491 0294 2A68     		ldr	r2, [r5, #0]
 492 0296 AB68     		ldr	r3, [r5, #8]
 493 0298 0F20     		movs	r0, #15
 494 029a D21A     		subs	r2, r2, r3
 495 029c 5142     		rsbs	r1, r2, #0
 496 029e 5141     		adcs	r1, r1, r2
 497 02a0 FFF7FEFF 		bl	_test_assert
 498              	.LVL96:
 499 02a4 0028     		cmp	r0, #0
 500 02a6 7FF400AF 		bne	.L1
 501              		.loc 1 147 0
 502 02aa 2A68     		ldr	r2, [r5, #0]
 503 02ac EB68     		ldr	r3, [r5, #12]
 504 02ae 1020     		movs	r0, #16
 505 02b0 D21A     		subs	r2, r2, r3
 506 02b2 5142     		rsbs	r1, r2, #0
 507 02b4 5141     		adcs	r1, r1, r2
 508 02b6 FFF7FEFF 		bl	_test_assert
 509              	.LVL97:
 510 02ba 0028     		cmp	r0, #0
 511 02bc 7FF4F5AE 		bne	.L1
 512              		.loc 1 152 0
 513 02c0 01A9     		add	r1, sp, #4
ARM GAS  /tmp/cce4pmgX.s 			page 10


 514 02c2 0122     		movs	r2, #1
 515 02c4 2846     		mov	r0, r5
 516 02c6 FFF7FEFF 		bl	chMBFetch
 517              	.LVL98:
 518              		.loc 1 153 0
 519 02ca B0F1FF30 		subs	r0, r0, #-1
 520              	.LVL99:
 521 02ce 4342     		rsbs	r3, r0, #0
 522 02d0 53EB0001 		adcs	r1, r3, r0
 523 02d4 1120     		movs	r0, #17
 524              	.LVL100:
 525 02d6 FFF7FEFF 		bl	_test_assert
 526              	.LVL101:
 527 02da 0028     		cmp	r0, #0
 528 02dc 7FF4E5AE 		bne	.L1
 529              	.LBB16:
 530              		.loc 1 154 0
 531 02e0 2023     		movs	r3, #32
 532              	.LVL102:
 533              	@ 154 "/home/formica/chibios/chibios/test/testmbox.c" 1
 534 02e2 83F31188 		msr     BASEPRI, r3
 535              	@ 0 "" 2
 536              	.LVL103:
 537              		.thumb
 538              	.LBE16:
 539 02e6 FFF7FEFF 		bl	dbg_check_lock
 540              	.LVL104:
 541              		.loc 1 155 0
 542 02ea 01A9     		add	r1, sp, #4
 543 02ec 2846     		mov	r0, r5
 544 02ee FFF7FEFF 		bl	chMBFetchI
 545              	.LVL105:
 546 02f2 0746     		mov	r7, r0
 547              	.LVL106:
 548              		.loc 1 156 0
 549 02f4 FFF7FEFF 		bl	dbg_check_unlock
 550              	.LVL107:
 551              	.LBB17:
 552 02f8 3346     		mov	r3, r6
 553              	.LVL108:
 554              	@ 156 "/home/formica/chibios/chibios/test/testmbox.c" 1
 555 02fa 83F31188 		msr     BASEPRI, r3
 556              	@ 0 "" 2
 557              	.LVL109:
 558              		.thumb
 559              	.LBE17:
 560              		.loc 1 157 0
 561 02fe 1220     		movs	r0, #18
 562 0300 B7F1FF3C 		subs	ip, r7, #-1
 563 0304 DCF10002 		rsbs	r2, ip, #0
 564 0308 52EB0C01 		adcs	r1, r2, ip
 565 030c FFF7FEFF 		bl	_test_assert
 566              	.LVL110:
 567 0310 0028     		cmp	r0, #0
 568 0312 7FF4CAAE 		bne	.L1
 569              	.LBB18:
 570              		.loc 1 162 0
ARM GAS  /tmp/cce4pmgX.s 			page 11


 571 0316 2023     		movs	r3, #32
 572              	.LVL111:
 573              	@ 162 "/home/formica/chibios/chibios/test/testmbox.c" 1
 574 0318 83F31188 		msr     BASEPRI, r3
 575              	@ 0 "" 2
 576              	.LVL112:
 577              		.thumb
 578              	.LBE18:
 579 031c FFF7FEFF 		bl	dbg_check_lock
 580              	.LVL113:
 581 0320 696A     		ldr	r1, [r5, #36]
 582 0322 1320     		movs	r0, #19
 583 0324 4B1F     		subs	r3, r1, #5
 584 0326 5A42     		rsbs	r2, r3, #0
 585 0328 52EB0301 		adcs	r1, r2, r3
 586 032c FFF7FEFF 		bl	_test_assert
 587              	.LVL114:
 588 0330 0028     		cmp	r0, #0
 589 0332 7FF44CAF 		bne	.L20
 590              		.loc 1 162 0 is_stmt 0 discriminator 2
 591 0336 FFF7FEFF 		bl	dbg_check_unlock
 592              	.LVL115:
 593              	.LBB19:
 594 033a 0023     		movs	r3, #0
 595              	.LVL116:
 596              	@ 162 "/home/formica/chibios/chibios/test/testmbox.c" 1
 597 033c 83F31188 		msr     BASEPRI, r3
 598              	@ 0 "" 2
 599              	.LVL117:
 600              		.thumb
 601              	.LBE19:
 602              	.LBB20:
 603              		.loc 1 163 0 is_stmt 1 discriminator 2
 604 0340 2023     		movs	r3, #32
 605              	.LVL118:
 606              	@ 163 "/home/formica/chibios/chibios/test/testmbox.c" 1
 607 0342 83F31188 		msr     BASEPRI, r3
 608              	@ 0 "" 2
 609              	.LVL119:
 610              		.thumb
 611              	.LBE20:
 612 0346 FFF7FEFF 		bl	dbg_check_lock
 613              	.LVL120:
 614 034a A469     		ldr	r4, [r4, #24]
 615 034c 1420     		movs	r0, #20
 616 034e D4F10101 		rsbs	r1, r4, #1
 617 0352 38BF     		it	cc
 618 0354 0021     		movcc	r1, #0
 619 0356 FFF7FEFF 		bl	_test_assert
 620              	.LVL121:
 621 035a 784C     		ldr	r4, .L32
 622 035c 0546     		mov	r5, r0
 623 035e 0028     		cmp	r0, #0
 624 0360 7FF435AF 		bne	.L20
 625 0364 FFF7FEFF 		bl	dbg_check_unlock
 626              	.LVL122:
 627              	.LBB21:
ARM GAS  /tmp/cce4pmgX.s 			page 12


 628 0368 2B46     		mov	r3, r5
 629              	.LVL123:
 630              	@ 163 "/home/formica/chibios/chibios/test/testmbox.c" 1
 631 036a 83F31188 		msr     BASEPRI, r3
 632              	@ 0 "" 2
 633              	.LVL124:
 634              		.thumb
 635              	.LBE21:
 636              	.LBB22:
 637              		.loc 1 164 0 discriminator 2
 638 036e 2023     		movs	r3, #32
 639              	.LVL125:
 640              	@ 164 "/home/formica/chibios/chibios/test/testmbox.c" 1
 641 0370 83F31188 		msr     BASEPRI, r3
 642              	@ 0 "" 2
 643              	.LVL126:
 644              		.thumb
 645              	.LBE22:
 646 0374 FFF7FEFF 		bl	dbg_check_lock
 647              	.LVL127:
 648 0378 E668     		ldr	r6, [r4, #12]
 649 037a A168     		ldr	r1, [r4, #8]
 650 037c 1520     		movs	r0, #21
 651 037e 731A     		subs	r3, r6, r1
 652 0380 5A42     		rsbs	r2, r3, #0
 653 0382 52EB0301 		adcs	r1, r2, r3
 654 0386 FFF7FEFF 		bl	_test_assert
 655              	.LVL128:
 656 038a 0646     		mov	r6, r0
 657 038c 0028     		cmp	r0, #0
 658 038e 40F0C681 		bne	.L27
 659 0392 FFF7FEFF 		bl	dbg_check_unlock
 660              	.LVL129:
 661              	.LBB23:
 662 0396 3346     		mov	r3, r6
 663              	.LVL130:
 664              	@ 164 "/home/formica/chibios/chibios/test/testmbox.c" 1
 665 0398 83F31188 		msr     BASEPRI, r3
 666              	@ 0 "" 2
 667              	.LVL131:
 668              		.thumb
 669              	.LBE23:
 670              	.LBB24:
 671              		.loc 1 169 0 discriminator 2
 672 039c 2023     		movs	r3, #32
 673              	.LVL132:
 674              	@ 169 "/home/formica/chibios/chibios/test/testmbox.c" 1
 675 039e 83F31188 		msr     BASEPRI, r3
 676              	@ 0 "" 2
 677              	.LVL133:
 678              		.thumb
 679              	.LBE24:
 680 03a2 FFF7FEFF 		bl	dbg_check_lock
 681              	.LVL134:
 682              		.loc 1 170 0 discriminator 2
 683 03a6 4121     		movs	r1, #65
 684 03a8 2046     		mov	r0, r4
ARM GAS  /tmp/cce4pmgX.s 			page 13


 685 03aa FFF7FEFF 		bl	chMBPostI
 686              	.LVL135:
 687              		.loc 1 171 0 discriminator 2
 688 03ae D0F10101 		rsbs	r1, r0, #1
 689 03b2 38BF     		it	cc
 690 03b4 0021     		movcc	r1, #0
 691 03b6 1620     		movs	r0, #22
 692              	.LVL136:
 693 03b8 FFF7FEFF 		bl	_test_assert
 694              	.LVL137:
 695 03bc 0028     		cmp	r0, #0
 696 03be 7FF474AE 		bne	.L1
 697              		.loc 1 172 0
 698 03c2 4221     		movs	r1, #66
 699 03c4 2046     		mov	r0, r4
 700 03c6 FFF7FEFF 		bl	chMBPostI
 701              	.LVL138:
 702              		.loc 1 173 0
 703 03ca D0F10101 		rsbs	r1, r0, #1
 704 03ce 38BF     		it	cc
 705 03d0 0021     		movcc	r1, #0
 706 03d2 1720     		movs	r0, #23
 707              	.LVL139:
 708 03d4 FFF7FEFF 		bl	_test_assert
 709              	.LVL140:
 710 03d8 0028     		cmp	r0, #0
 711 03da 7FF466AE 		bne	.L1
 712              		.loc 1 174 0
 713 03de 4321     		movs	r1, #67
 714 03e0 2046     		mov	r0, r4
 715 03e2 FFF7FEFF 		bl	chMBPostI
 716              	.LVL141:
 717              		.loc 1 175 0
 718 03e6 D0F10101 		rsbs	r1, r0, #1
 719 03ea 38BF     		it	cc
 720 03ec 0021     		movcc	r1, #0
 721 03ee 1820     		movs	r0, #24
 722              	.LVL142:
 723 03f0 FFF7FEFF 		bl	_test_assert
 724              	.LVL143:
 725 03f4 0028     		cmp	r0, #0
 726 03f6 7FF458AE 		bne	.L1
 727              		.loc 1 176 0
 728 03fa 4421     		movs	r1, #68
 729 03fc 2046     		mov	r0, r4
 730 03fe FFF7FEFF 		bl	chMBPostI
 731              	.LVL144:
 732              		.loc 1 177 0
 733 0402 D0F10101 		rsbs	r1, r0, #1
 734 0406 38BF     		it	cc
 735 0408 0021     		movcc	r1, #0
 736 040a 1920     		movs	r0, #25
 737              	.LVL145:
 738 040c FFF7FEFF 		bl	_test_assert
 739              	.LVL146:
 740 0410 0546     		mov	r5, r0
 741 0412 0028     		cmp	r0, #0
ARM GAS  /tmp/cce4pmgX.s 			page 14


 742 0414 7FF449AE 		bne	.L1
 743              		.loc 1 178 0
 744 0418 4521     		movs	r1, #69
 745 041a 2046     		mov	r0, r4
 746 041c FFF7FEFF 		bl	chMBPostI
 747              	.LVL147:
 748 0420 0646     		mov	r6, r0
 749              	.LVL148:
 750              		.loc 1 179 0
 751 0422 FFF7FEFF 		bl	dbg_check_unlock
 752              	.LVL149:
 753              	.LBB25:
 754 0426 2B46     		mov	r3, r5
 755              	.LVL150:
 756              	@ 179 "/home/formica/chibios/chibios/test/testmbox.c" 1
 757 0428 83F31188 		msr     BASEPRI, r3
 758              	@ 0 "" 2
 759              	.LVL151:
 760              		.thumb
 761              	.LBE25:
 762              		.loc 1 180 0
 763 042c 1A20     		movs	r0, #26
 764 042e D6F10101 		rsbs	r1, r6, #1
 765 0432 38BF     		it	cc
 766 0434 0021     		movcc	r1, #0
 767 0436 FFF7FEFF 		bl	_test_assert
 768              	.LVL152:
 769 043a 0028     		cmp	r0, #0
 770 043c 7FF435AE 		bne	.L1
 771              		.loc 1 181 0
 772 0440 E168     		ldr	r1, [r4, #12]
 773 0442 A368     		ldr	r3, [r4, #8]
 774 0444 1B20     		movs	r0, #27
 775 0446 B1EB030E 		subs	lr, r1, r3
 776 044a DEF10002 		rsbs	r2, lr, #0
 777 044e 52EB0E01 		adcs	r1, r2, lr
 778 0452 FFF7FEFF 		bl	_test_assert
 779              	.LVL153:
 780 0456 0028     		cmp	r0, #0
 781 0458 7FF427AE 		bne	.L1
 782 045c 0525     		movs	r5, #5
 783              	.L11:
 784              	.LBB26:
 785              		.loc 1 183 0
 786 045e 2023     		movs	r3, #32
 787              	.LVL154:
 788              	@ 183 "/home/formica/chibios/chibios/test/testmbox.c" 1
 789 0460 83F31188 		msr     BASEPRI, r3
 790              	@ 0 "" 2
 791              	.LVL155:
 792              		.thumb
 793              	.LBE26:
 794              		.loc 1 184 0
 795 0464 354C     		ldr	r4, .L32
 796              		.loc 1 183 0
 797 0466 FFF7FEFF 		bl	dbg_check_lock
 798              	.LVL156:
ARM GAS  /tmp/cce4pmgX.s 			page 15


 799              		.loc 1 184 0
 800 046a 01A9     		add	r1, sp, #4
 801 046c 2046     		mov	r0, r4
 802 046e FFF7FEFF 		bl	chMBFetchI
 803              	.LVL157:
 804 0472 0646     		mov	r6, r0
 805              	.LVL158:
 806              		.loc 1 185 0
 807 0474 FFF7FEFF 		bl	dbg_check_unlock
 808              	.LVL159:
 809              	.LBB27:
 810 0478 0023     		movs	r3, #0
 811              	.LVL160:
 812              	@ 185 "/home/formica/chibios/chibios/test/testmbox.c" 1
 813 047a 83F31188 		msr     BASEPRI, r3
 814              	@ 0 "" 2
 815              	.LVL161:
 816              		.thumb
 817              	.LBE27:
 818              		.loc 1 186 0
 819 047e 1C20     		movs	r0, #28
 820 0480 F31A     		subs	r3, r6, r3
 821              	.LVL162:
 822 0482 5942     		rsbs	r1, r3, #0
 823 0484 5941     		adcs	r1, r1, r3
 824 0486 FFF7FEFF 		bl	_test_assert
 825              	.LVL163:
 826 048a 0028     		cmp	r0, #0
 827 048c 7FF40DAE 		bne	.L1
 828              		.loc 1 187 0
 829 0490 9DF80400 		ldrb	r0, [sp, #4]	@ zero_extendqisi2
 830 0494 FFF7FEFF 		bl	test_emit_token
 831              	.LVL164:
 832              		.loc 1 182 0
 833 0498 013D     		subs	r5, r5, #1
 834 049a E0D1     		bne	.L11
 835              		.loc 1 189 0
 836 049c 1D20     		movs	r0, #29
 837 049e 2849     		ldr	r1, .L32+4
 838 04a0 FFF7FEFF 		bl	_test_assert_sequence
 839              	.LVL165:
 840 04a4 0028     		cmp	r0, #0
 841 04a6 7FF400AE 		bne	.L1
 842              	.LBB28:
 843              		.loc 1 190 0
 844 04aa 2023     		movs	r3, #32
 845              	.LVL166:
 846              	@ 190 "/home/formica/chibios/chibios/test/testmbox.c" 1
 847 04ac 83F31188 		msr     BASEPRI, r3
 848              	@ 0 "" 2
 849              	.LVL167:
 850              		.thumb
 851              	.LBE28:
 852 04b0 FFF7FEFF 		bl	dbg_check_lock
 853              	.LVL168:
 854 04b4 626A     		ldr	r2, [r4, #36]
 855 04b6 1E20     		movs	r0, #30
ARM GAS  /tmp/cce4pmgX.s 			page 16


 856 04b8 531F     		subs	r3, r2, #5
 857 04ba 5942     		rsbs	r1, r3, #0
 858 04bc 5941     		adcs	r1, r1, r3
 859 04be FFF7FEFF 		bl	_test_assert
 860              	.LVL169:
 861 04c2 0028     		cmp	r0, #0
 862 04c4 40F02B81 		bne	.L27
 863              		.loc 1 190 0 is_stmt 0 discriminator 2
 864 04c8 FFF7FEFF 		bl	dbg_check_unlock
 865              	.LVL170:
 866              	.LBB29:
 867 04cc 2B46     		mov	r3, r5
 868              	.LVL171:
 869              	@ 190 "/home/formica/chibios/chibios/test/testmbox.c" 1
 870 04ce 83F31188 		msr     BASEPRI, r3
 871              	@ 0 "" 2
 872              	.LVL172:
 873              		.thumb
 874              	.LBE29:
 875              	.LBB30:
 876              		.loc 1 191 0 is_stmt 1 discriminator 2
 877 04d2 2023     		movs	r3, #32
 878              	.LVL173:
 879              	@ 191 "/home/formica/chibios/chibios/test/testmbox.c" 1
 880 04d4 83F31188 		msr     BASEPRI, r3
 881              	@ 0 "" 2
 882              	.LVL174:
 883              		.thumb
 884              	.LBE30:
 885 04d8 FFF7FEFF 		bl	dbg_check_lock
 886              	.LVL175:
 887 04dc A269     		ldr	r2, [r4, #24]
 888 04de 1F20     		movs	r0, #31
 889 04e0 D2F10101 		rsbs	r1, r2, #1
 890 04e4 38BF     		it	cc
 891 04e6 0021     		movcc	r1, #0
 892 04e8 FFF7FEFF 		bl	_test_assert
 893              	.LVL176:
 894 04ec 0028     		cmp	r0, #0
 895 04ee 40F01681 		bne	.L27
 896 04f2 FFF7FEFF 		bl	dbg_check_unlock
 897              	.LVL177:
 898              	.LBB31:
 899 04f6 2B46     		mov	r3, r5
 900              	.LVL178:
 901              	@ 191 "/home/formica/chibios/chibios/test/testmbox.c" 1
 902 04f8 83F31188 		msr     BASEPRI, r3
 903              	@ 0 "" 2
 904              	.LVL179:
 905              		.thumb
 906              	.LBE31:
 907              		.loc 1 192 0 discriminator 2
 908 04fc E168     		ldr	r1, [r4, #12]
 909 04fe A368     		ldr	r3, [r4, #8]
 910              	.LVL180:
 911 0500 2020     		movs	r0, #32
 912 0502 CA1A     		subs	r2, r1, r3
ARM GAS  /tmp/cce4pmgX.s 			page 17


 913 0504 5142     		rsbs	r1, r2, #0
 914 0506 5141     		adcs	r1, r1, r2
 915 0508 FFF7FEFF 		bl	_test_assert
 916              	.LVL181:
 917 050c 0028     		cmp	r0, #0
 918 050e 7FF4CCAD 		bne	.L1
 919              	.LBB32:
 920              		.loc 1 194 0
 921 0512 2023     		movs	r3, #32
 922              	.LVL182:
 923              	@ 194 "/home/formica/chibios/chibios/test/testmbox.c" 1
 924 0514 83F31188 		msr     BASEPRI, r3
 925              	@ 0 "" 2
 926              	.LVL183:
 927              		.thumb
 928              	.LBE32:
 929 0518 FFF7FEFF 		bl	dbg_check_lock
 930              	.LVL184:
 931              		.loc 1 195 0
 932 051c 4521     		movs	r1, #69
 933 051e 2046     		mov	r0, r4
 934 0520 FFF7FEFF 		bl	chMBPostAheadI
 935              	.LVL185:
 936              		.loc 1 196 0
 937 0524 D0F10101 		rsbs	r1, r0, #1
 938 0528 38BF     		it	cc
 939 052a 0021     		movcc	r1, #0
 940 052c 2120     		movs	r0, #33
 941              	.LVL186:
 942 052e FFF7FEFF 		bl	_test_assert
 943              	.LVL187:
 944 0532 0028     		cmp	r0, #0
 945 0534 7FF4B9AD 		bne	.L1
 946 0538 04E0     		b	.L33
 947              	.L34:
 948 053a 00BF     		.align	2
 949              	.L32:
 950 053c 00000000 		.word	.LANCHOR0
 951 0540 00000000 		.word	.LC0
 952              	.L33:
 953              		.loc 1 197 0
 954 0544 4421     		movs	r1, #68
 955 0546 2046     		mov	r0, r4
 956 0548 FFF7FEFF 		bl	chMBPostAheadI
 957              	.LVL188:
 958              		.loc 1 198 0
 959 054c D0F10101 		rsbs	r1, r0, #1
 960 0550 38BF     		it	cc
 961 0552 0021     		movcc	r1, #0
 962 0554 2220     		movs	r0, #34
 963              	.LVL189:
 964 0556 FFF7FEFF 		bl	_test_assert
 965              	.LVL190:
 966 055a 0028     		cmp	r0, #0
 967 055c 7FF4A5AD 		bne	.L1
 968              		.loc 1 199 0
 969 0560 4321     		movs	r1, #67
ARM GAS  /tmp/cce4pmgX.s 			page 18


 970 0562 2046     		mov	r0, r4
 971 0564 FFF7FEFF 		bl	chMBPostAheadI
 972              	.LVL191:
 973              		.loc 1 200 0
 974 0568 D0F10101 		rsbs	r1, r0, #1
 975 056c 38BF     		it	cc
 976 056e 0021     		movcc	r1, #0
 977 0570 2320     		movs	r0, #35
 978              	.LVL192:
 979 0572 FFF7FEFF 		bl	_test_assert
 980              	.LVL193:
 981 0576 0028     		cmp	r0, #0
 982 0578 7FF497AD 		bne	.L1
 983              		.loc 1 201 0
 984 057c 4221     		movs	r1, #66
 985 057e 2046     		mov	r0, r4
 986 0580 FFF7FEFF 		bl	chMBPostAheadI
 987              	.LVL194:
 988              		.loc 1 202 0
 989 0584 D0F10101 		rsbs	r1, r0, #1
 990 0588 38BF     		it	cc
 991 058a 0021     		movcc	r1, #0
 992 058c 2420     		movs	r0, #36
 993              	.LVL195:
 994 058e FFF7FEFF 		bl	_test_assert
 995              	.LVL196:
 996 0592 0028     		cmp	r0, #0
 997 0594 7FF489AD 		bne	.L1
 998              		.loc 1 203 0
 999 0598 644C     		ldr	r4, .L35
 1000 059a 4121     		movs	r1, #65
 1001 059c 2046     		mov	r0, r4
 1002 059e FFF7FEFF 		bl	chMBPostAheadI
 1003              	.LVL197:
 1004 05a2 0546     		mov	r5, r0
 1005              	.LVL198:
 1006              		.loc 1 204 0
 1007 05a4 FFF7FEFF 		bl	dbg_check_unlock
 1008              	.LVL199:
 1009              	.LBB33:
 1010 05a8 0023     		movs	r3, #0
 1011              	.LVL200:
 1012              	@ 204 "/home/formica/chibios/chibios/test/testmbox.c" 1
 1013 05aa 83F31188 		msr     BASEPRI, r3
 1014              	@ 0 "" 2
 1015              	.LVL201:
 1016              		.thumb
 1017              	.LBE33:
 1018              		.loc 1 205 0
 1019 05ae 2520     		movs	r0, #37
 1020 05b0 B5EB030C 		subs	ip, r5, r3
 1021              	.LVL202:
 1022 05b4 DCF10003 		rsbs	r3, ip, #0
 1023 05b8 53EB0C01 		adcs	r1, r3, ip
 1024 05bc FFF7FEFF 		bl	_test_assert
 1025              	.LVL203:
 1026 05c0 0028     		cmp	r0, #0
ARM GAS  /tmp/cce4pmgX.s 			page 19


 1027 05c2 7FF472AD 		bne	.L1
 1028              		.loc 1 206 0
 1029 05c6 A168     		ldr	r1, [r4, #8]
 1030 05c8 E268     		ldr	r2, [r4, #12]
 1031 05ca 2620     		movs	r0, #38
 1032 05cc B2EB010E 		subs	lr, r2, r1
 1033 05d0 DEF10003 		rsbs	r3, lr, #0
 1034 05d4 53EB0E01 		adcs	r1, r3, lr
 1035 05d8 FFF7FEFF 		bl	_test_assert
 1036              	.LVL204:
 1037 05dc 0028     		cmp	r0, #0
 1038 05de 7FF464AD 		bne	.L1
 1039 05e2 0524     		movs	r4, #5
 1040              	.LVL205:
 1041              	.L14:
 1042              	.LBB34:
 1043              		.loc 1 208 0
 1044 05e4 2023     		movs	r3, #32
 1045              	.LVL206:
 1046              	@ 208 "/home/formica/chibios/chibios/test/testmbox.c" 1
 1047 05e6 83F31188 		msr     BASEPRI, r3
 1048              	@ 0 "" 2
 1049              	.LVL207:
 1050              		.thumb
 1051              	.LBE34:
 1052              		.loc 1 209 0
 1053 05ea 504D     		ldr	r5, .L35
 1054              		.loc 1 208 0
 1055 05ec FFF7FEFF 		bl	dbg_check_lock
 1056              	.LVL208:
 1057              		.loc 1 209 0
 1058 05f0 01A9     		add	r1, sp, #4
 1059 05f2 2846     		mov	r0, r5
 1060 05f4 FFF7FEFF 		bl	chMBFetchI
 1061              	.LVL209:
 1062 05f8 0646     		mov	r6, r0
 1063              	.LVL210:
 1064              		.loc 1 210 0
 1065 05fa FFF7FEFF 		bl	dbg_check_unlock
 1066              	.LVL211:
 1067              	.LBB35:
 1068 05fe 0023     		movs	r3, #0
 1069              	.LVL212:
 1070              	@ 210 "/home/formica/chibios/chibios/test/testmbox.c" 1
 1071 0600 83F31188 		msr     BASEPRI, r3
 1072              	@ 0 "" 2
 1073              	.LVL213:
 1074              		.thumb
 1075              	.LBE35:
 1076              		.loc 1 211 0
 1077 0604 2720     		movs	r0, #39
 1078 0606 F21A     		subs	r2, r6, r3
 1079              	.LVL214:
 1080 0608 5142     		rsbs	r1, r2, #0
 1081 060a 5141     		adcs	r1, r1, r2
 1082 060c FFF7FEFF 		bl	_test_assert
 1083              	.LVL215:
ARM GAS  /tmp/cce4pmgX.s 			page 20


 1084 0610 0028     		cmp	r0, #0
 1085 0612 7FF44AAD 		bne	.L1
 1086              		.loc 1 212 0
 1087 0616 9DF80400 		ldrb	r0, [sp, #4]	@ zero_extendqisi2
 1088 061a FFF7FEFF 		bl	test_emit_token
 1089              	.LVL216:
 1090              		.loc 1 207 0
 1091 061e 013C     		subs	r4, r4, #1
 1092 0620 E0D1     		bne	.L14
 1093              		.loc 1 214 0
 1094 0622 2820     		movs	r0, #40
 1095 0624 4249     		ldr	r1, .L35+4
 1096 0626 FFF7FEFF 		bl	_test_assert_sequence
 1097              	.LVL217:
 1098 062a 0028     		cmp	r0, #0
 1099 062c 7FF43DAD 		bne	.L1
 1100              	.LBB36:
 1101              		.loc 1 215 0
 1102 0630 2023     		movs	r3, #32
 1103              	.LVL218:
 1104              	@ 215 "/home/formica/chibios/chibios/test/testmbox.c" 1
 1105 0632 83F31188 		msr     BASEPRI, r3
 1106              	@ 0 "" 2
 1107              	.LVL219:
 1108              		.thumb
 1109              	.LBE36:
 1110 0636 FFF7FEFF 		bl	dbg_check_lock
 1111              	.LVL220:
 1112 063a 6B6A     		ldr	r3, [r5, #36]
 1113 063c 2920     		movs	r0, #41
 1114 063e 5A1F     		subs	r2, r3, #5
 1115 0640 5142     		rsbs	r1, r2, #0
 1116 0642 5141     		adcs	r1, r1, r2
 1117 0644 FFF7FEFF 		bl	_test_assert
 1118              	.LVL221:
 1119 0648 0028     		cmp	r0, #0
 1120 064a 62D1     		bne	.L25
 1121              		.loc 1 215 0 is_stmt 0 discriminator 2
 1122 064c FFF7FEFF 		bl	dbg_check_unlock
 1123              	.LVL222:
 1124              	.LBB37:
 1125 0650 2346     		mov	r3, r4
 1126              	.LVL223:
 1127              	@ 215 "/home/formica/chibios/chibios/test/testmbox.c" 1
 1128 0652 83F31188 		msr     BASEPRI, r3
 1129              	@ 0 "" 2
 1130              	.LVL224:
 1131              		.thumb
 1132              	.LBE37:
 1133              	.LBB38:
 1134              		.loc 1 216 0 is_stmt 1 discriminator 2
 1135 0656 2023     		movs	r3, #32
 1136              	.LVL225:
 1137              	@ 216 "/home/formica/chibios/chibios/test/testmbox.c" 1
 1138 0658 83F31188 		msr     BASEPRI, r3
 1139              	@ 0 "" 2
 1140              	.LVL226:
ARM GAS  /tmp/cce4pmgX.s 			page 21


 1141              		.thumb
 1142              	.LBE38:
 1143 065c FFF7FEFF 		bl	dbg_check_lock
 1144              	.LVL227:
 1145 0660 AB69     		ldr	r3, [r5, #24]
 1146 0662 2A20     		movs	r0, #42
 1147 0664 D3F10101 		rsbs	r1, r3, #1
 1148 0668 38BF     		it	cc
 1149 066a 0021     		movcc	r1, #0
 1150 066c FFF7FEFF 		bl	_test_assert
 1151              	.LVL228:
 1152 0670 0028     		cmp	r0, #0
 1153 0672 4ED1     		bne	.L25
 1154 0674 FFF7FEFF 		bl	dbg_check_unlock
 1155              	.LVL229:
 1156              	.LBB39:
 1157 0678 2346     		mov	r3, r4
 1158              	.LVL230:
 1159              	@ 216 "/home/formica/chibios/chibios/test/testmbox.c" 1
 1160 067a 83F31188 		msr     BASEPRI, r3
 1161              	@ 0 "" 2
 1162              	.LVL231:
 1163              		.thumb
 1164              	.LBE39:
 1165              		.loc 1 217 0 discriminator 2
 1166 067e A968     		ldr	r1, [r5, #8]
 1167 0680 EA68     		ldr	r2, [r5, #12]
 1168 0682 2B20     		movs	r0, #43
 1169 0684 B2EB010C 		subs	ip, r2, r1
 1170 0688 DCF10003 		rsbs	r3, ip, #0
 1171              	.LVL232:
 1172 068c 53EB0C01 		adcs	r1, r3, ip
 1173 0690 FFF7FEFF 		bl	_test_assert
 1174              	.LVL233:
 1175 0694 0028     		cmp	r0, #0
 1176 0696 7FF408AD 		bne	.L1
 1177              		.loc 1 222 0
 1178 069a 2846     		mov	r0, r5
 1179 069c FFF7FEFF 		bl	chMBReset
 1180              	.LVL234:
 1181              	.LBB40:
 1182              		.loc 1 227 0
 1183 06a0 2023     		movs	r3, #32
 1184              	.LVL235:
 1185              	@ 227 "/home/formica/chibios/chibios/test/testmbox.c" 1
 1186 06a2 83F31188 		msr     BASEPRI, r3
 1187              	@ 0 "" 2
 1188              	.LVL236:
 1189              		.thumb
 1190              	.LBE40:
 1191 06a6 FFF7FEFF 		bl	dbg_check_lock
 1192              	.LVL237:
 1193 06aa 6A6A     		ldr	r2, [r5, #36]
 1194 06ac 2C20     		movs	r0, #44
 1195 06ae B2F1050E 		subs	lr, r2, #5
 1196 06b2 DEF10001 		rsbs	r1, lr, #0
 1197 06b6 51EB0E01 		adcs	r1, r1, lr
ARM GAS  /tmp/cce4pmgX.s 			page 22


 1198 06ba FFF7FEFF 		bl	_test_assert
 1199              	.LVL238:
 1200 06be 40BB     		cbnz	r0, .L25
 1201              		.loc 1 227 0 is_stmt 0 discriminator 2
 1202 06c0 FFF7FEFF 		bl	dbg_check_unlock
 1203              	.LVL239:
 1204              	.LBB41:
 1205 06c4 2346     		mov	r3, r4
 1206              	.LVL240:
 1207              	@ 227 "/home/formica/chibios/chibios/test/testmbox.c" 1
 1208 06c6 83F31188 		msr     BASEPRI, r3
 1209              	@ 0 "" 2
 1210              	.LVL241:
 1211              		.thumb
 1212              	.LBE41:
 1213              	.LBB42:
 1214              		.loc 1 228 0 is_stmt 1 discriminator 2
 1215 06ca 2023     		movs	r3, #32
 1216              	.LVL242:
 1217              	@ 228 "/home/formica/chibios/chibios/test/testmbox.c" 1
 1218 06cc 83F31188 		msr     BASEPRI, r3
 1219              	@ 0 "" 2
 1220              	.LVL243:
 1221              		.thumb
 1222              	.LBE42:
 1223 06d0 FFF7FEFF 		bl	dbg_check_lock
 1224              	.LVL244:
 1225 06d4 AB69     		ldr	r3, [r5, #24]
 1226 06d6 2D20     		movs	r0, #45
 1227 06d8 D3F10101 		rsbs	r1, r3, #1
 1228 06dc 38BF     		it	cc
 1229 06de 0021     		movcc	r1, #0
 1230 06e0 FFF7FEFF 		bl	_test_assert
 1231              	.LVL245:
 1232 06e4 A8B9     		cbnz	r0, .L25
 1233 06e6 FFF7FEFF 		bl	dbg_check_unlock
 1234              	.LVL246:
 1235              	.LBB43:
 1236 06ea 2346     		mov	r3, r4
 1237              	.LVL247:
 1238              	@ 228 "/home/formica/chibios/chibios/test/testmbox.c" 1
 1239 06ec 83F31188 		msr     BASEPRI, r3
 1240              	@ 0 "" 2
 1241              	.LVL248:
 1242              		.thumb
 1243              	.LBE43:
 1244              	.LBB44:
 1245              		.loc 1 229 0 discriminator 2
 1246 06f0 2023     		movs	r3, #32
 1247              	.LVL249:
 1248              	@ 229 "/home/formica/chibios/chibios/test/testmbox.c" 1
 1249 06f2 83F31188 		msr     BASEPRI, r3
 1250              	@ 0 "" 2
 1251              	.LVL250:
 1252              		.thumb
 1253              	.LBE44:
 1254 06f6 FFF7FEFF 		bl	dbg_check_lock
ARM GAS  /tmp/cce4pmgX.s 			page 23


 1255              	.LVL251:
 1256 06fa 2A68     		ldr	r2, [r5, #0]
 1257 06fc A968     		ldr	r1, [r5, #8]
 1258 06fe 2E20     		movs	r0, #46
 1259 0700 531A     		subs	r3, r2, r1
 1260 0702 5A42     		rsbs	r2, r3, #0
 1261 0704 52EB0301 		adcs	r1, r2, r3
 1262 0708 FFF7FEFF 		bl	_test_assert
 1263              	.LVL252:
 1264 070c 0028     		cmp	r0, #0
 1265 070e 3FF44CAD 		beq	.L19
 1266              	.L25:
 1267              		.loc 1 229 0 is_stmt 0 discriminator 1
 1268 0712 FFF7FEFF 		bl	dbg_check_unlock
 1269              	.LVL253:
 1270              	.LBB45:
 1271 0716 2346     		mov	r3, r4
 1272              	@ 229 "/home/formica/chibios/chibios/test/testmbox.c" 1
 1273 0718 83F31188 		msr     BASEPRI, r3
 1274              	@ 0 "" 2
 1275              	.LVL254:
 1276              		.thumb
 1277 071c C5E4     		b	.L1
 1278              	.LVL255:
 1279              	.L27:
 1280              	.LBE45:
 1281              		.loc 1 191 0 is_stmt 1 discriminator 1
 1282 071e FFF7FEFF 		bl	dbg_check_unlock
 1283              	.LVL256:
 1284              	.LBB46:
 1285 0722 2B46     		mov	r3, r5
 1286              	@ 191 "/home/formica/chibios/chibios/test/testmbox.c" 1
 1287 0724 83F31188 		msr     BASEPRI, r3
 1288              	@ 0 "" 2
 1289              	.LVL257:
 1290              		.thumb
 1291 0728 BFE4     		b	.L1
 1292              	.L36:
 1293 072a 00BF     		.align	2
 1294              	.L35:
 1295 072c 00000000 		.word	.LANCHOR0
 1296 0730 00000000 		.word	.LC0
 1297              	.LBE46:
 1298              		.cfi_endproc
 1299              	.LFE8:
 1300              		.size	mbox1_execute, .-mbox1_execute
 1301 0734 AFF30080 		.section	.text.mbox1_setup,"ax",%progbits
 1301      AFF30080 
 1301      AFF30080 
 1302              		.align	2
 1303              		.p2align 4,,15
 1304              		.thumb
 1305              		.thumb_func
 1306              		.type	mbox1_setup, %function
 1307              	mbox1_setup:
 1308              	.LFB7:
 1309              		.loc 1 82 0
ARM GAS  /tmp/cce4pmgX.s 			page 24


 1310              		.cfi_startproc
 1311              		@ args = 0, pretend = 0, frame = 0
 1312              		@ frame_needed = 0, uses_anonymous_args = 0
 1313              		@ link register save eliminated.
 1314              		.loc 1 84 0
 1315 0000 40F20000 		movw	r0, #:lower16:.LANCHOR0
 1316 0004 40F20001 		movw	r1, #:lower16:test
 1317 0008 C0F20000 		movt	r0, #:upper16:.LANCHOR0
 1318 000c C0F20001 		movt	r1, #:upper16:test
 1319 0010 0522     		movs	r2, #5
 1320              		.loc 1 85 0
 1321              		.loc 1 84 0
 1322 0012 FFF7FEBF 		b	chMBInit
 1323              	.LVL258:
 1324              		.cfi_endproc
 1325              	.LFE7:
 1326              		.size	mbox1_setup, .-mbox1_setup
 1327              		.global	patternmbox
 1328              		.global	testmbox1
 1329 0016 00BFAFF3 		.section	.data.mb1,"aw",%progbits
 1329      0080AFF3 
 1329      0080
 1330              		.align	2
 1331              		.set	.LANCHOR0,. + 0
 1332              		.type	mb1, %object
 1333              		.size	mb1, 40
 1334              	mb1:
 1335 0000 00000000 		.word	test
 1336 0004 14000000 		.word	test+20
 1337 0008 00000000 		.word	test
 1338 000c 00000000 		.word	test
 1339 0010 10000000 		.word	mb1+16
 1340 0014 10000000 		.word	mb1+16
 1341 0018 00000000 		.word	0
 1342 001c 1C000000 		.word	mb1+28
 1343 0020 1C000000 		.word	mb1+28
 1344 0024 05000000 		.word	5
 1345              		.section	.rodata.patternmbox,"a",%progbits
 1346              		.align	2
 1347              		.type	patternmbox, %object
 1348              		.size	patternmbox, 8
 1349              	patternmbox:
 1350 0000 00000000 		.word	testmbox1
 1351 0004 00000000 		.word	0
 1352              		.section	.rodata.str1.4,"aMS",%progbits,1
 1353              		.align	2
 1354              	.LC0:
 1355 0000 41424344 		.ascii	"ABCDE\000"
 1355      4500
 1356 0006 0000     		.space	2
 1357              	.LC1:
 1358 0008 4D61696C 		.ascii	"Mailboxes, queuing and timeouts\000"
 1358      626F7865 
 1358      732C2071 
 1358      75657569 
 1358      6E672061 
 1359              		.section	.rodata.testmbox1,"a",%progbits
ARM GAS  /tmp/cce4pmgX.s 			page 25


 1360              		.align	2
 1361              		.type	testmbox1, %object
 1362              		.size	testmbox1, 16
 1363              	testmbox1:
 1364 0000 08000000 		.word	.LC1
 1365 0004 00000000 		.word	mbox1_setup
 1366 0008 00000000 		.word	0
 1367 000c 00000000 		.word	mbox1_execute
 1368              		.text
 1369              	.Letext0:
 1370              		.file 2 "/home/formica/toolchains/gcc-arm-none-eabi-4_7-2012q4/bin/../lib/gcc/arm-none-eabi/4.7.3/
 1371              		.file 3 "/home/formica/chibios/chibios/os/ports/GCC/ARMCMx/chtypes.h"
 1372              		.file 4 "/home/formica/chibios/chibios/os/kernel/include/chlists.h"
 1373              		.file 5 "/home/formica/chibios/chibios/os/kernel/include/chthreads.h"
 1374              		.file 6 "/home/formica/chibios/chibios/os/ports/GCC/ARMCMx/chcore_v7m.h"
 1375              		.file 7 "/home/formica/chibios/chibios/os/kernel/include/chsem.h"
 1376              		.file 8 "/home/formica/chibios/chibios/os/kernel/include/chmtx.h"
 1377              		.file 9 "/home/formica/chibios/chibios/os/kernel/include/chmboxes.h"
 1378              		.file 10 "/home/formica/chibios/chibios/test/test.h"
 1379              		.file 11 "/home/formica/chibios/chibios/os/kernel/include/chdebug.h"
 1380              		.section	.debug_info,"",%progbits
 1381              	.Ldebug_info0:
 1382 0000 D0150000 		.4byte	0x15d0
 1383 0004 0200     		.2byte	0x2
 1384 0006 00000000 		.4byte	.Ldebug_abbrev0
 1385 000a 04       		.byte	0x4
 1386 000b 01       		.uleb128 0x1
 1387 000c 1E010000 		.4byte	.LASF92
 1388 0010 01       		.byte	0x1
 1389 0011 23030000 		.4byte	.LASF93
 1390 0015 00000000 		.4byte	.Ldebug_ranges0+0
 1391 0019 00000000 		.4byte	0
 1392 001d 00000000 		.4byte	0
 1393 0021 00000000 		.4byte	.Ldebug_line0
 1394 0025 02       		.uleb128 0x2
 1395 0026 04       		.byte	0x4
 1396 0027 05       		.byte	0x5
 1397 0028 696E7400 		.ascii	"int\000"
 1398 002c 03       		.uleb128 0x3
 1399 002d 04       		.byte	0x4
 1400 002e 07       		.byte	0x7
 1401 002f FE000000 		.4byte	.LASF0
 1402 0033 03       		.uleb128 0x3
 1403 0034 01       		.byte	0x1
 1404 0035 06       		.byte	0x6
 1405 0036 86000000 		.4byte	.LASF1
 1406 003a 04       		.uleb128 0x4
 1407 003b D3030000 		.4byte	.LASF5
 1408 003f 02       		.byte	0x2
 1409 0040 2A       		.byte	0x2a
 1410 0041 45000000 		.4byte	0x45
 1411 0045 03       		.uleb128 0x3
 1412 0046 01       		.byte	0x1
 1413 0047 08       		.byte	0x8
 1414 0048 B8020000 		.4byte	.LASF2
 1415 004c 03       		.uleb128 0x3
 1416 004d 02       		.byte	0x2
ARM GAS  /tmp/cce4pmgX.s 			page 26


 1417 004e 05       		.byte	0x5
 1418 004f D7020000 		.4byte	.LASF3
 1419 0053 03       		.uleb128 0x3
 1420 0054 02       		.byte	0x2
 1421 0055 07       		.byte	0x7
 1422 0056 A1010000 		.4byte	.LASF4
 1423 005a 04       		.uleb128 0x4
 1424 005b B0020000 		.4byte	.LASF6
 1425 005f 02       		.byte	0x2
 1426 0060 4F       		.byte	0x4f
 1427 0061 65000000 		.4byte	0x65
 1428 0065 03       		.uleb128 0x3
 1429 0066 04       		.byte	0x4
 1430 0067 05       		.byte	0x5
 1431 0068 C2000000 		.4byte	.LASF7
 1432 006c 04       		.uleb128 0x4
 1433 006d 1A030000 		.4byte	.LASF8
 1434 0071 02       		.byte	0x2
 1435 0072 50       		.byte	0x50
 1436 0073 77000000 		.4byte	0x77
 1437 0077 03       		.uleb128 0x3
 1438 0078 04       		.byte	0x4
 1439 0079 07       		.byte	0x7
 1440 007a 67010000 		.4byte	.LASF9
 1441 007e 03       		.uleb128 0x3
 1442 007f 08       		.byte	0x8
 1443 0080 05       		.byte	0x5
 1444 0081 78000000 		.4byte	.LASF10
 1445 0085 04       		.uleb128 0x4
 1446 0086 0D000000 		.4byte	.LASF11
 1447 008a 02       		.byte	0x2
 1448 008b 78       		.byte	0x78
 1449 008c 90000000 		.4byte	0x90
 1450 0090 03       		.uleb128 0x3
 1451 0091 08       		.byte	0x8
 1452 0092 07       		.byte	0x7
 1453 0093 37000000 		.4byte	.LASF12
 1454 0097 04       		.uleb128 0x4
 1455 0098 9A000000 		.4byte	.LASF13
 1456 009c 03       		.byte	0x3
 1457 009d 2E       		.byte	0x2e
 1458 009e 5A000000 		.4byte	0x5a
 1459 00a2 04       		.uleb128 0x4
 1460 00a3 C5010000 		.4byte	.LASF14
 1461 00a7 03       		.byte	0x3
 1462 00a8 2F       		.byte	0x2f
 1463 00a9 3A000000 		.4byte	0x3a
 1464 00ad 04       		.uleb128 0x4
 1465 00ae CB000000 		.4byte	.LASF15
 1466 00b2 03       		.byte	0x3
 1467 00b3 30       		.byte	0x30
 1468 00b4 3A000000 		.4byte	0x3a
 1469 00b8 04       		.uleb128 0x4
 1470 00b9 91020000 		.4byte	.LASF16
 1471 00bd 03       		.byte	0x3
 1472 00be 31       		.byte	0x31
 1473 00bf 3A000000 		.4byte	0x3a
ARM GAS  /tmp/cce4pmgX.s 			page 27


 1474 00c3 04       		.uleb128 0x4
 1475 00c4 A8020000 		.4byte	.LASF17
 1476 00c8 03       		.byte	0x3
 1477 00c9 32       		.byte	0x32
 1478 00ca 6C000000 		.4byte	0x6c
 1479 00ce 04       		.uleb128 0x4
 1480 00cf BF010000 		.4byte	.LASF18
 1481 00d3 03       		.byte	0x3
 1482 00d4 33       		.byte	0x33
 1483 00d5 5A000000 		.4byte	0x5a
 1484 00d9 04       		.uleb128 0x4
 1485 00da E5010000 		.4byte	.LASF19
 1486 00de 03       		.byte	0x3
 1487 00df 35       		.byte	0x35
 1488 00e0 6C000000 		.4byte	0x6c
 1489 00e4 04       		.uleb128 0x4
 1490 00e5 5D030000 		.4byte	.LASF20
 1491 00e9 03       		.byte	0x3
 1492 00ea 36       		.byte	0x36
 1493 00eb 6C000000 		.4byte	0x6c
 1494 00ef 04       		.uleb128 0x4
 1495 00f0 ED000000 		.4byte	.LASF21
 1496 00f4 03       		.byte	0x3
 1497 00f5 37       		.byte	0x37
 1498 00f6 5A000000 		.4byte	0x5a
 1499 00fa 04       		.uleb128 0x4
 1500 00fb FF020000 		.4byte	.LASF22
 1501 00ff 04       		.byte	0x4
 1502 0100 2A       		.byte	0x2a
 1503 0101 05010000 		.4byte	0x105
 1504 0105 05       		.uleb128 0x5
 1505 0106 FF020000 		.4byte	.LASF22
 1506 010a 4C       		.byte	0x4c
 1507 010b 05       		.byte	0x5
 1508 010c 5E       		.byte	0x5e
 1509 010d 2A020000 		.4byte	0x22a
 1510 0111 06       		.uleb128 0x6
 1511 0112 F0020000 		.4byte	.LASF23
 1512 0116 05       		.byte	0x5
 1513 0117 5F       		.byte	0x5f
 1514 0118 4F020000 		.4byte	0x24f
 1515 011c 02       		.byte	0x2
 1516 011d 23       		.byte	0x23
 1517 011e 00       		.uleb128 0
 1518 011f 06       		.uleb128 0x6
 1519 0120 99020000 		.4byte	.LASF24
 1520 0124 05       		.byte	0x5
 1521 0125 61       		.byte	0x61
 1522 0126 4F020000 		.4byte	0x24f
 1523 012a 02       		.byte	0x2
 1524 012b 23       		.byte	0x23
 1525 012c 04       		.uleb128 0x4
 1526 012d 06       		.uleb128 0x6
 1527 012e 71000000 		.4byte	.LASF25
 1528 0132 05       		.byte	0x5
 1529 0133 63       		.byte	0x63
 1530 0134 C3000000 		.4byte	0xc3
ARM GAS  /tmp/cce4pmgX.s 			page 28


 1531 0138 02       		.byte	0x2
 1532 0139 23       		.byte	0x23
 1533 013a 08       		.uleb128 0x8
 1534 013b 06       		.uleb128 0x6
 1535 013c FE030000 		.4byte	.LASF26
 1536 0140 05       		.byte	0x5
 1537 0141 64       		.byte	0x64
 1538 0142 27030000 		.4byte	0x327
 1539 0146 02       		.byte	0x2
 1540 0147 23       		.byte	0x23
 1541 0148 0C       		.uleb128 0xc
 1542 0149 06       		.uleb128 0x6
 1543 014a D4000000 		.4byte	.LASF27
 1544 014e 05       		.byte	0x5
 1545 014f 66       		.byte	0x66
 1546 0150 4F020000 		.4byte	0x24f
 1547 0154 02       		.byte	0x2
 1548 0155 23       		.byte	0x23
 1549 0156 10       		.uleb128 0x10
 1550 0157 06       		.uleb128 0x6
 1551 0158 28020000 		.4byte	.LASF28
 1552 015c 05       		.byte	0x5
 1553 015d 67       		.byte	0x67
 1554 015e 4F020000 		.4byte	0x24f
 1555 0162 02       		.byte	0x2
 1556 0163 23       		.byte	0x23
 1557 0164 14       		.uleb128 0x14
 1558 0165 06       		.uleb128 0x6
 1559 0166 E2030000 		.4byte	.LASF29
 1560 016a 05       		.byte	0x5
 1561 016b 6E       		.byte	0x6e
 1562 016c 75040000 		.4byte	0x475
 1563 0170 02       		.byte	0x2
 1564 0171 23       		.byte	0x23
 1565 0172 18       		.uleb128 0x18
 1566 0173 06       		.uleb128 0x6
 1567 0174 F3000000 		.4byte	.LASF30
 1568 0178 05       		.byte	0x5
 1569 0179 74       		.byte	0x74
 1570 017a 87040000 		.4byte	0x487
 1571 017e 02       		.byte	0x2
 1572 017f 23       		.byte	0x23
 1573 0180 1C       		.uleb128 0x1c
 1574 0181 06       		.uleb128 0x6
 1575 0182 E1020000 		.4byte	.LASF31
 1576 0186 05       		.byte	0x5
 1577 0187 79       		.byte	0x79
 1578 0188 AD000000 		.4byte	0xad
 1579 018c 02       		.byte	0x2
 1580 018d 23       		.byte	0x23
 1581 018e 20       		.uleb128 0x20
 1582 018f 06       		.uleb128 0x6
 1583 0190 F7020000 		.4byte	.LASF32
 1584 0194 05       		.byte	0x5
 1585 0195 7D       		.byte	0x7d
 1586 0196 A2000000 		.4byte	0xa2
 1587 019a 02       		.byte	0x2
ARM GAS  /tmp/cce4pmgX.s 			page 29


 1588 019b 23       		.byte	0x23
 1589 019c 21       		.uleb128 0x21
 1590 019d 06       		.uleb128 0x6
 1591 019e CC030000 		.4byte	.LASF33
 1592 01a2 05       		.byte	0x5
 1593 01a3 82       		.byte	0x82
 1594 01a4 B8000000 		.4byte	0xb8
 1595 01a8 02       		.byte	0x2
 1596 01a9 23       		.byte	0x23
 1597 01aa 22       		.uleb128 0x22
 1598 01ab 06       		.uleb128 0x6
 1599 01ac 79030000 		.4byte	.LASF34
 1600 01b0 05       		.byte	0x5
 1601 01b1 89       		.byte	0x89
 1602 01b2 51030000 		.4byte	0x351
 1603 01b6 02       		.byte	0x2
 1604 01b7 23       		.byte	0x23
 1605 01b8 24       		.uleb128 0x24
 1606 01b9 07       		.uleb128 0x7
 1607 01ba 705F7500 		.ascii	"p_u\000"
 1608 01be 05       		.byte	0x5
 1609 01bf AE       		.byte	0xae
 1610 01c0 40040000 		.4byte	0x440
 1611 01c4 02       		.byte	0x2
 1612 01c5 23       		.byte	0x23
 1613 01c6 28       		.uleb128 0x28
 1614 01c7 06       		.uleb128 0x6
 1615 01c8 04040000 		.4byte	.LASF35
 1616 01cc 05       		.byte	0x5
 1617 01cd B3       		.byte	0xb3
 1618 01ce 77020000 		.4byte	0x277
 1619 01d2 02       		.byte	0x2
 1620 01d3 23       		.byte	0x23
 1621 01d4 2C       		.uleb128 0x2c
 1622 01d5 06       		.uleb128 0x6
 1623 01d6 95030000 		.4byte	.LASF36
 1624 01da 05       		.byte	0x5
 1625 01db B9       		.byte	0xb9
 1626 01dc 55020000 		.4byte	0x255
 1627 01e0 02       		.byte	0x2
 1628 01e1 23       		.byte	0x23
 1629 01e2 30       		.uleb128 0x30
 1630 01e3 06       		.uleb128 0x6
 1631 01e4 00000000 		.4byte	.LASF37
 1632 01e8 05       		.byte	0x5
 1633 01e9 BD       		.byte	0xbd
 1634 01ea CE000000 		.4byte	0xce
 1635 01ee 02       		.byte	0x2
 1636 01ef 23       		.byte	0x23
 1637 01f0 38       		.uleb128 0x38
 1638 01f1 06       		.uleb128 0x6
 1639 01f2 0F030000 		.4byte	.LASF38
 1640 01f6 05       		.byte	0x5
 1641 01f7 C3       		.byte	0xc3
 1642 01f8 D9000000 		.4byte	0xd9
 1643 01fc 02       		.byte	0x2
 1644 01fd 23       		.byte	0x23
ARM GAS  /tmp/cce4pmgX.s 			page 30


 1645 01fe 3C       		.uleb128 0x3c
 1646 01ff 06       		.uleb128 0x6
 1647 0200 CD020000 		.4byte	.LASF39
 1648 0204 05       		.byte	0x5
 1649 0205 CA       		.byte	0xca
 1650 0206 8D040000 		.4byte	0x48d
 1651 020a 02       		.byte	0x2
 1652 020b 23       		.byte	0x23
 1653 020c 40       		.uleb128 0x40
 1654 020d 06       		.uleb128 0x6
 1655 020e 67030000 		.4byte	.LASF40
 1656 0212 05       		.byte	0x5
 1657 0213 CE       		.byte	0xce
 1658 0214 C3000000 		.4byte	0xc3
 1659 0218 02       		.byte	0x2
 1660 0219 23       		.byte	0x23
 1661 021a 44       		.uleb128 0x44
 1662 021b 06       		.uleb128 0x6
 1663 021c 92000000 		.4byte	.LASF41
 1664 0220 05       		.byte	0x5
 1665 0221 D4       		.byte	0xd4
 1666 0222 8D020000 		.4byte	0x28d
 1667 0226 02       		.byte	0x2
 1668 0227 23       		.byte	0x23
 1669 0228 48       		.uleb128 0x48
 1670 0229 00       		.byte	0
 1671 022a 08       		.uleb128 0x8
 1672 022b 08       		.byte	0x8
 1673 022c 04       		.byte	0x4
 1674 022d 61       		.byte	0x61
 1675 022e 4F020000 		.4byte	0x24f
 1676 0232 06       		.uleb128 0x6
 1677 0233 F0020000 		.4byte	.LASF23
 1678 0237 04       		.byte	0x4
 1679 0238 62       		.byte	0x62
 1680 0239 4F020000 		.4byte	0x24f
 1681 023d 02       		.byte	0x2
 1682 023e 23       		.byte	0x23
 1683 023f 00       		.uleb128 0
 1684 0240 06       		.uleb128 0x6
 1685 0241 99020000 		.4byte	.LASF24
 1686 0245 04       		.byte	0x4
 1687 0246 64       		.byte	0x64
 1688 0247 4F020000 		.4byte	0x24f
 1689 024b 02       		.byte	0x2
 1690 024c 23       		.byte	0x23
 1691 024d 04       		.uleb128 0x4
 1692 024e 00       		.byte	0
 1693 024f 09       		.uleb128 0x9
 1694 0250 04       		.byte	0x4
 1695 0251 FA000000 		.4byte	0xfa
 1696 0255 04       		.uleb128 0x4
 1697 0256 30020000 		.4byte	.LASF42
 1698 025a 04       		.byte	0x4
 1699 025b 66       		.byte	0x66
 1700 025c 2A020000 		.4byte	0x22a
 1701 0260 08       		.uleb128 0x8
ARM GAS  /tmp/cce4pmgX.s 			page 31


 1702 0261 04       		.byte	0x4
 1703 0262 04       		.byte	0x4
 1704 0263 6B       		.byte	0x6b
 1705 0264 77020000 		.4byte	0x277
 1706 0268 06       		.uleb128 0x6
 1707 0269 F0020000 		.4byte	.LASF23
 1708 026d 04       		.byte	0x4
 1709 026e 6D       		.byte	0x6d
 1710 026f 4F020000 		.4byte	0x24f
 1711 0273 02       		.byte	0x2
 1712 0274 23       		.byte	0x23
 1713 0275 00       		.uleb128 0
 1714 0276 00       		.byte	0
 1715 0277 04       		.uleb128 0x4
 1716 0278 D9010000 		.4byte	.LASF43
 1717 027c 04       		.byte	0x4
 1718 027d 70       		.byte	0x70
 1719 027e 60020000 		.4byte	0x260
 1720 0282 04       		.uleb128 0x4
 1721 0283 E4000000 		.4byte	.LASF44
 1722 0287 06       		.byte	0x6
 1723 0288 D7       		.byte	0xd7
 1724 0289 8D020000 		.4byte	0x28d
 1725 028d 0A       		.uleb128 0xa
 1726 028e 04       		.byte	0x4
 1727 028f 04       		.uleb128 0x4
 1728 0290 01020000 		.4byte	.LASF45
 1729 0294 06       		.byte	0x6
 1730 0295 DD       		.byte	0xdd
 1731 0296 85000000 		.4byte	0x85
 1732 029a 05       		.uleb128 0x5
 1733 029b 8E030000 		.4byte	.LASF46
 1734 029f 24       		.byte	0x24
 1735 02a0 06       		.byte	0x6
 1736 02a1 FE       		.byte	0xfe
 1737 02a2 27030000 		.4byte	0x327
 1738 02a6 0B       		.uleb128 0xb
 1739 02a7 723400   		.ascii	"r4\000"
 1740 02aa 06       		.byte	0x6
 1741 02ab 1101     		.2byte	0x111
 1742 02ad 82020000 		.4byte	0x282
 1743 02b1 02       		.byte	0x2
 1744 02b2 23       		.byte	0x23
 1745 02b3 00       		.uleb128 0
 1746 02b4 0B       		.uleb128 0xb
 1747 02b5 723500   		.ascii	"r5\000"
 1748 02b8 06       		.byte	0x6
 1749 02b9 1201     		.2byte	0x112
 1750 02bb 82020000 		.4byte	0x282
 1751 02bf 02       		.byte	0x2
 1752 02c0 23       		.byte	0x23
 1753 02c1 04       		.uleb128 0x4
 1754 02c2 0B       		.uleb128 0xb
 1755 02c3 723600   		.ascii	"r6\000"
 1756 02c6 06       		.byte	0x6
 1757 02c7 1301     		.2byte	0x113
 1758 02c9 82020000 		.4byte	0x282
ARM GAS  /tmp/cce4pmgX.s 			page 32


 1759 02cd 02       		.byte	0x2
 1760 02ce 23       		.byte	0x23
 1761 02cf 08       		.uleb128 0x8
 1762 02d0 0B       		.uleb128 0xb
 1763 02d1 723700   		.ascii	"r7\000"
 1764 02d4 06       		.byte	0x6
 1765 02d5 1401     		.2byte	0x114
 1766 02d7 82020000 		.4byte	0x282
 1767 02db 02       		.byte	0x2
 1768 02dc 23       		.byte	0x23
 1769 02dd 0C       		.uleb128 0xc
 1770 02de 0B       		.uleb128 0xb
 1771 02df 723800   		.ascii	"r8\000"
 1772 02e2 06       		.byte	0x6
 1773 02e3 1501     		.2byte	0x115
 1774 02e5 82020000 		.4byte	0x282
 1775 02e9 02       		.byte	0x2
 1776 02ea 23       		.byte	0x23
 1777 02eb 10       		.uleb128 0x10
 1778 02ec 0B       		.uleb128 0xb
 1779 02ed 723900   		.ascii	"r9\000"
 1780 02f0 06       		.byte	0x6
 1781 02f1 1601     		.2byte	0x116
 1782 02f3 82020000 		.4byte	0x282
 1783 02f7 02       		.byte	0x2
 1784 02f8 23       		.byte	0x23
 1785 02f9 14       		.uleb128 0x14
 1786 02fa 0B       		.uleb128 0xb
 1787 02fb 72313000 		.ascii	"r10\000"
 1788 02ff 06       		.byte	0x6
 1789 0300 1701     		.2byte	0x117
 1790 0302 82020000 		.4byte	0x282
 1791 0306 02       		.byte	0x2
 1792 0307 23       		.byte	0x23
 1793 0308 18       		.uleb128 0x18
 1794 0309 0B       		.uleb128 0xb
 1795 030a 72313100 		.ascii	"r11\000"
 1796 030e 06       		.byte	0x6
 1797 030f 1801     		.2byte	0x118
 1798 0311 82020000 		.4byte	0x282
 1799 0315 02       		.byte	0x2
 1800 0316 23       		.byte	0x23
 1801 0317 1C       		.uleb128 0x1c
 1802 0318 0B       		.uleb128 0xb
 1803 0319 6C7200   		.ascii	"lr\000"
 1804 031c 06       		.byte	0x6
 1805 031d 1901     		.2byte	0x119
 1806 031f 82020000 		.4byte	0x282
 1807 0323 02       		.byte	0x2
 1808 0324 23       		.byte	0x23
 1809 0325 20       		.uleb128 0x20
 1810 0326 00       		.byte	0
 1811 0327 0C       		.uleb128 0xc
 1812 0328 99010000 		.4byte	.LASF47
 1813 032c 04       		.byte	0x4
 1814 032d 06       		.byte	0x6
 1815 032e 2301     		.2byte	0x123
ARM GAS  /tmp/cce4pmgX.s 			page 33


 1816 0330 44030000 		.4byte	0x344
 1817 0334 0B       		.uleb128 0xb
 1818 0335 72313300 		.ascii	"r13\000"
 1819 0339 06       		.byte	0x6
 1820 033a 2401     		.2byte	0x124
 1821 033c 44030000 		.4byte	0x344
 1822 0340 02       		.byte	0x2
 1823 0341 23       		.byte	0x23
 1824 0342 00       		.uleb128 0
 1825 0343 00       		.byte	0
 1826 0344 09       		.uleb128 0x9
 1827 0345 04       		.byte	0x4
 1828 0346 9A020000 		.4byte	0x29a
 1829 034a 03       		.uleb128 0x3
 1830 034b 04       		.byte	0x4
 1831 034c 07       		.byte	0x7
 1832 034d 0C020000 		.4byte	.LASF48
 1833 0351 0D       		.uleb128 0xd
 1834 0352 E4000000 		.4byte	0xe4
 1835 0356 05       		.uleb128 0x5
 1836 0357 AA030000 		.4byte	.LASF49
 1837 035b 0C       		.byte	0xc
 1838 035c 07       		.byte	0x7
 1839 035d 2C       		.byte	0x2c
 1840 035e 7F030000 		.4byte	0x37f
 1841 0362 06       		.uleb128 0x6
 1842 0363 DC000000 		.4byte	.LASF50
 1843 0367 07       		.byte	0x7
 1844 0368 2D       		.byte	0x2d
 1845 0369 55020000 		.4byte	0x255
 1846 036d 02       		.byte	0x2
 1847 036e 23       		.byte	0x23
 1848 036f 00       		.uleb128 0
 1849 0370 06       		.uleb128 0x6
 1850 0371 93010000 		.4byte	.LASF51
 1851 0375 07       		.byte	0x7
 1852 0376 2F       		.byte	0x2f
 1853 0377 EF000000 		.4byte	0xef
 1854 037b 02       		.byte	0x2
 1855 037c 23       		.byte	0x23
 1856 037d 08       		.uleb128 0x8
 1857 037e 00       		.byte	0
 1858 037f 04       		.uleb128 0x4
 1859 0380 AA030000 		.4byte	.LASF49
 1860 0384 07       		.byte	0x7
 1861 0385 30       		.byte	0x30
 1862 0386 56030000 		.4byte	0x356
 1863 038a 05       		.uleb128 0x5
 1864 038b F1010000 		.4byte	.LASF52
 1865 038f 10       		.byte	0x10
 1866 0390 08       		.byte	0x8
 1867 0391 2C       		.byte	0x2c
 1868 0392 C1030000 		.4byte	0x3c1
 1869 0396 06       		.uleb128 0x6
 1870 0397 A1000000 		.4byte	.LASF53
 1871 039b 08       		.byte	0x8
 1872 039c 2D       		.byte	0x2d
ARM GAS  /tmp/cce4pmgX.s 			page 34


 1873 039d 55020000 		.4byte	0x255
 1874 03a1 02       		.byte	0x2
 1875 03a2 23       		.byte	0x23
 1876 03a3 00       		.uleb128 0
 1877 03a4 06       		.uleb128 0x6
 1878 03a5 F6030000 		.4byte	.LASF54
 1879 03a9 08       		.byte	0x8
 1880 03aa 2F       		.byte	0x2f
 1881 03ab 4F020000 		.4byte	0x24f
 1882 03af 02       		.byte	0x2
 1883 03b0 23       		.byte	0x23
 1884 03b1 08       		.uleb128 0x8
 1885 03b2 06       		.uleb128 0x6
 1886 03b3 56030000 		.4byte	.LASF55
 1887 03b7 08       		.byte	0x8
 1888 03b8 31       		.byte	0x31
 1889 03b9 C1030000 		.4byte	0x3c1
 1890 03bd 02       		.byte	0x2
 1891 03be 23       		.byte	0x23
 1892 03bf 0C       		.uleb128 0xc
 1893 03c0 00       		.byte	0
 1894 03c1 09       		.uleb128 0x9
 1895 03c2 04       		.byte	0x4
 1896 03c3 8A030000 		.4byte	0x38a
 1897 03c7 04       		.uleb128 0x4
 1898 03c8 F1010000 		.4byte	.LASF52
 1899 03cc 08       		.byte	0x8
 1900 03cd 33       		.byte	0x33
 1901 03ce 8A030000 		.4byte	0x38a
 1902 03d2 08       		.uleb128 0x8
 1903 03d3 28       		.byte	0x28
 1904 03d4 09       		.byte	0x9
 1905 03d5 33       		.byte	0x33
 1906 03d6 2F040000 		.4byte	0x42f
 1907 03da 06       		.uleb128 0x6
 1908 03db 59020000 		.4byte	.LASF56
 1909 03df 09       		.byte	0x9
 1910 03e0 34       		.byte	0x34
 1911 03e1 2F040000 		.4byte	0x42f
 1912 03e5 02       		.byte	0x2
 1913 03e6 23       		.byte	0x23
 1914 03e7 00       		.uleb128 0
 1915 03e8 06       		.uleb128 0x6
 1916 03e9 C6020000 		.4byte	.LASF57
 1917 03ed 09       		.byte	0x9
 1918 03ee 36       		.byte	0x36
 1919 03ef 2F040000 		.4byte	0x42f
 1920 03f3 02       		.byte	0x2
 1921 03f4 23       		.byte	0x23
 1922 03f5 04       		.uleb128 0x4
 1923 03f6 06       		.uleb128 0x6
 1924 03f7 68000000 		.4byte	.LASF58
 1925 03fb 09       		.byte	0x9
 1926 03fc 38       		.byte	0x38
 1927 03fd 2F040000 		.4byte	0x42f
 1928 0401 02       		.byte	0x2
 1929 0402 23       		.byte	0x23
ARM GAS  /tmp/cce4pmgX.s 			page 35


 1930 0403 08       		.uleb128 0x8
 1931 0404 06       		.uleb128 0x6
 1932 0405 15020000 		.4byte	.LASF59
 1933 0409 09       		.byte	0x9
 1934 040a 39       		.byte	0x39
 1935 040b 2F040000 		.4byte	0x42f
 1936 040f 02       		.byte	0x2
 1937 0410 23       		.byte	0x23
 1938 0411 0C       		.uleb128 0xc
 1939 0412 06       		.uleb128 0x6
 1940 0413 B4030000 		.4byte	.LASF60
 1941 0417 09       		.byte	0x9
 1942 0418 3A       		.byte	0x3a
 1943 0419 7F030000 		.4byte	0x37f
 1944 041d 02       		.byte	0x2
 1945 041e 23       		.byte	0x23
 1946 041f 10       		.uleb128 0x10
 1947 0420 06       		.uleb128 0x6
 1948 0421 82010000 		.4byte	.LASF61
 1949 0425 09       		.byte	0x9
 1950 0426 3C       		.byte	0x3c
 1951 0427 7F030000 		.4byte	0x37f
 1952 042b 02       		.byte	0x2
 1953 042c 23       		.byte	0x23
 1954 042d 1C       		.uleb128 0x1c
 1955 042e 00       		.byte	0
 1956 042f 09       		.uleb128 0x9
 1957 0430 04       		.byte	0x4
 1958 0431 CE000000 		.4byte	0xce
 1959 0435 04       		.uleb128 0x4
 1960 0436 20000000 		.4byte	.LASF62
 1961 043a 09       		.byte	0x9
 1962 043b 3E       		.byte	0x3e
 1963 043c D2030000 		.4byte	0x3d2
 1964 0440 0E       		.uleb128 0xe
 1965 0441 04       		.byte	0x4
 1966 0442 05       		.byte	0x5
 1967 0443 90       		.byte	0x90
 1968 0444 75040000 		.4byte	0x475
 1969 0448 0F       		.uleb128 0xf
 1970 0449 06000000 		.4byte	.LASF63
 1971 044d 05       		.byte	0x5
 1972 044e 97       		.byte	0x97
 1973 044f CE000000 		.4byte	0xce
 1974 0453 0F       		.uleb128 0xf
 1975 0454 5A000000 		.4byte	.LASF64
 1976 0458 05       		.byte	0x5
 1977 0459 9E       		.byte	0x9e
 1978 045a CE000000 		.4byte	0xce
 1979 045e 0F       		.uleb128 0xf
 1980 045f DB030000 		.4byte	.LASF65
 1981 0463 05       		.byte	0x5
 1982 0464 A5       		.byte	0xa5
 1983 0465 8D020000 		.4byte	0x28d
 1984 0469 0F       		.uleb128 0xf
 1985 046a E9020000 		.4byte	.LASF66
 1986 046e 05       		.byte	0x5
ARM GAS  /tmp/cce4pmgX.s 			page 36


 1987 046f AC       		.byte	0xac
 1988 0470 D9000000 		.4byte	0xd9
 1989 0474 00       		.byte	0
 1990 0475 09       		.uleb128 0x9
 1991 0476 04       		.byte	0x4
 1992 0477 7B040000 		.4byte	0x47b
 1993 047b 10       		.uleb128 0x10
 1994 047c 80040000 		.4byte	0x480
 1995 0480 03       		.uleb128 0x3
 1996 0481 01       		.byte	0x1
 1997 0482 08       		.byte	0x8
 1998 0483 51030000 		.4byte	.LASF67
 1999 0487 09       		.uleb128 0x9
 2000 0488 04       		.byte	0x4
 2001 0489 8F020000 		.4byte	0x28f
 2002 048d 09       		.uleb128 0x9
 2003 048e 04       		.byte	0x4
 2004 048f C7030000 		.4byte	0x3c7
 2005 0493 05       		.uleb128 0x5
 2006 0494 06030000 		.4byte	.LASF68
 2007 0498 10       		.byte	0x10
 2008 0499 0A       		.byte	0xa
 2009 049a 46       		.byte	0x46
 2010 049b D8040000 		.4byte	0x4d8
 2011 049f 06       		.uleb128 0x6
 2012 04a0 8E010000 		.4byte	.LASF69
 2013 04a4 0A       		.byte	0xa
 2014 04a5 47       		.byte	0x47
 2015 04a6 75040000 		.4byte	0x475
 2016 04aa 02       		.byte	0x2
 2017 04ab 23       		.byte	0x23
 2018 04ac 00       		.uleb128 0
 2019 04ad 06       		.uleb128 0x6
 2020 04ae 3D020000 		.4byte	.LASF70
 2021 04b2 0A       		.byte	0xa
 2022 04b3 48       		.byte	0x48
 2023 04b4 DA040000 		.4byte	0x4da
 2024 04b8 02       		.byte	0x2
 2025 04b9 23       		.byte	0x23
 2026 04ba 04       		.uleb128 0x4
 2027 04bb 06       		.uleb128 0x6
 2028 04bc 79010000 		.4byte	.LASF71
 2029 04c0 0A       		.byte	0xa
 2030 04c1 49       		.byte	0x49
 2031 04c2 DA040000 		.4byte	0x4da
 2032 04c6 02       		.byte	0x2
 2033 04c7 23       		.byte	0x23
 2034 04c8 08       		.uleb128 0x8
 2035 04c9 06       		.uleb128 0x6
 2036 04ca A0020000 		.4byte	.LASF72
 2037 04ce 0A       		.byte	0xa
 2038 04cf 4A       		.byte	0x4a
 2039 04d0 DA040000 		.4byte	0x4da
 2040 04d4 02       		.byte	0x2
 2041 04d5 23       		.byte	0x23
 2042 04d6 0C       		.uleb128 0xc
 2043 04d7 00       		.byte	0
ARM GAS  /tmp/cce4pmgX.s 			page 37


 2044 04d8 11       		.uleb128 0x11
 2045 04d9 01       		.byte	0x1
 2046 04da 09       		.uleb128 0x9
 2047 04db 04       		.byte	0x4
 2048 04dc D8040000 		.4byte	0x4d8
 2049 04e0 12       		.uleb128 0x12
 2050 04e1 F005     		.2byte	0x5f0
 2051 04e3 0A       		.byte	0xa
 2052 04e4 4F       		.byte	0x4f
 2053 04e5 2F050000 		.4byte	0x52f
 2054 04e9 07       		.uleb128 0x7
 2055 04ea 543000   		.ascii	"T0\000"
 2056 04ed 0A       		.byte	0xa
 2057 04ee 50       		.byte	0x50
 2058 04ef 2F050000 		.4byte	0x52f
 2059 04f3 02       		.byte	0x2
 2060 04f4 23       		.byte	0x23
 2061 04f5 00       		.uleb128 0
 2062 04f6 07       		.uleb128 0x7
 2063 04f7 543100   		.ascii	"T1\000"
 2064 04fa 0A       		.byte	0xa
 2065 04fb 51       		.byte	0x51
 2066 04fc 2F050000 		.4byte	0x52f
 2067 0500 03       		.byte	0x3
 2068 0501 23       		.byte	0x23
 2069 0502 B002     		.uleb128 0x130
 2070 0504 07       		.uleb128 0x7
 2071 0505 543200   		.ascii	"T2\000"
 2072 0508 0A       		.byte	0xa
 2073 0509 52       		.byte	0x52
 2074 050a 2F050000 		.4byte	0x52f
 2075 050e 03       		.byte	0x3
 2076 050f 23       		.byte	0x23
 2077 0510 E004     		.uleb128 0x260
 2078 0512 07       		.uleb128 0x7
 2079 0513 543300   		.ascii	"T3\000"
 2080 0516 0A       		.byte	0xa
 2081 0517 53       		.byte	0x53
 2082 0518 2F050000 		.4byte	0x52f
 2083 051c 03       		.byte	0x3
 2084 051d 23       		.byte	0x23
 2085 051e 9007     		.uleb128 0x390
 2086 0520 07       		.uleb128 0x7
 2087 0521 543400   		.ascii	"T4\000"
 2088 0524 0A       		.byte	0xa
 2089 0525 54       		.byte	0x54
 2090 0526 2F050000 		.4byte	0x52f
 2091 052a 03       		.byte	0x3
 2092 052b 23       		.byte	0x23
 2093 052c C009     		.uleb128 0x4c0
 2094 052e 00       		.byte	0
 2095 052f 13       		.uleb128 0x13
 2096 0530 8F020000 		.4byte	0x28f
 2097 0534 3F050000 		.4byte	0x53f
 2098 0538 14       		.uleb128 0x14
 2099 0539 4A030000 		.4byte	0x34a
 2100 053d 25       		.byte	0x25
ARM GAS  /tmp/cce4pmgX.s 			page 38


 2101 053e 00       		.byte	0
 2102 053f 15       		.uleb128 0x15
 2103 0540 BF030000 		.4byte	.LASF94
 2104 0544 F005     		.2byte	0x5f0
 2105 0546 0A       		.byte	0xa
 2106 0547 4E       		.byte	0x4e
 2107 0548 62050000 		.4byte	0x562
 2108 054c 16       		.uleb128 0x16
 2109 054d 776100   		.ascii	"wa\000"
 2110 0550 0A       		.byte	0xa
 2111 0551 55       		.byte	0x55
 2112 0552 E0040000 		.4byte	0x4e0
 2113 0556 0F       		.uleb128 0xf
 2114 0557 72030000 		.4byte	.LASF73
 2115 055b 0A       		.byte	0xa
 2116 055c 56       		.byte	0x56
 2117 055d 62050000 		.4byte	0x562
 2118 0561 00       		.byte	0
 2119 0562 13       		.uleb128 0x13
 2120 0563 3A000000 		.4byte	0x3a
 2121 0567 73050000 		.4byte	0x573
 2122 056b 17       		.uleb128 0x17
 2123 056c 4A030000 		.4byte	0x34a
 2124 0570 EF05     		.2byte	0x5ef
 2125 0572 00       		.byte	0
 2126 0573 18       		.uleb128 0x18
 2127 0574 63020000 		.4byte	.LASF75
 2128 0578 01       		.byte	0x1
 2129 0579 57       		.byte	0x57
 2130 057a 01       		.byte	0x1
 2131 057b 00000000 		.4byte	.LFB8
 2132 057f 34070000 		.4byte	.LFE8
 2133 0583 00000000 		.4byte	.LLST0
 2134 0587 01       		.byte	0x1
 2135 0588 E6130000 		.4byte	0x13e6
 2136 058c 19       		.uleb128 0x19
 2137 058d 14010000 		.4byte	.LASF74
 2138 0591 01       		.byte	0x1
 2139 0592 58       		.byte	0x58
 2140 0593 CE000000 		.4byte	0xce
 2141 0597 2C000000 		.4byte	.LLST1
 2142 059b 1A       		.uleb128 0x1a
 2143 059c 19010000 		.4byte	.LASF95
 2144 05a0 01       		.byte	0x1
 2145 05a1 58       		.byte	0x58
 2146 05a2 CE000000 		.4byte	0xce
 2147 05a6 1B       		.uleb128 0x1b
 2148 05a7 6900     		.ascii	"i\000"
 2149 05a9 01       		.byte	0x1
 2150 05aa 59       		.byte	0x59
 2151 05ab 2C000000 		.4byte	0x2c
 2152 05af D1010000 		.4byte	.LLST2
 2153 05b3 1C       		.uleb128 0x1c
 2154 05b4 CE000000 		.4byte	.LBB2
 2155 05b8 D4000000 		.4byte	.LBE2
 2156 05bc D0050000 		.4byte	0x5d0
 2157 05c0 1B       		.uleb128 0x1b
ARM GAS  /tmp/cce4pmgX.s 			page 39


 2158 05c1 746D7000 		.ascii	"tmp\000"
 2159 05c5 01       		.byte	0x1
 2160 05c6 6F       		.byte	0x6f
 2161 05c7 6C000000 		.4byte	0x6c
 2162 05cb 2D020000 		.4byte	.LLST3
 2163 05cf 00       		.byte	0
 2164 05d0 1C       		.uleb128 0x1c
 2165 05d1 E6000000 		.4byte	.LBB3
 2166 05d5 EC000000 		.4byte	.LBE3
 2167 05d9 ED050000 		.4byte	0x5ed
 2168 05dd 1B       		.uleb128 0x1b
 2169 05de 746D7000 		.ascii	"tmp\000"
 2170 05e2 01       		.byte	0x1
 2171 05e3 71       		.byte	0x71
 2172 05e4 6C000000 		.4byte	0x6c
 2173 05e8 40020000 		.4byte	.LLST4
 2174 05ec 00       		.byte	0
 2175 05ed 1C       		.uleb128 0x1c
 2176 05ee 1E010000 		.4byte	.LBB4
 2177 05f2 24010000 		.4byte	.LBE4
 2178 05f6 0A060000 		.4byte	0x60a
 2179 05fa 1B       		.uleb128 0x1b
 2180 05fb 746D7000 		.ascii	"tmp\000"
 2181 05ff 01       		.byte	0x1
 2182 0600 75       		.byte	0x75
 2183 0601 6C000000 		.4byte	0x6c
 2184 0605 53020000 		.4byte	.LLST5
 2185 0609 00       		.byte	0
 2186 060a 1C       		.uleb128 0x1c
 2187 060b 36010000 		.4byte	.LBB5
 2188 060f 3C010000 		.4byte	.LBE5
 2189 0613 27060000 		.4byte	0x627
 2190 0617 1B       		.uleb128 0x1b
 2191 0618 746D7000 		.ascii	"tmp\000"
 2192 061c 01       		.byte	0x1
 2193 061d 77       		.byte	0x77
 2194 061e 6C000000 		.4byte	0x6c
 2195 0622 66020000 		.4byte	.LLST6
 2196 0626 00       		.byte	0
 2197 0627 1C       		.uleb128 0x1c
 2198 0628 52010000 		.4byte	.LBB6
 2199 062c 58010000 		.4byte	.LBE6
 2200 0630 44060000 		.4byte	0x644
 2201 0634 1B       		.uleb128 0x1b
 2202 0635 746D7000 		.ascii	"tmp\000"
 2203 0639 01       		.byte	0x1
 2204 063a 7D       		.byte	0x7d
 2205 063b 6C000000 		.4byte	0x6c
 2206 063f 79020000 		.4byte	.LLST7
 2207 0643 00       		.byte	0
 2208 0644 1C       		.uleb128 0x1c
 2209 0645 76010000 		.4byte	.LBB7
 2210 0649 7C010000 		.4byte	.LBE7
 2211 064d 61060000 		.4byte	0x661
 2212 0651 1B       		.uleb128 0x1b
 2213 0652 746D7000 		.ascii	"tmp\000"
 2214 0656 01       		.byte	0x1
ARM GAS  /tmp/cce4pmgX.s 			page 40


 2215 0657 7D       		.byte	0x7d
 2216 0658 6C000000 		.4byte	0x6c
 2217 065c 8C020000 		.4byte	.LLST8
 2218 0660 00       		.byte	0
 2219 0661 1C       		.uleb128 0x1c
 2220 0662 7C010000 		.4byte	.LBB8
 2221 0666 82010000 		.4byte	.LBE8
 2222 066a 7E060000 		.4byte	0x67e
 2223 066e 1B       		.uleb128 0x1b
 2224 066f 746D7000 		.ascii	"tmp\000"
 2225 0673 01       		.byte	0x1
 2226 0674 7E       		.byte	0x7e
 2227 0675 6C000000 		.4byte	0x6c
 2228 0679 9F020000 		.4byte	.LLST9
 2229 067d 00       		.byte	0
 2230 067e 1C       		.uleb128 0x1c
 2231 067f A2010000 		.4byte	.LBB9
 2232 0683 AA010000 		.4byte	.LBE9
 2233 0687 9B060000 		.4byte	0x69b
 2234 068b 1B       		.uleb128 0x1b
 2235 068c 746D7000 		.ascii	"tmp\000"
 2236 0690 01       		.byte	0x1
 2237 0691 7E       		.byte	0x7e
 2238 0692 6C000000 		.4byte	0x6c
 2239 0696 B2020000 		.4byte	.LLST10
 2240 069a 00       		.byte	0
 2241 069b 1C       		.uleb128 0x1c
 2242 069c AE010000 		.4byte	.LBB10
 2243 06a0 B4010000 		.4byte	.LBE10
 2244 06a4 B8060000 		.4byte	0x6b8
 2245 06a8 1B       		.uleb128 0x1b
 2246 06a9 746D7000 		.ascii	"tmp\000"
 2247 06ad 01       		.byte	0x1
 2248 06ae E5       		.byte	0xe5
 2249 06af 6C000000 		.4byte	0x6c
 2250 06b3 D0020000 		.4byte	.LLST11
 2251 06b7 00       		.byte	0
 2252 06b8 1C       		.uleb128 0x1c
 2253 06b9 B4010000 		.4byte	.LBB11
 2254 06bd BA010000 		.4byte	.LBE11
 2255 06c1 D5060000 		.4byte	0x6d5
 2256 06c5 1B       		.uleb128 0x1b
 2257 06c6 746D7000 		.ascii	"tmp\000"
 2258 06ca 01       		.byte	0x1
 2259 06cb E6       		.byte	0xe6
 2260 06cc 6C000000 		.4byte	0x6c
 2261 06d0 E3020000 		.4byte	.LLST12
 2262 06d4 00       		.byte	0
 2263 06d5 1C       		.uleb128 0x1c
 2264 06d6 D2010000 		.4byte	.LBB12
 2265 06da E0010000 		.4byte	.LBE12
 2266 06de F2060000 		.4byte	0x6f2
 2267 06e2 1B       		.uleb128 0x1b
 2268 06e3 746D7000 		.ascii	"tmp\000"
 2269 06e7 01       		.byte	0x1
 2270 06e8 E6       		.byte	0xe6
 2271 06e9 6C000000 		.4byte	0x6c
ARM GAS  /tmp/cce4pmgX.s 			page 41


 2272 06ed F6020000 		.4byte	.LLST13
 2273 06f1 00       		.byte	0
 2274 06f2 1C       		.uleb128 0x1c
 2275 06f3 E4010000 		.4byte	.LBB13
 2276 06f7 EA010000 		.4byte	.LBE13
 2277 06fb 0F070000 		.4byte	0x70f
 2278 06ff 1B       		.uleb128 0x1b
 2279 0700 746D7000 		.ascii	"tmp\000"
 2280 0704 01       		.byte	0x1
 2281 0705 7E       		.byte	0x7e
 2282 0706 6C000000 		.4byte	0x6c
 2283 070a 14030000 		.4byte	.LLST14
 2284 070e 00       		.byte	0
 2285 070f 1C       		.uleb128 0x1c
 2286 0710 EA010000 		.4byte	.LBB14
 2287 0714 F0010000 		.4byte	.LBE14
 2288 0718 2C070000 		.4byte	0x72c
 2289 071c 1B       		.uleb128 0x1b
 2290 071d 746D7000 		.ascii	"tmp\000"
 2291 0721 01       		.byte	0x1
 2292 0722 7F       		.byte	0x7f
 2293 0723 6C000000 		.4byte	0x6c
 2294 0727 27030000 		.4byte	.LLST15
 2295 072b 00       		.byte	0
 2296 072c 1C       		.uleb128 0x1c
 2297 072d 10020000 		.4byte	.LBB15
 2298 0731 18020000 		.4byte	.LBE15
 2299 0735 49070000 		.4byte	0x749
 2300 0739 1B       		.uleb128 0x1b
 2301 073a 746D7000 		.ascii	"tmp\000"
 2302 073e 01       		.byte	0x1
 2303 073f 7F       		.byte	0x7f
 2304 0740 6C000000 		.4byte	0x6c
 2305 0744 3A030000 		.4byte	.LLST16
 2306 0748 00       		.byte	0
 2307 0749 1C       		.uleb128 0x1c
 2308 074a E0020000 		.4byte	.LBB16
 2309 074e E6020000 		.4byte	.LBE16
 2310 0752 66070000 		.4byte	0x766
 2311 0756 1B       		.uleb128 0x1b
 2312 0757 746D7000 		.ascii	"tmp\000"
 2313 075b 01       		.byte	0x1
 2314 075c 9A       		.byte	0x9a
 2315 075d 6C000000 		.4byte	0x6c
 2316 0761 4D030000 		.4byte	.LLST17
 2317 0765 00       		.byte	0
 2318 0766 1C       		.uleb128 0x1c
 2319 0767 F8020000 		.4byte	.LBB17
 2320 076b FE020000 		.4byte	.LBE17
 2321 076f 83070000 		.4byte	0x783
 2322 0773 1B       		.uleb128 0x1b
 2323 0774 746D7000 		.ascii	"tmp\000"
 2324 0778 01       		.byte	0x1
 2325 0779 9C       		.byte	0x9c
 2326 077a 6C000000 		.4byte	0x6c
 2327 077e 60030000 		.4byte	.LLST18
 2328 0782 00       		.byte	0
ARM GAS  /tmp/cce4pmgX.s 			page 42


 2329 0783 1C       		.uleb128 0x1c
 2330 0784 16030000 		.4byte	.LBB18
 2331 0788 1C030000 		.4byte	.LBE18
 2332 078c A0070000 		.4byte	0x7a0
 2333 0790 1B       		.uleb128 0x1b
 2334 0791 746D7000 		.ascii	"tmp\000"
 2335 0795 01       		.byte	0x1
 2336 0796 A2       		.byte	0xa2
 2337 0797 6C000000 		.4byte	0x6c
 2338 079b 73030000 		.4byte	.LLST19
 2339 079f 00       		.byte	0
 2340 07a0 1C       		.uleb128 0x1c
 2341 07a1 3A030000 		.4byte	.LBB19
 2342 07a5 40030000 		.4byte	.LBE19
 2343 07a9 BD070000 		.4byte	0x7bd
 2344 07ad 1B       		.uleb128 0x1b
 2345 07ae 746D7000 		.ascii	"tmp\000"
 2346 07b2 01       		.byte	0x1
 2347 07b3 A2       		.byte	0xa2
 2348 07b4 6C000000 		.4byte	0x6c
 2349 07b8 86030000 		.4byte	.LLST20
 2350 07bc 00       		.byte	0
 2351 07bd 1C       		.uleb128 0x1c
 2352 07be 40030000 		.4byte	.LBB20
 2353 07c2 46030000 		.4byte	.LBE20
 2354 07c6 DA070000 		.4byte	0x7da
 2355 07ca 1B       		.uleb128 0x1b
 2356 07cb 746D7000 		.ascii	"tmp\000"
 2357 07cf 01       		.byte	0x1
 2358 07d0 A3       		.byte	0xa3
 2359 07d1 6C000000 		.4byte	0x6c
 2360 07d5 99030000 		.4byte	.LLST21
 2361 07d9 00       		.byte	0
 2362 07da 1C       		.uleb128 0x1c
 2363 07db 68030000 		.4byte	.LBB21
 2364 07df 6E030000 		.4byte	.LBE21
 2365 07e3 F7070000 		.4byte	0x7f7
 2366 07e7 1B       		.uleb128 0x1b
 2367 07e8 746D7000 		.ascii	"tmp\000"
 2368 07ec 01       		.byte	0x1
 2369 07ed A3       		.byte	0xa3
 2370 07ee 6C000000 		.4byte	0x6c
 2371 07f2 AC030000 		.4byte	.LLST22
 2372 07f6 00       		.byte	0
 2373 07f7 1C       		.uleb128 0x1c
 2374 07f8 6E030000 		.4byte	.LBB22
 2375 07fc 74030000 		.4byte	.LBE22
 2376 0800 14080000 		.4byte	0x814
 2377 0804 1B       		.uleb128 0x1b
 2378 0805 746D7000 		.ascii	"tmp\000"
 2379 0809 01       		.byte	0x1
 2380 080a A4       		.byte	0xa4
 2381 080b 6C000000 		.4byte	0x6c
 2382 080f BF030000 		.4byte	.LLST23
 2383 0813 00       		.byte	0
 2384 0814 1C       		.uleb128 0x1c
 2385 0815 96030000 		.4byte	.LBB23
ARM GAS  /tmp/cce4pmgX.s 			page 43


 2386 0819 9C030000 		.4byte	.LBE23
 2387 081d 31080000 		.4byte	0x831
 2388 0821 1B       		.uleb128 0x1b
 2389 0822 746D7000 		.ascii	"tmp\000"
 2390 0826 01       		.byte	0x1
 2391 0827 A4       		.byte	0xa4
 2392 0828 6C000000 		.4byte	0x6c
 2393 082c D2030000 		.4byte	.LLST24
 2394 0830 00       		.byte	0
 2395 0831 1C       		.uleb128 0x1c
 2396 0832 9C030000 		.4byte	.LBB24
 2397 0836 A2030000 		.4byte	.LBE24
 2398 083a 4E080000 		.4byte	0x84e
 2399 083e 1B       		.uleb128 0x1b
 2400 083f 746D7000 		.ascii	"tmp\000"
 2401 0843 01       		.byte	0x1
 2402 0844 A9       		.byte	0xa9
 2403 0845 6C000000 		.4byte	0x6c
 2404 0849 E5030000 		.4byte	.LLST25
 2405 084d 00       		.byte	0
 2406 084e 1C       		.uleb128 0x1c
 2407 084f 26040000 		.4byte	.LBB25
 2408 0853 2C040000 		.4byte	.LBE25
 2409 0857 6B080000 		.4byte	0x86b
 2410 085b 1B       		.uleb128 0x1b
 2411 085c 746D7000 		.ascii	"tmp\000"
 2412 0860 01       		.byte	0x1
 2413 0861 B3       		.byte	0xb3
 2414 0862 6C000000 		.4byte	0x6c
 2415 0866 F8030000 		.4byte	.LLST26
 2416 086a 00       		.byte	0
 2417 086b 1C       		.uleb128 0x1c
 2418 086c 5E040000 		.4byte	.LBB26
 2419 0870 64040000 		.4byte	.LBE26
 2420 0874 88080000 		.4byte	0x888
 2421 0878 1B       		.uleb128 0x1b
 2422 0879 746D7000 		.ascii	"tmp\000"
 2423 087d 01       		.byte	0x1
 2424 087e B7       		.byte	0xb7
 2425 087f 6C000000 		.4byte	0x6c
 2426 0883 0B040000 		.4byte	.LLST27
 2427 0887 00       		.byte	0
 2428 0888 1C       		.uleb128 0x1c
 2429 0889 78040000 		.4byte	.LBB27
 2430 088d 7E040000 		.4byte	.LBE27
 2431 0891 A5080000 		.4byte	0x8a5
 2432 0895 1B       		.uleb128 0x1b
 2433 0896 746D7000 		.ascii	"tmp\000"
 2434 089a 01       		.byte	0x1
 2435 089b B9       		.byte	0xb9
 2436 089c 6C000000 		.4byte	0x6c
 2437 08a0 1E040000 		.4byte	.LLST28
 2438 08a4 00       		.byte	0
 2439 08a5 1C       		.uleb128 0x1c
 2440 08a6 AA040000 		.4byte	.LBB28
 2441 08aa B0040000 		.4byte	.LBE28
 2442 08ae C2080000 		.4byte	0x8c2
ARM GAS  /tmp/cce4pmgX.s 			page 44


 2443 08b2 1B       		.uleb128 0x1b
 2444 08b3 746D7000 		.ascii	"tmp\000"
 2445 08b7 01       		.byte	0x1
 2446 08b8 BE       		.byte	0xbe
 2447 08b9 6C000000 		.4byte	0x6c
 2448 08bd 31040000 		.4byte	.LLST29
 2449 08c1 00       		.byte	0
 2450 08c2 1C       		.uleb128 0x1c
 2451 08c3 CC040000 		.4byte	.LBB29
 2452 08c7 D2040000 		.4byte	.LBE29
 2453 08cb DF080000 		.4byte	0x8df
 2454 08cf 1B       		.uleb128 0x1b
 2455 08d0 746D7000 		.ascii	"tmp\000"
 2456 08d4 01       		.byte	0x1
 2457 08d5 BE       		.byte	0xbe
 2458 08d6 6C000000 		.4byte	0x6c
 2459 08da 44040000 		.4byte	.LLST30
 2460 08de 00       		.byte	0
 2461 08df 1C       		.uleb128 0x1c
 2462 08e0 D2040000 		.4byte	.LBB30
 2463 08e4 D8040000 		.4byte	.LBE30
 2464 08e8 FC080000 		.4byte	0x8fc
 2465 08ec 1B       		.uleb128 0x1b
 2466 08ed 746D7000 		.ascii	"tmp\000"
 2467 08f1 01       		.byte	0x1
 2468 08f2 BF       		.byte	0xbf
 2469 08f3 6C000000 		.4byte	0x6c
 2470 08f7 57040000 		.4byte	.LLST31
 2471 08fb 00       		.byte	0
 2472 08fc 1C       		.uleb128 0x1c
 2473 08fd F6040000 		.4byte	.LBB31
 2474 0901 FC040000 		.4byte	.LBE31
 2475 0905 19090000 		.4byte	0x919
 2476 0909 1B       		.uleb128 0x1b
 2477 090a 746D7000 		.ascii	"tmp\000"
 2478 090e 01       		.byte	0x1
 2479 090f BF       		.byte	0xbf
 2480 0910 6C000000 		.4byte	0x6c
 2481 0914 6A040000 		.4byte	.LLST32
 2482 0918 00       		.byte	0
 2483 0919 1C       		.uleb128 0x1c
 2484 091a 12050000 		.4byte	.LBB32
 2485 091e 18050000 		.4byte	.LBE32
 2486 0922 36090000 		.4byte	0x936
 2487 0926 1B       		.uleb128 0x1b
 2488 0927 746D7000 		.ascii	"tmp\000"
 2489 092b 01       		.byte	0x1
 2490 092c C2       		.byte	0xc2
 2491 092d 6C000000 		.4byte	0x6c
 2492 0931 7D040000 		.4byte	.LLST33
 2493 0935 00       		.byte	0
 2494 0936 1C       		.uleb128 0x1c
 2495 0937 A8050000 		.4byte	.LBB33
 2496 093b AE050000 		.4byte	.LBE33
 2497 093f 53090000 		.4byte	0x953
 2498 0943 1B       		.uleb128 0x1b
 2499 0944 746D7000 		.ascii	"tmp\000"
ARM GAS  /tmp/cce4pmgX.s 			page 45


 2500 0948 01       		.byte	0x1
 2501 0949 CC       		.byte	0xcc
 2502 094a 6C000000 		.4byte	0x6c
 2503 094e 90040000 		.4byte	.LLST34
 2504 0952 00       		.byte	0
 2505 0953 1C       		.uleb128 0x1c
 2506 0954 E4050000 		.4byte	.LBB34
 2507 0958 EA050000 		.4byte	.LBE34
 2508 095c 70090000 		.4byte	0x970
 2509 0960 1B       		.uleb128 0x1b
 2510 0961 746D7000 		.ascii	"tmp\000"
 2511 0965 01       		.byte	0x1
 2512 0966 D0       		.byte	0xd0
 2513 0967 6C000000 		.4byte	0x6c
 2514 096b A3040000 		.4byte	.LLST35
 2515 096f 00       		.byte	0
 2516 0970 1C       		.uleb128 0x1c
 2517 0971 FE050000 		.4byte	.LBB35
 2518 0975 04060000 		.4byte	.LBE35
 2519 0979 8D090000 		.4byte	0x98d
 2520 097d 1B       		.uleb128 0x1b
 2521 097e 746D7000 		.ascii	"tmp\000"
 2522 0982 01       		.byte	0x1
 2523 0983 D2       		.byte	0xd2
 2524 0984 6C000000 		.4byte	0x6c
 2525 0988 B6040000 		.4byte	.LLST36
 2526 098c 00       		.byte	0
 2527 098d 1C       		.uleb128 0x1c
 2528 098e 30060000 		.4byte	.LBB36
 2529 0992 36060000 		.4byte	.LBE36
 2530 0996 AA090000 		.4byte	0x9aa
 2531 099a 1B       		.uleb128 0x1b
 2532 099b 746D7000 		.ascii	"tmp\000"
 2533 099f 01       		.byte	0x1
 2534 09a0 D7       		.byte	0xd7
 2535 09a1 6C000000 		.4byte	0x6c
 2536 09a5 C9040000 		.4byte	.LLST37
 2537 09a9 00       		.byte	0
 2538 09aa 1C       		.uleb128 0x1c
 2539 09ab 50060000 		.4byte	.LBB37
 2540 09af 56060000 		.4byte	.LBE37
 2541 09b3 C7090000 		.4byte	0x9c7
 2542 09b7 1B       		.uleb128 0x1b
 2543 09b8 746D7000 		.ascii	"tmp\000"
 2544 09bc 01       		.byte	0x1
 2545 09bd D7       		.byte	0xd7
 2546 09be 6C000000 		.4byte	0x6c
 2547 09c2 DC040000 		.4byte	.LLST38
 2548 09c6 00       		.byte	0
 2549 09c7 1C       		.uleb128 0x1c
 2550 09c8 56060000 		.4byte	.LBB38
 2551 09cc 5C060000 		.4byte	.LBE38
 2552 09d0 E4090000 		.4byte	0x9e4
 2553 09d4 1B       		.uleb128 0x1b
 2554 09d5 746D7000 		.ascii	"tmp\000"
 2555 09d9 01       		.byte	0x1
 2556 09da D8       		.byte	0xd8
ARM GAS  /tmp/cce4pmgX.s 			page 46


 2557 09db 6C000000 		.4byte	0x6c
 2558 09df EF040000 		.4byte	.LLST39
 2559 09e3 00       		.byte	0
 2560 09e4 1C       		.uleb128 0x1c
 2561 09e5 78060000 		.4byte	.LBB39
 2562 09e9 7E060000 		.4byte	.LBE39
 2563 09ed 010A0000 		.4byte	0xa01
 2564 09f1 1B       		.uleb128 0x1b
 2565 09f2 746D7000 		.ascii	"tmp\000"
 2566 09f6 01       		.byte	0x1
 2567 09f7 D8       		.byte	0xd8
 2568 09f8 6C000000 		.4byte	0x6c
 2569 09fc 02050000 		.4byte	.LLST40
 2570 0a00 00       		.byte	0
 2571 0a01 1C       		.uleb128 0x1c
 2572 0a02 A0060000 		.4byte	.LBB40
 2573 0a06 A6060000 		.4byte	.LBE40
 2574 0a0a 1E0A0000 		.4byte	0xa1e
 2575 0a0e 1B       		.uleb128 0x1b
 2576 0a0f 746D7000 		.ascii	"tmp\000"
 2577 0a13 01       		.byte	0x1
 2578 0a14 E3       		.byte	0xe3
 2579 0a15 6C000000 		.4byte	0x6c
 2580 0a19 15050000 		.4byte	.LLST41
 2581 0a1d 00       		.byte	0
 2582 0a1e 1C       		.uleb128 0x1c
 2583 0a1f C4060000 		.4byte	.LBB41
 2584 0a23 CA060000 		.4byte	.LBE41
 2585 0a27 3B0A0000 		.4byte	0xa3b
 2586 0a2b 1B       		.uleb128 0x1b
 2587 0a2c 746D7000 		.ascii	"tmp\000"
 2588 0a30 01       		.byte	0x1
 2589 0a31 E3       		.byte	0xe3
 2590 0a32 6C000000 		.4byte	0x6c
 2591 0a36 28050000 		.4byte	.LLST42
 2592 0a3a 00       		.byte	0
 2593 0a3b 1C       		.uleb128 0x1c
 2594 0a3c CA060000 		.4byte	.LBB42
 2595 0a40 D0060000 		.4byte	.LBE42
 2596 0a44 580A0000 		.4byte	0xa58
 2597 0a48 1B       		.uleb128 0x1b
 2598 0a49 746D7000 		.ascii	"tmp\000"
 2599 0a4d 01       		.byte	0x1
 2600 0a4e E4       		.byte	0xe4
 2601 0a4f 6C000000 		.4byte	0x6c
 2602 0a53 3B050000 		.4byte	.LLST43
 2603 0a57 00       		.byte	0
 2604 0a58 1C       		.uleb128 0x1c
 2605 0a59 EA060000 		.4byte	.LBB43
 2606 0a5d F0060000 		.4byte	.LBE43
 2607 0a61 750A0000 		.4byte	0xa75
 2608 0a65 1B       		.uleb128 0x1b
 2609 0a66 746D7000 		.ascii	"tmp\000"
 2610 0a6a 01       		.byte	0x1
 2611 0a6b E4       		.byte	0xe4
 2612 0a6c 6C000000 		.4byte	0x6c
 2613 0a70 4E050000 		.4byte	.LLST44
ARM GAS  /tmp/cce4pmgX.s 			page 47


 2614 0a74 00       		.byte	0
 2615 0a75 1C       		.uleb128 0x1c
 2616 0a76 F0060000 		.4byte	.LBB44
 2617 0a7a F6060000 		.4byte	.LBE44
 2618 0a7e 920A0000 		.4byte	0xa92
 2619 0a82 1B       		.uleb128 0x1b
 2620 0a83 746D7000 		.ascii	"tmp\000"
 2621 0a87 01       		.byte	0x1
 2622 0a88 E5       		.byte	0xe5
 2623 0a89 6C000000 		.4byte	0x6c
 2624 0a8d 61050000 		.4byte	.LLST45
 2625 0a91 00       		.byte	0
 2626 0a92 1C       		.uleb128 0x1c
 2627 0a93 16070000 		.4byte	.LBB45
 2628 0a97 1E070000 		.4byte	.LBE45
 2629 0a9b AF0A0000 		.4byte	0xaaf
 2630 0a9f 1B       		.uleb128 0x1b
 2631 0aa0 746D7000 		.ascii	"tmp\000"
 2632 0aa4 01       		.byte	0x1
 2633 0aa5 E5       		.byte	0xe5
 2634 0aa6 6C000000 		.4byte	0x6c
 2635 0aaa 74050000 		.4byte	.LLST46
 2636 0aae 00       		.byte	0
 2637 0aaf 1C       		.uleb128 0x1c
 2638 0ab0 22070000 		.4byte	.LBB46
 2639 0ab4 34070000 		.4byte	.LBE46
 2640 0ab8 CC0A0000 		.4byte	0xacc
 2641 0abc 1B       		.uleb128 0x1b
 2642 0abd 746D7000 		.ascii	"tmp\000"
 2643 0ac1 01       		.byte	0x1
 2644 0ac2 BF       		.byte	0xbf
 2645 0ac3 6C000000 		.4byte	0x6c
 2646 0ac7 92050000 		.4byte	.LLST47
 2647 0acb 00       		.byte	0
 2648 0acc 1D       		.uleb128 0x1d
 2649 0acd 1A000000 		.4byte	.LVL0
 2650 0ad1 7A140000 		.4byte	0x147a
 2651 0ad5 DF0A0000 		.4byte	0xadf
 2652 0ad9 1E       		.uleb128 0x1e
 2653 0ada 01       		.byte	0x1
 2654 0adb 50       		.byte	0x50
 2655 0adc 01       		.byte	0x1
 2656 0add 31       		.byte	0x31
 2657 0ade 00       		.byte	0
 2658 0adf 1D       		.uleb128 0x1d
 2659 0ae0 2A000000 		.4byte	.LVL1
 2660 0ae4 97140000 		.4byte	0x1497
 2661 0ae8 FF0A0000 		.4byte	0xaff
 2662 0aec 1E       		.uleb128 0x1e
 2663 0aed 01       		.byte	0x1
 2664 0aee 52       		.byte	0x52
 2665 0aef 02       		.byte	0x2
 2666 0af0 09       		.byte	0x9
 2667 0af1 FF       		.byte	0xff
 2668 0af2 1E       		.uleb128 0x1e
 2669 0af3 01       		.byte	0x1
 2670 0af4 51       		.byte	0x51
ARM GAS  /tmp/cce4pmgX.s 			page 48


 2671 0af5 02       		.byte	0x2
 2672 0af6 08       		.byte	0x8
 2673 0af7 42       		.byte	0x42
 2674 0af8 1E       		.uleb128 0x1e
 2675 0af9 01       		.byte	0x1
 2676 0afa 50       		.byte	0x50
 2677 0afb 02       		.byte	0x2
 2678 0afc 74       		.byte	0x74
 2679 0afd 00       		.sleb128 0
 2680 0afe 00       		.byte	0
 2681 0aff 1D       		.uleb128 0x1d
 2682 0b00 38000000 		.4byte	.LVL3
 2683 0b04 7A140000 		.4byte	0x147a
 2684 0b08 120B0000 		.4byte	0xb12
 2685 0b0c 1E       		.uleb128 0x1e
 2686 0b0d 01       		.byte	0x1
 2687 0b0e 50       		.byte	0x50
 2688 0b0f 01       		.byte	0x1
 2689 0b10 32       		.byte	0x32
 2690 0b11 00       		.byte	0
 2691 0b12 1D       		.uleb128 0x1d
 2692 0b13 46000000 		.4byte	.LVL5
 2693 0b17 97140000 		.4byte	0x1497
 2694 0b1b 320B0000 		.4byte	0xb32
 2695 0b1f 1E       		.uleb128 0x1e
 2696 0b20 01       		.byte	0x1
 2697 0b21 52       		.byte	0x52
 2698 0b22 02       		.byte	0x2
 2699 0b23 09       		.byte	0x9
 2700 0b24 FF       		.byte	0xff
 2701 0b25 1E       		.uleb128 0x1e
 2702 0b26 01       		.byte	0x1
 2703 0b27 51       		.byte	0x51
 2704 0b28 02       		.byte	0x2
 2705 0b29 08       		.byte	0x8
 2706 0b2a 43       		.byte	0x43
 2707 0b2b 1E       		.uleb128 0x1e
 2708 0b2c 01       		.byte	0x1
 2709 0b2d 50       		.byte	0x50
 2710 0b2e 02       		.byte	0x2
 2711 0b2f 74       		.byte	0x74
 2712 0b30 00       		.sleb128 0
 2713 0b31 00       		.byte	0
 2714 0b32 1D       		.uleb128 0x1d
 2715 0b33 54000000 		.4byte	.LVL7
 2716 0b37 7A140000 		.4byte	0x147a
 2717 0b3b 450B0000 		.4byte	0xb45
 2718 0b3f 1E       		.uleb128 0x1e
 2719 0b40 01       		.byte	0x1
 2720 0b41 50       		.byte	0x50
 2721 0b42 01       		.byte	0x1
 2722 0b43 32       		.byte	0x32
 2723 0b44 00       		.byte	0
 2724 0b45 1D       		.uleb128 0x1d
 2725 0b46 62000000 		.4byte	.LVL9
 2726 0b4a 97140000 		.4byte	0x1497
 2727 0b4e 650B0000 		.4byte	0xb65
ARM GAS  /tmp/cce4pmgX.s 			page 49


 2728 0b52 1E       		.uleb128 0x1e
 2729 0b53 01       		.byte	0x1
 2730 0b54 52       		.byte	0x52
 2731 0b55 02       		.byte	0x2
 2732 0b56 09       		.byte	0x9
 2733 0b57 FF       		.byte	0xff
 2734 0b58 1E       		.uleb128 0x1e
 2735 0b59 01       		.byte	0x1
 2736 0b5a 51       		.byte	0x51
 2737 0b5b 02       		.byte	0x2
 2738 0b5c 08       		.byte	0x8
 2739 0b5d 44       		.byte	0x44
 2740 0b5e 1E       		.uleb128 0x1e
 2741 0b5f 01       		.byte	0x1
 2742 0b60 50       		.byte	0x50
 2743 0b61 02       		.byte	0x2
 2744 0b62 74       		.byte	0x74
 2745 0b63 00       		.sleb128 0
 2746 0b64 00       		.byte	0
 2747 0b65 1D       		.uleb128 0x1d
 2748 0b66 70000000 		.4byte	.LVL11
 2749 0b6a 7A140000 		.4byte	0x147a
 2750 0b6e 780B0000 		.4byte	0xb78
 2751 0b72 1E       		.uleb128 0x1e
 2752 0b73 01       		.byte	0x1
 2753 0b74 50       		.byte	0x50
 2754 0b75 01       		.byte	0x1
 2755 0b76 32       		.byte	0x32
 2756 0b77 00       		.byte	0
 2757 0b78 1D       		.uleb128 0x1d
 2758 0b79 7E000000 		.4byte	.LVL13
 2759 0b7d 97140000 		.4byte	0x1497
 2760 0b81 980B0000 		.4byte	0xb98
 2761 0b85 1E       		.uleb128 0x1e
 2762 0b86 01       		.byte	0x1
 2763 0b87 52       		.byte	0x52
 2764 0b88 02       		.byte	0x2
 2765 0b89 09       		.byte	0x9
 2766 0b8a FF       		.byte	0xff
 2767 0b8b 1E       		.uleb128 0x1e
 2768 0b8c 01       		.byte	0x1
 2769 0b8d 51       		.byte	0x51
 2770 0b8e 02       		.byte	0x2
 2771 0b8f 08       		.byte	0x8
 2772 0b90 45       		.byte	0x45
 2773 0b91 1E       		.uleb128 0x1e
 2774 0b92 01       		.byte	0x1
 2775 0b93 50       		.byte	0x50
 2776 0b94 02       		.byte	0x2
 2777 0b95 74       		.byte	0x74
 2778 0b96 00       		.sleb128 0
 2779 0b97 00       		.byte	0
 2780 0b98 1D       		.uleb128 0x1d
 2781 0b99 8C000000 		.4byte	.LVL15
 2782 0b9d 7A140000 		.4byte	0x147a
 2783 0ba1 AB0B0000 		.4byte	0xbab
 2784 0ba5 1E       		.uleb128 0x1e
ARM GAS  /tmp/cce4pmgX.s 			page 50


 2785 0ba6 01       		.byte	0x1
 2786 0ba7 50       		.byte	0x50
 2787 0ba8 01       		.byte	0x1
 2788 0ba9 32       		.byte	0x32
 2789 0baa 00       		.byte	0
 2790 0bab 1D       		.uleb128 0x1d
 2791 0bac 9A000000 		.4byte	.LVL17
 2792 0bb0 BF140000 		.4byte	0x14bf
 2793 0bb4 CB0B0000 		.4byte	0xbcb
 2794 0bb8 1E       		.uleb128 0x1e
 2795 0bb9 01       		.byte	0x1
 2796 0bba 52       		.byte	0x52
 2797 0bbb 02       		.byte	0x2
 2798 0bbc 09       		.byte	0x9
 2799 0bbd FF       		.byte	0xff
 2800 0bbe 1E       		.uleb128 0x1e
 2801 0bbf 01       		.byte	0x1
 2802 0bc0 51       		.byte	0x51
 2803 0bc1 02       		.byte	0x2
 2804 0bc2 08       		.byte	0x8
 2805 0bc3 41       		.byte	0x41
 2806 0bc4 1E       		.uleb128 0x1e
 2807 0bc5 01       		.byte	0x1
 2808 0bc6 50       		.byte	0x50
 2809 0bc7 02       		.byte	0x2
 2810 0bc8 74       		.byte	0x74
 2811 0bc9 00       		.sleb128 0
 2812 0bca 00       		.byte	0
 2813 0bcb 1D       		.uleb128 0x1d
 2814 0bcc A8000000 		.4byte	.LVL19
 2815 0bd0 7A140000 		.4byte	0x147a
 2816 0bd4 DE0B0000 		.4byte	0xbde
 2817 0bd8 1E       		.uleb128 0x1e
 2818 0bd9 01       		.byte	0x1
 2819 0bda 50       		.byte	0x50
 2820 0bdb 01       		.byte	0x1
 2821 0bdc 33       		.byte	0x33
 2822 0bdd 00       		.byte	0
 2823 0bde 1D       		.uleb128 0x1d
 2824 0bdf B8000000 		.4byte	.LVL22
 2825 0be3 97140000 		.4byte	0x1497
 2826 0be7 FD0B0000 		.4byte	0xbfd
 2827 0beb 1E       		.uleb128 0x1e
 2828 0bec 01       		.byte	0x1
 2829 0bed 52       		.byte	0x52
 2830 0bee 01       		.byte	0x1
 2831 0bef 31       		.byte	0x31
 2832 0bf0 1E       		.uleb128 0x1e
 2833 0bf1 01       		.byte	0x1
 2834 0bf2 51       		.byte	0x51
 2835 0bf3 02       		.byte	0x2
 2836 0bf4 08       		.byte	0x8
 2837 0bf5 58       		.byte	0x58
 2838 0bf6 1E       		.uleb128 0x1e
 2839 0bf7 01       		.byte	0x1
 2840 0bf8 50       		.byte	0x50
 2841 0bf9 02       		.byte	0x2
ARM GAS  /tmp/cce4pmgX.s 			page 51


 2842 0bfa 74       		.byte	0x74
 2843 0bfb 00       		.sleb128 0
 2844 0bfc 00       		.byte	0
 2845 0bfd 1D       		.uleb128 0x1d
 2846 0bfe C8000000 		.4byte	.LVL25
 2847 0c02 7A140000 		.4byte	0x147a
 2848 0c06 100C0000 		.4byte	0xc10
 2849 0c0a 1E       		.uleb128 0x1e
 2850 0c0b 01       		.byte	0x1
 2851 0c0c 50       		.byte	0x50
 2852 0c0d 01       		.byte	0x1
 2853 0c0e 34       		.byte	0x34
 2854 0c0f 00       		.byte	0
 2855 0c10 1F       		.uleb128 0x1f
 2856 0c11 D8000000 		.4byte	.LVL28
 2857 0c15 E1140000 		.4byte	0x14e1
 2858 0c19 1D       		.uleb128 0x1d
 2859 0c1a E0000000 		.4byte	.LVL29
 2860 0c1e EB140000 		.4byte	0x14eb
 2861 0c22 330C0000 		.4byte	0xc33
 2862 0c26 1E       		.uleb128 0x1e
 2863 0c27 01       		.byte	0x1
 2864 0c28 51       		.byte	0x51
 2865 0c29 02       		.byte	0x2
 2866 0c2a 08       		.byte	0x8
 2867 0c2b 58       		.byte	0x58
 2868 0c2c 1E       		.uleb128 0x1e
 2869 0c2d 01       		.byte	0x1
 2870 0c2e 50       		.byte	0x50
 2871 0c2f 02       		.byte	0x2
 2872 0c30 74       		.byte	0x74
 2873 0c31 00       		.sleb128 0
 2874 0c32 00       		.byte	0
 2875 0c33 1F       		.uleb128 0x1f
 2876 0c34 E6000000 		.4byte	.LVL31
 2877 0c38 08150000 		.4byte	0x1508
 2878 0c3c 1D       		.uleb128 0x1d
 2879 0c3d FA000000 		.4byte	.LVL34
 2880 0c41 7A140000 		.4byte	0x147a
 2881 0c45 580C0000 		.4byte	0xc58
 2882 0c49 1E       		.uleb128 0x1e
 2883 0c4a 01       		.byte	0x1
 2884 0c4b 51       		.byte	0x51
 2885 0c4c 05       		.byte	0x5
 2886 0c4d 76       		.byte	0x76
 2887 0c4e 00       		.sleb128 0
 2888 0c4f 09       		.byte	0x9
 2889 0c50 FF       		.byte	0xff
 2890 0c51 29       		.byte	0x29
 2891 0c52 1E       		.uleb128 0x1e
 2892 0c53 01       		.byte	0x1
 2893 0c54 50       		.byte	0x50
 2894 0c55 01       		.byte	0x1
 2895 0c56 35       		.byte	0x35
 2896 0c57 00       		.byte	0
 2897 0c58 1D       		.uleb128 0x1d
 2898 0c59 08010000 		.4byte	.LVL35
ARM GAS  /tmp/cce4pmgX.s 			page 52


 2899 0c5d BF140000 		.4byte	0x14bf
 2900 0c61 770C0000 		.4byte	0xc77
 2901 0c65 1E       		.uleb128 0x1e
 2902 0c66 01       		.byte	0x1
 2903 0c67 52       		.byte	0x52
 2904 0c68 01       		.byte	0x1
 2905 0c69 31       		.byte	0x31
 2906 0c6a 1E       		.uleb128 0x1e
 2907 0c6b 01       		.byte	0x1
 2908 0c6c 51       		.byte	0x51
 2909 0c6d 02       		.byte	0x2
 2910 0c6e 08       		.byte	0x8
 2911 0c6f 58       		.byte	0x58
 2912 0c70 1E       		.uleb128 0x1e
 2913 0c71 01       		.byte	0x1
 2914 0c72 50       		.byte	0x50
 2915 0c73 02       		.byte	0x2
 2916 0c74 74       		.byte	0x74
 2917 0c75 00       		.sleb128 0
 2918 0c76 00       		.byte	0
 2919 0c77 1D       		.uleb128 0x1d
 2920 0c78 18010000 		.4byte	.LVL37
 2921 0c7c 7A140000 		.4byte	0x147a
 2922 0c80 920C0000 		.4byte	0xc92
 2923 0c84 1E       		.uleb128 0x1e
 2924 0c85 01       		.byte	0x1
 2925 0c86 51       		.byte	0x51
 2926 0c87 04       		.byte	0x4
 2927 0c88 75       		.byte	0x75
 2928 0c89 00       		.sleb128 0
 2929 0c8a 30       		.byte	0x30
 2930 0c8b 29       		.byte	0x29
 2931 0c8c 1E       		.uleb128 0x1e
 2932 0c8d 01       		.byte	0x1
 2933 0c8e 50       		.byte	0x50
 2934 0c8f 01       		.byte	0x1
 2935 0c90 36       		.byte	0x36
 2936 0c91 00       		.byte	0
 2937 0c92 1F       		.uleb128 0x1f
 2938 0c93 28010000 		.4byte	.LVL41
 2939 0c97 E1140000 		.4byte	0x14e1
 2940 0c9b 1D       		.uleb128 0x1d
 2941 0c9c 30010000 		.4byte	.LVL42
 2942 0ca0 12150000 		.4byte	0x1512
 2943 0ca4 B50C0000 		.4byte	0xcb5
 2944 0ca8 1E       		.uleb128 0x1e
 2945 0ca9 01       		.byte	0x1
 2946 0caa 51       		.byte	0x51
 2947 0cab 02       		.byte	0x2
 2948 0cac 08       		.byte	0x8
 2949 0cad 58       		.byte	0x58
 2950 0cae 1E       		.uleb128 0x1e
 2951 0caf 01       		.byte	0x1
 2952 0cb0 50       		.byte	0x50
 2953 0cb1 02       		.byte	0x2
 2954 0cb2 74       		.byte	0x74
 2955 0cb3 00       		.sleb128 0
ARM GAS  /tmp/cce4pmgX.s 			page 53


 2956 0cb4 00       		.byte	0
 2957 0cb5 1F       		.uleb128 0x1f
 2958 0cb6 36010000 		.4byte	.LVL44
 2959 0cba 08150000 		.4byte	0x1508
 2960 0cbe 1D       		.uleb128 0x1d
 2961 0cbf 4E010000 		.4byte	.LVL48
 2962 0cc3 7A140000 		.4byte	0x147a
 2963 0cc7 DA0C0000 		.4byte	0xcda
 2964 0ccb 1E       		.uleb128 0x1e
 2965 0ccc 01       		.byte	0x1
 2966 0ccd 51       		.byte	0x51
 2967 0cce 05       		.byte	0x5
 2968 0ccf 76       		.byte	0x76
 2969 0cd0 00       		.sleb128 0
 2970 0cd1 09       		.byte	0x9
 2971 0cd2 FF       		.byte	0xff
 2972 0cd3 29       		.byte	0x29
 2973 0cd4 1E       		.uleb128 0x1e
 2974 0cd5 01       		.byte	0x1
 2975 0cd6 50       		.byte	0x50
 2976 0cd7 01       		.byte	0x1
 2977 0cd8 37       		.byte	0x37
 2978 0cd9 00       		.byte	0
 2979 0cda 1F       		.uleb128 0x1f
 2980 0cdb 5C010000 		.4byte	.LVL51
 2981 0cdf E1140000 		.4byte	0x14e1
 2982 0ce3 1D       		.uleb128 0x1d
 2983 0ce4 6C010000 		.4byte	.LVL53
 2984 0ce8 7A140000 		.4byte	0x147a
 2985 0cec 100D0000 		.4byte	0xd10
 2986 0cf0 1E       		.uleb128 0x1e
 2987 0cf1 01       		.byte	0x1
 2988 0cf2 51       		.byte	0x51
 2989 0cf3 16       		.byte	0x16
 2990 0cf4 30       		.byte	0x30
 2991 0cf5 31       		.byte	0x31
 2992 0cf6 76       		.byte	0x76
 2993 0cf7 00       		.sleb128 0
 2994 0cf8 1C       		.byte	0x1c
 2995 0cf9 31       		.byte	0x31
 2996 0cfa 40       		.byte	0x40
 2997 0cfb 4B       		.byte	0x4b
 2998 0cfc 24       		.byte	0x24
 2999 0cfd 22       		.byte	0x22
 3000 0cfe 76       		.byte	0x76
 3001 0cff 00       		.sleb128 0
 3002 0d00 40       		.byte	0x40
 3003 0d01 4B       		.byte	0x4b
 3004 0d02 24       		.byte	0x24
 3005 0d03 22       		.byte	0x22
 3006 0d04 2D       		.byte	0x2d
 3007 0d05 28       		.byte	0x28
 3008 0d06 0100     		.2byte	0x1
 3009 0d08 16       		.byte	0x16
 3010 0d09 13       		.byte	0x13
 3011 0d0a 1E       		.uleb128 0x1e
 3012 0d0b 01       		.byte	0x1
ARM GAS  /tmp/cce4pmgX.s 			page 54


 3013 0d0c 50       		.byte	0x50
 3014 0d0d 01       		.byte	0x1
 3015 0d0e 38       		.byte	0x38
 3016 0d0f 00       		.byte	0
 3017 0d10 1F       		.uleb128 0x1f
 3018 0d11 76010000 		.4byte	.LVL54
 3019 0d15 08150000 		.4byte	0x1508
 3020 0d19 1F       		.uleb128 0x1f
 3021 0d1a 86010000 		.4byte	.LVL59
 3022 0d1e E1140000 		.4byte	0x14e1
 3023 0d22 1D       		.uleb128 0x1d
 3024 0d23 9A010000 		.4byte	.LVL60
 3025 0d27 7A140000 		.4byte	0x147a
 3026 0d2b 350D0000 		.4byte	0xd35
 3027 0d2f 1E       		.uleb128 0x1e
 3028 0d30 01       		.byte	0x1
 3029 0d31 50       		.byte	0x50
 3030 0d32 01       		.byte	0x1
 3031 0d33 39       		.byte	0x39
 3032 0d34 00       		.byte	0
 3033 0d35 1F       		.uleb128 0x1f
 3034 0d36 A2010000 		.4byte	.LVL61
 3035 0d3a 08150000 		.4byte	0x1508
 3036 0d3e 1F       		.uleb128 0x1f
 3037 0d3f AE010000 		.4byte	.LVL64
 3038 0d43 08150000 		.4byte	0x1508
 3039 0d47 1F       		.uleb128 0x1f
 3040 0d48 BE010000 		.4byte	.LVL69
 3041 0d4c E1140000 		.4byte	0x14e1
 3042 0d50 1D       		.uleb128 0x1d
 3043 0d51 CE010000 		.4byte	.LVL70
 3044 0d55 7A140000 		.4byte	0x147a
 3045 0d59 640D0000 		.4byte	0xd64
 3046 0d5d 1E       		.uleb128 0x1e
 3047 0d5e 01       		.byte	0x1
 3048 0d5f 50       		.byte	0x50
 3049 0d60 02       		.byte	0x2
 3050 0d61 08       		.byte	0x8
 3051 0d62 2F       		.byte	0x2f
 3052 0d63 00       		.byte	0
 3053 0d64 1F       		.uleb128 0x1f
 3054 0d65 D2010000 		.4byte	.LVL71
 3055 0d69 08150000 		.4byte	0x1508
 3056 0d6d 1F       		.uleb128 0x1f
 3057 0d6e E4010000 		.4byte	.LVL74
 3058 0d72 08150000 		.4byte	0x1508
 3059 0d76 1F       		.uleb128 0x1f
 3060 0d77 F4010000 		.4byte	.LVL79
 3061 0d7b E1140000 		.4byte	0x14e1
 3062 0d7f 1D       		.uleb128 0x1d
 3063 0d80 04020000 		.4byte	.LVL80
 3064 0d84 7A140000 		.4byte	0x147a
 3065 0d88 9A0D0000 		.4byte	0xd9a
 3066 0d8c 1E       		.uleb128 0x1e
 3067 0d8d 01       		.byte	0x1
 3068 0d8e 51       		.byte	0x51
 3069 0d8f 04       		.byte	0x4
ARM GAS  /tmp/cce4pmgX.s 			page 55


 3070 0d90 76       		.byte	0x76
 3071 0d91 00       		.sleb128 0
 3072 0d92 30       		.byte	0x30
 3073 0d93 29       		.byte	0x29
 3074 0d94 1E       		.uleb128 0x1e
 3075 0d95 01       		.byte	0x1
 3076 0d96 50       		.byte	0x50
 3077 0d97 01       		.byte	0x1
 3078 0d98 3A       		.byte	0x3a
 3079 0d99 00       		.byte	0
 3080 0d9a 1F       		.uleb128 0x1f
 3081 0d9b 10020000 		.4byte	.LVL81
 3082 0d9f 08150000 		.4byte	0x1508
 3083 0da3 1D       		.uleb128 0x1d
 3084 0da4 26020000 		.4byte	.LVL85
 3085 0da8 2F150000 		.4byte	0x152f
 3086 0dac C30D0000 		.4byte	0xdc3
 3087 0db0 1E       		.uleb128 0x1e
 3088 0db1 01       		.byte	0x1
 3089 0db2 52       		.byte	0x52
 3090 0db3 02       		.byte	0x2
 3091 0db4 09       		.byte	0x9
 3092 0db5 FF       		.byte	0xff
 3093 0db6 1E       		.uleb128 0x1e
 3094 0db7 01       		.byte	0x1
 3095 0db8 51       		.byte	0x51
 3096 0db9 02       		.byte	0x2
 3097 0dba 91       		.byte	0x91
 3098 0dbb 64       		.sleb128 -28
 3099 0dbc 1E       		.uleb128 0x1e
 3100 0dbd 01       		.byte	0x1
 3101 0dbe 50       		.byte	0x50
 3102 0dbf 02       		.byte	0x2
 3103 0dc0 74       		.byte	0x74
 3104 0dc1 00       		.sleb128 0
 3105 0dc2 00       		.byte	0
 3106 0dc3 1D       		.uleb128 0x1d
 3107 0dc4 34020000 		.4byte	.LVL87
 3108 0dc8 7A140000 		.4byte	0x147a
 3109 0dcc D60D0000 		.4byte	0xdd6
 3110 0dd0 1E       		.uleb128 0x1e
 3111 0dd1 01       		.byte	0x1
 3112 0dd2 50       		.byte	0x50
 3113 0dd3 01       		.byte	0x1
 3114 0dd4 3B       		.byte	0x3b
 3115 0dd5 00       		.byte	0
 3116 0dd6 1F       		.uleb128 0x1f
 3117 0dd7 42020000 		.4byte	.LVL88
 3118 0ddb 51150000 		.4byte	0x1551
 3119 0ddf 1D       		.uleb128 0x1d
 3120 0de0 4E020000 		.4byte	.LVL89
 3121 0de4 65150000 		.4byte	0x1565
 3122 0de8 FB0D0000 		.4byte	0xdfb
 3123 0dec 1E       		.uleb128 0x1e
 3124 0ded 01       		.byte	0x1
 3125 0dee 51       		.byte	0x51
 3126 0def 05       		.byte	0x5
ARM GAS  /tmp/cce4pmgX.s 			page 56


 3127 0df0 03       		.byte	0x3
 3128 0df1 00000000 		.4byte	.LC0
 3129 0df5 1E       		.uleb128 0x1e
 3130 0df6 01       		.byte	0x1
 3131 0df7 50       		.byte	0x50
 3132 0df8 01       		.byte	0x1
 3133 0df9 3C       		.byte	0x3c
 3134 0dfa 00       		.byte	0
 3135 0dfb 1D       		.uleb128 0x1d
 3136 0dfc 60020000 		.4byte	.LVL90
 3137 0e00 97140000 		.4byte	0x1497
 3138 0e04 1B0E0000 		.4byte	0xe1b
 3139 0e08 1E       		.uleb128 0x1e
 3140 0e09 01       		.byte	0x1
 3141 0e0a 52       		.byte	0x52
 3142 0e0b 02       		.byte	0x2
 3143 0e0c 09       		.byte	0x9
 3144 0e0d FF       		.byte	0xff
 3145 0e0e 1E       		.uleb128 0x1e
 3146 0e0f 01       		.byte	0x1
 3147 0e10 51       		.byte	0x51
 3148 0e11 02       		.byte	0x2
 3149 0e12 08       		.byte	0x8
 3150 0e13 47       		.byte	0x47
 3151 0e14 1E       		.uleb128 0x1e
 3152 0e15 01       		.byte	0x1
 3153 0e16 50       		.byte	0x50
 3154 0e17 02       		.byte	0x2
 3155 0e18 74       		.byte	0x74
 3156 0e19 00       		.sleb128 0
 3157 0e1a 00       		.byte	0
 3158 0e1b 1D       		.uleb128 0x1d
 3159 0e1c 6E020000 		.4byte	.LVL92
 3160 0e20 7A140000 		.4byte	0x147a
 3161 0e24 2E0E0000 		.4byte	0xe2e
 3162 0e28 1E       		.uleb128 0x1e
 3163 0e29 01       		.byte	0x1
 3164 0e2a 50       		.byte	0x50
 3165 0e2b 01       		.byte	0x1
 3166 0e2c 3D       		.byte	0x3d
 3167 0e2d 00       		.byte	0
 3168 0e2e 1D       		.uleb128 0x1d
 3169 0e2f 80020000 		.4byte	.LVL93
 3170 0e33 2F150000 		.4byte	0x152f
 3171 0e37 4E0E0000 		.4byte	0xe4e
 3172 0e3b 1E       		.uleb128 0x1e
 3173 0e3c 01       		.byte	0x1
 3174 0e3d 52       		.byte	0x52
 3175 0e3e 02       		.byte	0x2
 3176 0e3f 09       		.byte	0x9
 3177 0e40 FF       		.byte	0xff
 3178 0e41 1E       		.uleb128 0x1e
 3179 0e42 01       		.byte	0x1
 3180 0e43 51       		.byte	0x51
 3181 0e44 02       		.byte	0x2
 3182 0e45 91       		.byte	0x91
 3183 0e46 64       		.sleb128 -28
ARM GAS  /tmp/cce4pmgX.s 			page 57


 3184 0e47 1E       		.uleb128 0x1e
 3185 0e48 01       		.byte	0x1
 3186 0e49 50       		.byte	0x50
 3187 0e4a 02       		.byte	0x2
 3188 0e4b 74       		.byte	0x74
 3189 0e4c 00       		.sleb128 0
 3190 0e4d 00       		.byte	0
 3191 0e4e 1D       		.uleb128 0x1d
 3192 0e4f 8E020000 		.4byte	.LVL95
 3193 0e53 7A140000 		.4byte	0x147a
 3194 0e57 610E0000 		.4byte	0xe61
 3195 0e5b 1E       		.uleb128 0x1e
 3196 0e5c 01       		.byte	0x1
 3197 0e5d 50       		.byte	0x50
 3198 0e5e 01       		.byte	0x1
 3199 0e5f 3E       		.byte	0x3e
 3200 0e60 00       		.byte	0
 3201 0e61 1D       		.uleb128 0x1d
 3202 0e62 A4020000 		.4byte	.LVL96
 3203 0e66 7A140000 		.4byte	0x147a
 3204 0e6a 740E0000 		.4byte	0xe74
 3205 0e6e 1E       		.uleb128 0x1e
 3206 0e6f 01       		.byte	0x1
 3207 0e70 50       		.byte	0x50
 3208 0e71 01       		.byte	0x1
 3209 0e72 3F       		.byte	0x3f
 3210 0e73 00       		.byte	0
 3211 0e74 1D       		.uleb128 0x1d
 3212 0e75 BA020000 		.4byte	.LVL97
 3213 0e79 7A140000 		.4byte	0x147a
 3214 0e7d 870E0000 		.4byte	0xe87
 3215 0e81 1E       		.uleb128 0x1e
 3216 0e82 01       		.byte	0x1
 3217 0e83 50       		.byte	0x50
 3218 0e84 01       		.byte	0x1
 3219 0e85 40       		.byte	0x40
 3220 0e86 00       		.byte	0
 3221 0e87 1D       		.uleb128 0x1d
 3222 0e88 CA020000 		.4byte	.LVL98
 3223 0e8c 2F150000 		.4byte	0x152f
 3224 0e90 A60E0000 		.4byte	0xea6
 3225 0e94 1E       		.uleb128 0x1e
 3226 0e95 01       		.byte	0x1
 3227 0e96 52       		.byte	0x52
 3228 0e97 01       		.byte	0x1
 3229 0e98 31       		.byte	0x31
 3230 0e99 1E       		.uleb128 0x1e
 3231 0e9a 01       		.byte	0x1
 3232 0e9b 51       		.byte	0x51
 3233 0e9c 02       		.byte	0x2
 3234 0e9d 91       		.byte	0x91
 3235 0e9e 64       		.sleb128 -28
 3236 0e9f 1E       		.uleb128 0x1e
 3237 0ea0 01       		.byte	0x1
 3238 0ea1 50       		.byte	0x50
 3239 0ea2 02       		.byte	0x2
 3240 0ea3 74       		.byte	0x74
ARM GAS  /tmp/cce4pmgX.s 			page 58


 3241 0ea4 00       		.sleb128 0
 3242 0ea5 00       		.byte	0
 3243 0ea6 1D       		.uleb128 0x1d
 3244 0ea7 DA020000 		.4byte	.LVL101
 3245 0eab 7A140000 		.4byte	0x147a
 3246 0eaf B90E0000 		.4byte	0xeb9
 3247 0eb3 1E       		.uleb128 0x1e
 3248 0eb4 01       		.byte	0x1
 3249 0eb5 50       		.byte	0x50
 3250 0eb6 01       		.byte	0x1
 3251 0eb7 41       		.byte	0x41
 3252 0eb8 00       		.byte	0
 3253 0eb9 1F       		.uleb128 0x1f
 3254 0eba EA020000 		.4byte	.LVL104
 3255 0ebe E1140000 		.4byte	0x14e1
 3256 0ec2 1D       		.uleb128 0x1d
 3257 0ec3 F2020000 		.4byte	.LVL105
 3258 0ec7 88150000 		.4byte	0x1588
 3259 0ecb DC0E0000 		.4byte	0xedc
 3260 0ecf 1E       		.uleb128 0x1e
 3261 0ed0 01       		.byte	0x1
 3262 0ed1 51       		.byte	0x51
 3263 0ed2 02       		.byte	0x2
 3264 0ed3 91       		.byte	0x91
 3265 0ed4 64       		.sleb128 -28
 3266 0ed5 1E       		.uleb128 0x1e
 3267 0ed6 01       		.byte	0x1
 3268 0ed7 50       		.byte	0x50
 3269 0ed8 02       		.byte	0x2
 3270 0ed9 74       		.byte	0x74
 3271 0eda 00       		.sleb128 0
 3272 0edb 00       		.byte	0
 3273 0edc 1F       		.uleb128 0x1f
 3274 0edd F8020000 		.4byte	.LVL107
 3275 0ee1 08150000 		.4byte	0x1508
 3276 0ee5 1D       		.uleb128 0x1d
 3277 0ee6 10030000 		.4byte	.LVL110
 3278 0eea 7A140000 		.4byte	0x147a
 3279 0eee 010F0000 		.4byte	0xf01
 3280 0ef2 1E       		.uleb128 0x1e
 3281 0ef3 01       		.byte	0x1
 3282 0ef4 51       		.byte	0x51
 3283 0ef5 05       		.byte	0x5
 3284 0ef6 77       		.byte	0x77
 3285 0ef7 00       		.sleb128 0
 3286 0ef8 09       		.byte	0x9
 3287 0ef9 FF       		.byte	0xff
 3288 0efa 29       		.byte	0x29
 3289 0efb 1E       		.uleb128 0x1e
 3290 0efc 01       		.byte	0x1
 3291 0efd 50       		.byte	0x50
 3292 0efe 01       		.byte	0x1
 3293 0eff 42       		.byte	0x42
 3294 0f00 00       		.byte	0
 3295 0f01 1F       		.uleb128 0x1f
 3296 0f02 20030000 		.4byte	.LVL113
 3297 0f06 E1140000 		.4byte	0x14e1
ARM GAS  /tmp/cce4pmgX.s 			page 59


 3298 0f0a 1D       		.uleb128 0x1d
 3299 0f0b 30030000 		.4byte	.LVL114
 3300 0f0f 7A140000 		.4byte	0x147a
 3301 0f13 1D0F0000 		.4byte	0xf1d
 3302 0f17 1E       		.uleb128 0x1e
 3303 0f18 01       		.byte	0x1
 3304 0f19 50       		.byte	0x50
 3305 0f1a 01       		.byte	0x1
 3306 0f1b 43       		.byte	0x43
 3307 0f1c 00       		.byte	0
 3308 0f1d 1F       		.uleb128 0x1f
 3309 0f1e 3A030000 		.4byte	.LVL115
 3310 0f22 08150000 		.4byte	0x1508
 3311 0f26 1F       		.uleb128 0x1f
 3312 0f27 4A030000 		.4byte	.LVL120
 3313 0f2b E1140000 		.4byte	0x14e1
 3314 0f2f 1D       		.uleb128 0x1d
 3315 0f30 5A030000 		.4byte	.LVL121
 3316 0f34 7A140000 		.4byte	0x147a
 3317 0f38 5C0F0000 		.4byte	0xf5c
 3318 0f3c 1E       		.uleb128 0x1e
 3319 0f3d 01       		.byte	0x1
 3320 0f3e 51       		.byte	0x51
 3321 0f3f 16       		.byte	0x16
 3322 0f40 30       		.byte	0x30
 3323 0f41 31       		.byte	0x31
 3324 0f42 74       		.byte	0x74
 3325 0f43 00       		.sleb128 0
 3326 0f44 1C       		.byte	0x1c
 3327 0f45 31       		.byte	0x31
 3328 0f46 40       		.byte	0x40
 3329 0f47 4B       		.byte	0x4b
 3330 0f48 24       		.byte	0x24
 3331 0f49 22       		.byte	0x22
 3332 0f4a 74       		.byte	0x74
 3333 0f4b 00       		.sleb128 0
 3334 0f4c 40       		.byte	0x40
 3335 0f4d 4B       		.byte	0x4b
 3336 0f4e 24       		.byte	0x24
 3337 0f4f 22       		.byte	0x22
 3338 0f50 2D       		.byte	0x2d
 3339 0f51 28       		.byte	0x28
 3340 0f52 0100     		.2byte	0x1
 3341 0f54 16       		.byte	0x16
 3342 0f55 13       		.byte	0x13
 3343 0f56 1E       		.uleb128 0x1e
 3344 0f57 01       		.byte	0x1
 3345 0f58 50       		.byte	0x50
 3346 0f59 01       		.byte	0x1
 3347 0f5a 44       		.byte	0x44
 3348 0f5b 00       		.byte	0
 3349 0f5c 1F       		.uleb128 0x1f
 3350 0f5d 68030000 		.4byte	.LVL122
 3351 0f61 08150000 		.4byte	0x1508
 3352 0f65 1F       		.uleb128 0x1f
 3353 0f66 78030000 		.4byte	.LVL127
 3354 0f6a E1140000 		.4byte	0x14e1
ARM GAS  /tmp/cce4pmgX.s 			page 60


 3355 0f6e 1D       		.uleb128 0x1d
 3356 0f6f 8A030000 		.4byte	.LVL128
 3357 0f73 7A140000 		.4byte	0x147a
 3358 0f77 810F0000 		.4byte	0xf81
 3359 0f7b 1E       		.uleb128 0x1e
 3360 0f7c 01       		.byte	0x1
 3361 0f7d 50       		.byte	0x50
 3362 0f7e 01       		.byte	0x1
 3363 0f7f 45       		.byte	0x45
 3364 0f80 00       		.byte	0
 3365 0f81 1F       		.uleb128 0x1f
 3366 0f82 96030000 		.4byte	.LVL129
 3367 0f86 08150000 		.4byte	0x1508
 3368 0f8a 1F       		.uleb128 0x1f
 3369 0f8b A6030000 		.4byte	.LVL134
 3370 0f8f E1140000 		.4byte	0x14e1
 3371 0f93 1D       		.uleb128 0x1d
 3372 0f94 AE030000 		.4byte	.LVL135
 3373 0f98 EB140000 		.4byte	0x14eb
 3374 0f9c AD0F0000 		.4byte	0xfad
 3375 0fa0 1E       		.uleb128 0x1e
 3376 0fa1 01       		.byte	0x1
 3377 0fa2 51       		.byte	0x51
 3378 0fa3 02       		.byte	0x2
 3379 0fa4 08       		.byte	0x8
 3380 0fa5 41       		.byte	0x41
 3381 0fa6 1E       		.uleb128 0x1e
 3382 0fa7 01       		.byte	0x1
 3383 0fa8 50       		.byte	0x50
 3384 0fa9 02       		.byte	0x2
 3385 0faa 74       		.byte	0x74
 3386 0fab 00       		.sleb128 0
 3387 0fac 00       		.byte	0
 3388 0fad 1D       		.uleb128 0x1d
 3389 0fae BC030000 		.4byte	.LVL137
 3390 0fb2 7A140000 		.4byte	0x147a
 3391 0fb6 C00F0000 		.4byte	0xfc0
 3392 0fba 1E       		.uleb128 0x1e
 3393 0fbb 01       		.byte	0x1
 3394 0fbc 50       		.byte	0x50
 3395 0fbd 01       		.byte	0x1
 3396 0fbe 46       		.byte	0x46
 3397 0fbf 00       		.byte	0
 3398 0fc0 1D       		.uleb128 0x1d
 3399 0fc1 CA030000 		.4byte	.LVL138
 3400 0fc5 EB140000 		.4byte	0x14eb
 3401 0fc9 DA0F0000 		.4byte	0xfda
 3402 0fcd 1E       		.uleb128 0x1e
 3403 0fce 01       		.byte	0x1
 3404 0fcf 51       		.byte	0x51
 3405 0fd0 02       		.byte	0x2
 3406 0fd1 08       		.byte	0x8
 3407 0fd2 42       		.byte	0x42
 3408 0fd3 1E       		.uleb128 0x1e
 3409 0fd4 01       		.byte	0x1
 3410 0fd5 50       		.byte	0x50
 3411 0fd6 02       		.byte	0x2
ARM GAS  /tmp/cce4pmgX.s 			page 61


 3412 0fd7 74       		.byte	0x74
 3413 0fd8 00       		.sleb128 0
 3414 0fd9 00       		.byte	0
 3415 0fda 1D       		.uleb128 0x1d
 3416 0fdb D8030000 		.4byte	.LVL140
 3417 0fdf 7A140000 		.4byte	0x147a
 3418 0fe3 ED0F0000 		.4byte	0xfed
 3419 0fe7 1E       		.uleb128 0x1e
 3420 0fe8 01       		.byte	0x1
 3421 0fe9 50       		.byte	0x50
 3422 0fea 01       		.byte	0x1
 3423 0feb 47       		.byte	0x47
 3424 0fec 00       		.byte	0
 3425 0fed 1D       		.uleb128 0x1d
 3426 0fee E6030000 		.4byte	.LVL141
 3427 0ff2 EB140000 		.4byte	0x14eb
 3428 0ff6 07100000 		.4byte	0x1007
 3429 0ffa 1E       		.uleb128 0x1e
 3430 0ffb 01       		.byte	0x1
 3431 0ffc 51       		.byte	0x51
 3432 0ffd 02       		.byte	0x2
 3433 0ffe 08       		.byte	0x8
 3434 0fff 43       		.byte	0x43
 3435 1000 1E       		.uleb128 0x1e
 3436 1001 01       		.byte	0x1
 3437 1002 50       		.byte	0x50
 3438 1003 02       		.byte	0x2
 3439 1004 74       		.byte	0x74
 3440 1005 00       		.sleb128 0
 3441 1006 00       		.byte	0
 3442 1007 1D       		.uleb128 0x1d
 3443 1008 F4030000 		.4byte	.LVL143
 3444 100c 7A140000 		.4byte	0x147a
 3445 1010 1A100000 		.4byte	0x101a
 3446 1014 1E       		.uleb128 0x1e
 3447 1015 01       		.byte	0x1
 3448 1016 50       		.byte	0x50
 3449 1017 01       		.byte	0x1
 3450 1018 48       		.byte	0x48
 3451 1019 00       		.byte	0
 3452 101a 1D       		.uleb128 0x1d
 3453 101b 02040000 		.4byte	.LVL144
 3454 101f EB140000 		.4byte	0x14eb
 3455 1023 34100000 		.4byte	0x1034
 3456 1027 1E       		.uleb128 0x1e
 3457 1028 01       		.byte	0x1
 3458 1029 51       		.byte	0x51
 3459 102a 02       		.byte	0x2
 3460 102b 08       		.byte	0x8
 3461 102c 44       		.byte	0x44
 3462 102d 1E       		.uleb128 0x1e
 3463 102e 01       		.byte	0x1
 3464 102f 50       		.byte	0x50
 3465 1030 02       		.byte	0x2
 3466 1031 74       		.byte	0x74
 3467 1032 00       		.sleb128 0
 3468 1033 00       		.byte	0
ARM GAS  /tmp/cce4pmgX.s 			page 62


 3469 1034 1D       		.uleb128 0x1d
 3470 1035 10040000 		.4byte	.LVL146
 3471 1039 7A140000 		.4byte	0x147a
 3472 103d 47100000 		.4byte	0x1047
 3473 1041 1E       		.uleb128 0x1e
 3474 1042 01       		.byte	0x1
 3475 1043 50       		.byte	0x50
 3476 1044 01       		.byte	0x1
 3477 1045 49       		.byte	0x49
 3478 1046 00       		.byte	0
 3479 1047 1D       		.uleb128 0x1d
 3480 1048 20040000 		.4byte	.LVL147
 3481 104c EB140000 		.4byte	0x14eb
 3482 1050 61100000 		.4byte	0x1061
 3483 1054 1E       		.uleb128 0x1e
 3484 1055 01       		.byte	0x1
 3485 1056 51       		.byte	0x51
 3486 1057 02       		.byte	0x2
 3487 1058 08       		.byte	0x8
 3488 1059 45       		.byte	0x45
 3489 105a 1E       		.uleb128 0x1e
 3490 105b 01       		.byte	0x1
 3491 105c 50       		.byte	0x50
 3492 105d 02       		.byte	0x2
 3493 105e 74       		.byte	0x74
 3494 105f 00       		.sleb128 0
 3495 1060 00       		.byte	0
 3496 1061 1F       		.uleb128 0x1f
 3497 1062 26040000 		.4byte	.LVL149
 3498 1066 08150000 		.4byte	0x1508
 3499 106a 1D       		.uleb128 0x1d
 3500 106b 3A040000 		.4byte	.LVL152
 3501 106f 7A140000 		.4byte	0x147a
 3502 1073 97100000 		.4byte	0x1097
 3503 1077 1E       		.uleb128 0x1e
 3504 1078 01       		.byte	0x1
 3505 1079 51       		.byte	0x51
 3506 107a 16       		.byte	0x16
 3507 107b 30       		.byte	0x30
 3508 107c 31       		.byte	0x31
 3509 107d 76       		.byte	0x76
 3510 107e 00       		.sleb128 0
 3511 107f 1C       		.byte	0x1c
 3512 1080 31       		.byte	0x31
 3513 1081 40       		.byte	0x40
 3514 1082 4B       		.byte	0x4b
 3515 1083 24       		.byte	0x24
 3516 1084 22       		.byte	0x22
 3517 1085 76       		.byte	0x76
 3518 1086 00       		.sleb128 0
 3519 1087 40       		.byte	0x40
 3520 1088 4B       		.byte	0x4b
 3521 1089 24       		.byte	0x24
 3522 108a 22       		.byte	0x22
 3523 108b 2D       		.byte	0x2d
 3524 108c 28       		.byte	0x28
 3525 108d 0100     		.2byte	0x1
ARM GAS  /tmp/cce4pmgX.s 			page 63


 3526 108f 16       		.byte	0x16
 3527 1090 13       		.byte	0x13
 3528 1091 1E       		.uleb128 0x1e
 3529 1092 01       		.byte	0x1
 3530 1093 50       		.byte	0x50
 3531 1094 01       		.byte	0x1
 3532 1095 4A       		.byte	0x4a
 3533 1096 00       		.byte	0
 3534 1097 1D       		.uleb128 0x1d
 3535 1098 56040000 		.4byte	.LVL153
 3536 109c 7A140000 		.4byte	0x147a
 3537 10a0 AA100000 		.4byte	0x10aa
 3538 10a4 1E       		.uleb128 0x1e
 3539 10a5 01       		.byte	0x1
 3540 10a6 50       		.byte	0x50
 3541 10a7 01       		.byte	0x1
 3542 10a8 4B       		.byte	0x4b
 3543 10a9 00       		.byte	0
 3544 10aa 1F       		.uleb128 0x1f
 3545 10ab 6A040000 		.4byte	.LVL156
 3546 10af E1140000 		.4byte	0x14e1
 3547 10b3 1D       		.uleb128 0x1d
 3548 10b4 72040000 		.4byte	.LVL157
 3549 10b8 88150000 		.4byte	0x1588
 3550 10bc CD100000 		.4byte	0x10cd
 3551 10c0 1E       		.uleb128 0x1e
 3552 10c1 01       		.byte	0x1
 3553 10c2 51       		.byte	0x51
 3554 10c3 02       		.byte	0x2
 3555 10c4 91       		.byte	0x91
 3556 10c5 64       		.sleb128 -28
 3557 10c6 1E       		.uleb128 0x1e
 3558 10c7 01       		.byte	0x1
 3559 10c8 50       		.byte	0x50
 3560 10c9 02       		.byte	0x2
 3561 10ca 74       		.byte	0x74
 3562 10cb 00       		.sleb128 0
 3563 10cc 00       		.byte	0
 3564 10cd 1F       		.uleb128 0x1f
 3565 10ce 78040000 		.4byte	.LVL159
 3566 10d2 08150000 		.4byte	0x1508
 3567 10d6 1D       		.uleb128 0x1d
 3568 10d7 8A040000 		.4byte	.LVL163
 3569 10db 7A140000 		.4byte	0x147a
 3570 10df F1100000 		.4byte	0x10f1
 3571 10e3 1E       		.uleb128 0x1e
 3572 10e4 01       		.byte	0x1
 3573 10e5 51       		.byte	0x51
 3574 10e6 04       		.byte	0x4
 3575 10e7 76       		.byte	0x76
 3576 10e8 00       		.sleb128 0
 3577 10e9 30       		.byte	0x30
 3578 10ea 29       		.byte	0x29
 3579 10eb 1E       		.uleb128 0x1e
 3580 10ec 01       		.byte	0x1
 3581 10ed 50       		.byte	0x50
 3582 10ee 01       		.byte	0x1
ARM GAS  /tmp/cce4pmgX.s 			page 64


 3583 10ef 4C       		.byte	0x4c
 3584 10f0 00       		.byte	0
 3585 10f1 1F       		.uleb128 0x1f
 3586 10f2 98040000 		.4byte	.LVL164
 3587 10f6 51150000 		.4byte	0x1551
 3588 10fa 1D       		.uleb128 0x1d
 3589 10fb A4040000 		.4byte	.LVL165
 3590 10ff 65150000 		.4byte	0x1565
 3591 1103 16110000 		.4byte	0x1116
 3592 1107 1E       		.uleb128 0x1e
 3593 1108 01       		.byte	0x1
 3594 1109 51       		.byte	0x51
 3595 110a 05       		.byte	0x5
 3596 110b 03       		.byte	0x3
 3597 110c 00000000 		.4byte	.LC0
 3598 1110 1E       		.uleb128 0x1e
 3599 1111 01       		.byte	0x1
 3600 1112 50       		.byte	0x50
 3601 1113 01       		.byte	0x1
 3602 1114 4D       		.byte	0x4d
 3603 1115 00       		.byte	0
 3604 1116 1F       		.uleb128 0x1f
 3605 1117 B4040000 		.4byte	.LVL168
 3606 111b E1140000 		.4byte	0x14e1
 3607 111f 1D       		.uleb128 0x1d
 3608 1120 C2040000 		.4byte	.LVL169
 3609 1124 7A140000 		.4byte	0x147a
 3610 1128 32110000 		.4byte	0x1132
 3611 112c 1E       		.uleb128 0x1e
 3612 112d 01       		.byte	0x1
 3613 112e 50       		.byte	0x50
 3614 112f 01       		.byte	0x1
 3615 1130 4E       		.byte	0x4e
 3616 1131 00       		.byte	0
 3617 1132 1F       		.uleb128 0x1f
 3618 1133 CC040000 		.4byte	.LVL170
 3619 1137 08150000 		.4byte	0x1508
 3620 113b 1F       		.uleb128 0x1f
 3621 113c DC040000 		.4byte	.LVL175
 3622 1140 E1140000 		.4byte	0x14e1
 3623 1144 1D       		.uleb128 0x1d
 3624 1145 EC040000 		.4byte	.LVL176
 3625 1149 7A140000 		.4byte	0x147a
 3626 114d 57110000 		.4byte	0x1157
 3627 1151 1E       		.uleb128 0x1e
 3628 1152 01       		.byte	0x1
 3629 1153 50       		.byte	0x50
 3630 1154 01       		.byte	0x1
 3631 1155 4F       		.byte	0x4f
 3632 1156 00       		.byte	0
 3633 1157 1F       		.uleb128 0x1f
 3634 1158 F6040000 		.4byte	.LVL177
 3635 115c 08150000 		.4byte	0x1508
 3636 1160 1D       		.uleb128 0x1d
 3637 1161 0C050000 		.4byte	.LVL181
 3638 1165 7A140000 		.4byte	0x147a
 3639 1169 74110000 		.4byte	0x1174
ARM GAS  /tmp/cce4pmgX.s 			page 65


 3640 116d 1E       		.uleb128 0x1e
 3641 116e 01       		.byte	0x1
 3642 116f 50       		.byte	0x50
 3643 1170 02       		.byte	0x2
 3644 1171 08       		.byte	0x8
 3645 1172 20       		.byte	0x20
 3646 1173 00       		.byte	0
 3647 1174 1F       		.uleb128 0x1f
 3648 1175 1C050000 		.4byte	.LVL184
 3649 1179 E1140000 		.4byte	0x14e1
 3650 117d 1D       		.uleb128 0x1d
 3651 117e 24050000 		.4byte	.LVL185
 3652 1182 12150000 		.4byte	0x1512
 3653 1186 97110000 		.4byte	0x1197
 3654 118a 1E       		.uleb128 0x1e
 3655 118b 01       		.byte	0x1
 3656 118c 51       		.byte	0x51
 3657 118d 02       		.byte	0x2
 3658 118e 08       		.byte	0x8
 3659 118f 45       		.byte	0x45
 3660 1190 1E       		.uleb128 0x1e
 3661 1191 01       		.byte	0x1
 3662 1192 50       		.byte	0x50
 3663 1193 02       		.byte	0x2
 3664 1194 74       		.byte	0x74
 3665 1195 00       		.sleb128 0
 3666 1196 00       		.byte	0
 3667 1197 1D       		.uleb128 0x1d
 3668 1198 32050000 		.4byte	.LVL187
 3669 119c 7A140000 		.4byte	0x147a
 3670 11a0 AB110000 		.4byte	0x11ab
 3671 11a4 1E       		.uleb128 0x1e
 3672 11a5 01       		.byte	0x1
 3673 11a6 50       		.byte	0x50
 3674 11a7 02       		.byte	0x2
 3675 11a8 08       		.byte	0x8
 3676 11a9 21       		.byte	0x21
 3677 11aa 00       		.byte	0
 3678 11ab 1D       		.uleb128 0x1d
 3679 11ac 4C050000 		.4byte	.LVL188
 3680 11b0 12150000 		.4byte	0x1512
 3681 11b4 C5110000 		.4byte	0x11c5
 3682 11b8 1E       		.uleb128 0x1e
 3683 11b9 01       		.byte	0x1
 3684 11ba 51       		.byte	0x51
 3685 11bb 02       		.byte	0x2
 3686 11bc 08       		.byte	0x8
 3687 11bd 44       		.byte	0x44
 3688 11be 1E       		.uleb128 0x1e
 3689 11bf 01       		.byte	0x1
 3690 11c0 50       		.byte	0x50
 3691 11c1 02       		.byte	0x2
 3692 11c2 74       		.byte	0x74
 3693 11c3 00       		.sleb128 0
 3694 11c4 00       		.byte	0
 3695 11c5 1D       		.uleb128 0x1d
 3696 11c6 5A050000 		.4byte	.LVL190
ARM GAS  /tmp/cce4pmgX.s 			page 66


 3697 11ca 7A140000 		.4byte	0x147a
 3698 11ce D9110000 		.4byte	0x11d9
 3699 11d2 1E       		.uleb128 0x1e
 3700 11d3 01       		.byte	0x1
 3701 11d4 50       		.byte	0x50
 3702 11d5 02       		.byte	0x2
 3703 11d6 08       		.byte	0x8
 3704 11d7 22       		.byte	0x22
 3705 11d8 00       		.byte	0
 3706 11d9 1D       		.uleb128 0x1d
 3707 11da 68050000 		.4byte	.LVL191
 3708 11de 12150000 		.4byte	0x1512
 3709 11e2 F3110000 		.4byte	0x11f3
 3710 11e6 1E       		.uleb128 0x1e
 3711 11e7 01       		.byte	0x1
 3712 11e8 51       		.byte	0x51
 3713 11e9 02       		.byte	0x2
 3714 11ea 08       		.byte	0x8
 3715 11eb 43       		.byte	0x43
 3716 11ec 1E       		.uleb128 0x1e
 3717 11ed 01       		.byte	0x1
 3718 11ee 50       		.byte	0x50
 3719 11ef 02       		.byte	0x2
 3720 11f0 74       		.byte	0x74
 3721 11f1 00       		.sleb128 0
 3722 11f2 00       		.byte	0
 3723 11f3 1D       		.uleb128 0x1d
 3724 11f4 76050000 		.4byte	.LVL193
 3725 11f8 7A140000 		.4byte	0x147a
 3726 11fc 07120000 		.4byte	0x1207
 3727 1200 1E       		.uleb128 0x1e
 3728 1201 01       		.byte	0x1
 3729 1202 50       		.byte	0x50
 3730 1203 02       		.byte	0x2
 3731 1204 08       		.byte	0x8
 3732 1205 23       		.byte	0x23
 3733 1206 00       		.byte	0
 3734 1207 1D       		.uleb128 0x1d
 3735 1208 84050000 		.4byte	.LVL194
 3736 120c 12150000 		.4byte	0x1512
 3737 1210 21120000 		.4byte	0x1221
 3738 1214 1E       		.uleb128 0x1e
 3739 1215 01       		.byte	0x1
 3740 1216 51       		.byte	0x51
 3741 1217 02       		.byte	0x2
 3742 1218 08       		.byte	0x8
 3743 1219 42       		.byte	0x42
 3744 121a 1E       		.uleb128 0x1e
 3745 121b 01       		.byte	0x1
 3746 121c 50       		.byte	0x50
 3747 121d 02       		.byte	0x2
 3748 121e 74       		.byte	0x74
 3749 121f 00       		.sleb128 0
 3750 1220 00       		.byte	0
 3751 1221 1D       		.uleb128 0x1d
 3752 1222 92050000 		.4byte	.LVL196
 3753 1226 7A140000 		.4byte	0x147a
ARM GAS  /tmp/cce4pmgX.s 			page 67


 3754 122a 35120000 		.4byte	0x1235
 3755 122e 1E       		.uleb128 0x1e
 3756 122f 01       		.byte	0x1
 3757 1230 50       		.byte	0x50
 3758 1231 02       		.byte	0x2
 3759 1232 08       		.byte	0x8
 3760 1233 24       		.byte	0x24
 3761 1234 00       		.byte	0
 3762 1235 1D       		.uleb128 0x1d
 3763 1236 A2050000 		.4byte	.LVL197
 3764 123a 12150000 		.4byte	0x1512
 3765 123e 4F120000 		.4byte	0x124f
 3766 1242 1E       		.uleb128 0x1e
 3767 1243 01       		.byte	0x1
 3768 1244 51       		.byte	0x51
 3769 1245 02       		.byte	0x2
 3770 1246 08       		.byte	0x8
 3771 1247 41       		.byte	0x41
 3772 1248 1E       		.uleb128 0x1e
 3773 1249 01       		.byte	0x1
 3774 124a 50       		.byte	0x50
 3775 124b 02       		.byte	0x2
 3776 124c 74       		.byte	0x74
 3777 124d 00       		.sleb128 0
 3778 124e 00       		.byte	0
 3779 124f 1F       		.uleb128 0x1f
 3780 1250 A8050000 		.4byte	.LVL199
 3781 1254 08150000 		.4byte	0x1508
 3782 1258 1D       		.uleb128 0x1d
 3783 1259 C0050000 		.4byte	.LVL203
 3784 125d 7A140000 		.4byte	0x147a
 3785 1261 74120000 		.4byte	0x1274
 3786 1265 1E       		.uleb128 0x1e
 3787 1266 01       		.byte	0x1
 3788 1267 51       		.byte	0x51
 3789 1268 04       		.byte	0x4
 3790 1269 75       		.byte	0x75
 3791 126a 00       		.sleb128 0
 3792 126b 30       		.byte	0x30
 3793 126c 29       		.byte	0x29
 3794 126d 1E       		.uleb128 0x1e
 3795 126e 01       		.byte	0x1
 3796 126f 50       		.byte	0x50
 3797 1270 02       		.byte	0x2
 3798 1271 08       		.byte	0x8
 3799 1272 25       		.byte	0x25
 3800 1273 00       		.byte	0
 3801 1274 1D       		.uleb128 0x1d
 3802 1275 DC050000 		.4byte	.LVL204
 3803 1279 7A140000 		.4byte	0x147a
 3804 127d 88120000 		.4byte	0x1288
 3805 1281 1E       		.uleb128 0x1e
 3806 1282 01       		.byte	0x1
 3807 1283 50       		.byte	0x50
 3808 1284 02       		.byte	0x2
 3809 1285 08       		.byte	0x8
 3810 1286 26       		.byte	0x26
ARM GAS  /tmp/cce4pmgX.s 			page 68


 3811 1287 00       		.byte	0
 3812 1288 1F       		.uleb128 0x1f
 3813 1289 F0050000 		.4byte	.LVL208
 3814 128d E1140000 		.4byte	0x14e1
 3815 1291 1D       		.uleb128 0x1d
 3816 1292 F8050000 		.4byte	.LVL209
 3817 1296 88150000 		.4byte	0x1588
 3818 129a AB120000 		.4byte	0x12ab
 3819 129e 1E       		.uleb128 0x1e
 3820 129f 01       		.byte	0x1
 3821 12a0 51       		.byte	0x51
 3822 12a1 02       		.byte	0x2
 3823 12a2 91       		.byte	0x91
 3824 12a3 64       		.sleb128 -28
 3825 12a4 1E       		.uleb128 0x1e
 3826 12a5 01       		.byte	0x1
 3827 12a6 50       		.byte	0x50
 3828 12a7 02       		.byte	0x2
 3829 12a8 74       		.byte	0x74
 3830 12a9 00       		.sleb128 0
 3831 12aa 00       		.byte	0
 3832 12ab 1F       		.uleb128 0x1f
 3833 12ac FE050000 		.4byte	.LVL211
 3834 12b0 08150000 		.4byte	0x1508
 3835 12b4 1D       		.uleb128 0x1d
 3836 12b5 10060000 		.4byte	.LVL215
 3837 12b9 7A140000 		.4byte	0x147a
 3838 12bd D0120000 		.4byte	0x12d0
 3839 12c1 1E       		.uleb128 0x1e
 3840 12c2 01       		.byte	0x1
 3841 12c3 51       		.byte	0x51
 3842 12c4 04       		.byte	0x4
 3843 12c5 76       		.byte	0x76
 3844 12c6 00       		.sleb128 0
 3845 12c7 30       		.byte	0x30
 3846 12c8 29       		.byte	0x29
 3847 12c9 1E       		.uleb128 0x1e
 3848 12ca 01       		.byte	0x1
 3849 12cb 50       		.byte	0x50
 3850 12cc 02       		.byte	0x2
 3851 12cd 08       		.byte	0x8
 3852 12ce 27       		.byte	0x27
 3853 12cf 00       		.byte	0
 3854 12d0 1F       		.uleb128 0x1f
 3855 12d1 1E060000 		.4byte	.LVL216
 3856 12d5 51150000 		.4byte	0x1551
 3857 12d9 1D       		.uleb128 0x1d
 3858 12da 2A060000 		.4byte	.LVL217
 3859 12de 65150000 		.4byte	0x1565
 3860 12e2 F6120000 		.4byte	0x12f6
 3861 12e6 1E       		.uleb128 0x1e
 3862 12e7 01       		.byte	0x1
 3863 12e8 51       		.byte	0x51
 3864 12e9 05       		.byte	0x5
 3865 12ea 03       		.byte	0x3
 3866 12eb 00000000 		.4byte	.LC0
 3867 12ef 1E       		.uleb128 0x1e
ARM GAS  /tmp/cce4pmgX.s 			page 69


 3868 12f0 01       		.byte	0x1
 3869 12f1 50       		.byte	0x50
 3870 12f2 02       		.byte	0x2
 3871 12f3 08       		.byte	0x8
 3872 12f4 28       		.byte	0x28
 3873 12f5 00       		.byte	0
 3874 12f6 1F       		.uleb128 0x1f
 3875 12f7 3A060000 		.4byte	.LVL220
 3876 12fb E1140000 		.4byte	0x14e1
 3877 12ff 1D       		.uleb128 0x1d
 3878 1300 48060000 		.4byte	.LVL221
 3879 1304 7A140000 		.4byte	0x147a
 3880 1308 13130000 		.4byte	0x1313
 3881 130c 1E       		.uleb128 0x1e
 3882 130d 01       		.byte	0x1
 3883 130e 50       		.byte	0x50
 3884 130f 02       		.byte	0x2
 3885 1310 08       		.byte	0x8
 3886 1311 29       		.byte	0x29
 3887 1312 00       		.byte	0
 3888 1313 1F       		.uleb128 0x1f
 3889 1314 50060000 		.4byte	.LVL222
 3890 1318 08150000 		.4byte	0x1508
 3891 131c 1F       		.uleb128 0x1f
 3892 131d 60060000 		.4byte	.LVL227
 3893 1321 E1140000 		.4byte	0x14e1
 3894 1325 1D       		.uleb128 0x1d
 3895 1326 70060000 		.4byte	.LVL228
 3896 132a 7A140000 		.4byte	0x147a
 3897 132e 39130000 		.4byte	0x1339
 3898 1332 1E       		.uleb128 0x1e
 3899 1333 01       		.byte	0x1
 3900 1334 50       		.byte	0x50
 3901 1335 02       		.byte	0x2
 3902 1336 08       		.byte	0x8
 3903 1337 2A       		.byte	0x2a
 3904 1338 00       		.byte	0
 3905 1339 1F       		.uleb128 0x1f
 3906 133a 78060000 		.4byte	.LVL229
 3907 133e 08150000 		.4byte	0x1508
 3908 1342 1D       		.uleb128 0x1d
 3909 1343 94060000 		.4byte	.LVL233
 3910 1347 7A140000 		.4byte	0x147a
 3911 134b 56130000 		.4byte	0x1356
 3912 134f 1E       		.uleb128 0x1e
 3913 1350 01       		.byte	0x1
 3914 1351 50       		.byte	0x50
 3915 1352 02       		.byte	0x2
 3916 1353 08       		.byte	0x8
 3917 1354 2B       		.byte	0x2b
 3918 1355 00       		.byte	0
 3919 1356 1D       		.uleb128 0x1d
 3920 1357 A0060000 		.4byte	.LVL234
 3921 135b A5150000 		.4byte	0x15a5
 3922 135f 6A130000 		.4byte	0x136a
 3923 1363 1E       		.uleb128 0x1e
 3924 1364 01       		.byte	0x1
ARM GAS  /tmp/cce4pmgX.s 			page 70


 3925 1365 50       		.byte	0x50
 3926 1366 02       		.byte	0x2
 3927 1367 74       		.byte	0x74
 3928 1368 00       		.sleb128 0
 3929 1369 00       		.byte	0
 3930 136a 1F       		.uleb128 0x1f
 3931 136b AA060000 		.4byte	.LVL237
 3932 136f E1140000 		.4byte	0x14e1
 3933 1373 1D       		.uleb128 0x1d
 3934 1374 BE060000 		.4byte	.LVL238
 3935 1378 7A140000 		.4byte	0x147a
 3936 137c 87130000 		.4byte	0x1387
 3937 1380 1E       		.uleb128 0x1e
 3938 1381 01       		.byte	0x1
 3939 1382 50       		.byte	0x50
 3940 1383 02       		.byte	0x2
 3941 1384 08       		.byte	0x8
 3942 1385 2C       		.byte	0x2c
 3943 1386 00       		.byte	0
 3944 1387 1F       		.uleb128 0x1f
 3945 1388 C4060000 		.4byte	.LVL239
 3946 138c 08150000 		.4byte	0x1508
 3947 1390 1F       		.uleb128 0x1f
 3948 1391 D4060000 		.4byte	.LVL244
 3949 1395 E1140000 		.4byte	0x14e1
 3950 1399 1D       		.uleb128 0x1d
 3951 139a E4060000 		.4byte	.LVL245
 3952 139e 7A140000 		.4byte	0x147a
 3953 13a2 AD130000 		.4byte	0x13ad
 3954 13a6 1E       		.uleb128 0x1e
 3955 13a7 01       		.byte	0x1
 3956 13a8 50       		.byte	0x50
 3957 13a9 02       		.byte	0x2
 3958 13aa 08       		.byte	0x8
 3959 13ab 2D       		.byte	0x2d
 3960 13ac 00       		.byte	0
 3961 13ad 1F       		.uleb128 0x1f
 3962 13ae EA060000 		.4byte	.LVL246
 3963 13b2 08150000 		.4byte	0x1508
 3964 13b6 1F       		.uleb128 0x1f
 3965 13b7 FA060000 		.4byte	.LVL251
 3966 13bb E1140000 		.4byte	0x14e1
 3967 13bf 1D       		.uleb128 0x1d
 3968 13c0 0C070000 		.4byte	.LVL252
 3969 13c4 7A140000 		.4byte	0x147a
 3970 13c8 D3130000 		.4byte	0x13d3
 3971 13cc 1E       		.uleb128 0x1e
 3972 13cd 01       		.byte	0x1
 3973 13ce 50       		.byte	0x50
 3974 13cf 02       		.byte	0x2
 3975 13d0 08       		.byte	0x8
 3976 13d1 2E       		.byte	0x2e
 3977 13d2 00       		.byte	0
 3978 13d3 1F       		.uleb128 0x1f
 3979 13d4 16070000 		.4byte	.LVL253
 3980 13d8 08150000 		.4byte	0x1508
 3981 13dc 1F       		.uleb128 0x1f
ARM GAS  /tmp/cce4pmgX.s 			page 71


 3982 13dd 22070000 		.4byte	.LVL256
 3983 13e1 08150000 		.4byte	0x1508
 3984 13e5 00       		.byte	0
 3985 13e6 20       		.uleb128 0x20
 3986 13e7 CD010000 		.4byte	.LASF76
 3987 13eb 01       		.byte	0x1
 3988 13ec 52       		.byte	0x52
 3989 13ed 01       		.byte	0x1
 3990 13ee 00000000 		.4byte	.LFB7
 3991 13f2 16000000 		.4byte	.LFE7
 3992 13f6 02       		.byte	0x2
 3993 13f7 7D       		.byte	0x7d
 3994 13f8 00       		.sleb128 0
 3995 13f9 01       		.byte	0x1
 3996 13fa 18140000 		.4byte	0x1418
 3997 13fe 21       		.uleb128 0x21
 3998 13ff 16000000 		.4byte	.LVL258
 3999 1403 01       		.byte	0x1
 4000 1404 B9150000 		.4byte	0x15b9
 4001 1408 1E       		.uleb128 0x1e
 4002 1409 01       		.byte	0x1
 4003 140a 52       		.byte	0x52
 4004 140b 01       		.byte	0x1
 4005 140c 35       		.byte	0x35
 4006 140d 1E       		.uleb128 0x1e
 4007 140e 01       		.byte	0x1
 4008 140f 50       		.byte	0x50
 4009 1410 05       		.byte	0x5
 4010 1411 03       		.byte	0x3
 4011 1412 00000000 		.4byte	.LANCHOR0
 4012 1416 00       		.byte	0
 4013 1417 00       		.byte	0
 4014 1418 22       		.uleb128 0x22
 4015 1419 6D623100 		.ascii	"mb1\000"
 4016 141d 01       		.byte	0x1
 4017 141e 47       		.byte	0x47
 4018 141f 35040000 		.4byte	0x435
 4019 1423 05       		.byte	0x5
 4020 1424 03       		.byte	0x3
 4021 1425 00000000 		.4byte	mb1
 4022 1429 23       		.uleb128 0x23
 4023 142a 63000000 		.4byte	.LASF77
 4024 142e 0A       		.byte	0xa
 4025 142f B1       		.byte	0xb1
 4026 1430 3F050000 		.4byte	0x53f
 4027 1434 01       		.byte	0x1
 4028 1435 01       		.byte	0x1
 4029 1436 24       		.uleb128 0x24
 4030 1437 F7010000 		.4byte	.LASF78
 4031 143b 01       		.byte	0x1
 4032 143c E9       		.byte	0xe9
 4033 143d 48140000 		.4byte	0x1448
 4034 1441 01       		.byte	0x1
 4035 1442 05       		.byte	0x5
 4036 1443 03       		.byte	0x3
 4037 1444 00000000 		.4byte	testmbox1
 4038 1448 10       		.uleb128 0x10
ARM GAS  /tmp/cce4pmgX.s 			page 72


 4039 1449 93040000 		.4byte	0x493
 4040 144d 13       		.uleb128 0x13
 4041 144e 5D140000 		.4byte	0x145d
 4042 1452 5D140000 		.4byte	0x145d
 4043 1456 14       		.uleb128 0x14
 4044 1457 4A030000 		.4byte	0x34a
 4045 145b 01       		.byte	0x1
 4046 145c 00       		.byte	0
 4047 145d 09       		.uleb128 0x9
 4048 145e 04       		.byte	0x4
 4049 145f 48140000 		.4byte	0x1448
 4050 1463 24       		.uleb128 0x24
 4051 1464 4E000000 		.4byte	.LASF79
 4052 1468 01       		.byte	0x1
 4053 1469 F5       		.byte	0xf5
 4054 146a 75140000 		.4byte	0x1475
 4055 146e 01       		.byte	0x1
 4056 146f 05       		.byte	0x5
 4057 1470 03       		.byte	0x3
 4058 1471 00000000 		.4byte	patternmbox
 4059 1475 10       		.uleb128 0x10
 4060 1476 4D140000 		.4byte	0x144d
 4061 147a 25       		.uleb128 0x25
 4062 147b 01       		.byte	0x1
 4063 147c E9030000 		.4byte	.LASF80
 4064 1480 0A       		.byte	0xa
 4065 1481 63       		.byte	0x63
 4066 1482 01       		.byte	0x1
 4067 1483 97000000 		.4byte	0x97
 4068 1487 01       		.byte	0x1
 4069 1488 97140000 		.4byte	0x1497
 4070 148c 26       		.uleb128 0x26
 4071 148d 2C000000 		.4byte	0x2c
 4072 1491 26       		.uleb128 0x26
 4073 1492 97000000 		.4byte	0x97
 4074 1496 00       		.byte	0
 4075 1497 25       		.uleb128 0x25
 4076 1498 01       		.byte	0x1
 4077 1499 B9000000 		.4byte	.LASF81
 4078 149d 09       		.byte	0x9
 4079 149e 45       		.byte	0x45
 4080 149f 01       		.byte	0x1
 4081 14a0 CE000000 		.4byte	0xce
 4082 14a4 01       		.byte	0x1
 4083 14a5 B9140000 		.4byte	0x14b9
 4084 14a9 26       		.uleb128 0x26
 4085 14aa B9140000 		.4byte	0x14b9
 4086 14ae 26       		.uleb128 0x26
 4087 14af CE000000 		.4byte	0xce
 4088 14b3 26       		.uleb128 0x26
 4089 14b4 E4000000 		.4byte	0xe4
 4090 14b8 00       		.byte	0
 4091 14b9 09       		.uleb128 0x9
 4092 14ba 04       		.byte	0x4
 4093 14bb 35040000 		.4byte	0x435
 4094 14bf 25       		.uleb128 0x25
 4095 14c0 01       		.byte	0x1
ARM GAS  /tmp/cce4pmgX.s 			page 73


 4096 14c1 80030000 		.4byte	.LASF82
 4097 14c5 09       		.byte	0x9
 4098 14c6 48       		.byte	0x48
 4099 14c7 01       		.byte	0x1
 4100 14c8 CE000000 		.4byte	0xce
 4101 14cc 01       		.byte	0x1
 4102 14cd E1140000 		.4byte	0x14e1
 4103 14d1 26       		.uleb128 0x26
 4104 14d2 B9140000 		.4byte	0x14b9
 4105 14d6 26       		.uleb128 0x26
 4106 14d7 CE000000 		.4byte	0xce
 4107 14db 26       		.uleb128 0x26
 4108 14dc E4000000 		.4byte	0xe4
 4109 14e0 00       		.byte	0
 4110 14e1 27       		.uleb128 0x27
 4111 14e2 01       		.byte	0x1
 4112 14e3 71020000 		.4byte	.LASF84
 4113 14e7 0B       		.byte	0xb
 4114 14e8 E2       		.byte	0xe2
 4115 14e9 01       		.byte	0x1
 4116 14ea 01       		.byte	0x1
 4117 14eb 25       		.uleb128 0x25
 4118 14ec 01       		.byte	0x1
 4119 14ed 16000000 		.4byte	.LASF83
 4120 14f1 09       		.byte	0x9
 4121 14f2 47       		.byte	0x47
 4122 14f3 01       		.byte	0x1
 4123 14f4 CE000000 		.4byte	0xce
 4124 14f8 01       		.byte	0x1
 4125 14f9 08150000 		.4byte	0x1508
 4126 14fd 26       		.uleb128 0x26
 4127 14fe B9140000 		.4byte	0x14b9
 4128 1502 26       		.uleb128 0x26
 4129 1503 CE000000 		.4byte	0xce
 4130 1507 00       		.byte	0
 4131 1508 27       		.uleb128 0x27
 4132 1509 01       		.byte	0x1
 4133 150a 80020000 		.4byte	.LASF85
 4134 150e 0B       		.byte	0xb
 4135 150f E3       		.byte	0xe3
 4136 1510 01       		.byte	0x1
 4137 1511 01       		.byte	0x1
 4138 1512 25       		.uleb128 0x25
 4139 1513 01       		.byte	0x1
 4140 1514 28000000 		.4byte	.LASF86
 4141 1518 09       		.byte	0x9
 4142 1519 4A       		.byte	0x4a
 4143 151a 01       		.byte	0x1
 4144 151b CE000000 		.4byte	0xce
 4145 151f 01       		.byte	0x1
 4146 1520 2F150000 		.4byte	0x152f
 4147 1524 26       		.uleb128 0x26
 4148 1525 B9140000 		.4byte	0x14b9
 4149 1529 26       		.uleb128 0x26
 4150 152a CE000000 		.4byte	0xce
 4151 152e 00       		.byte	0
 4152 152f 25       		.uleb128 0x25
ARM GAS  /tmp/cce4pmgX.s 			page 74


 4153 1530 01       		.byte	0x1
 4154 1531 A0030000 		.4byte	.LASF87
 4155 1535 09       		.byte	0x9
 4156 1536 4B       		.byte	0x4b
 4157 1537 01       		.byte	0x1
 4158 1538 CE000000 		.4byte	0xce
 4159 153c 01       		.byte	0x1
 4160 153d 51150000 		.4byte	0x1551
 4161 1541 26       		.uleb128 0x26
 4162 1542 B9140000 		.4byte	0x14b9
 4163 1546 26       		.uleb128 0x26
 4164 1547 2F040000 		.4byte	0x42f
 4165 154b 26       		.uleb128 0x26
 4166 154c E4000000 		.4byte	0xe4
 4167 1550 00       		.byte	0
 4168 1551 28       		.uleb128 0x28
 4169 1552 01       		.byte	0x1
 4170 1553 A9000000 		.4byte	.LASF90
 4171 1557 0A       		.byte	0xa
 4172 1558 61       		.byte	0x61
 4173 1559 01       		.byte	0x1
 4174 155a 01       		.byte	0x1
 4175 155b 65150000 		.4byte	0x1565
 4176 155f 26       		.uleb128 0x26
 4177 1560 80040000 		.4byte	0x480
 4178 1564 00       		.byte	0
 4179 1565 25       		.uleb128 0x25
 4180 1566 01       		.byte	0x1
 4181 1567 43020000 		.4byte	.LASF88
 4182 156b 0A       		.byte	0xa
 4183 156c 64       		.byte	0x64
 4184 156d 01       		.byte	0x1
 4185 156e 97000000 		.4byte	0x97
 4186 1572 01       		.byte	0x1
 4187 1573 82150000 		.4byte	0x1582
 4188 1577 26       		.uleb128 0x26
 4189 1578 2C000000 		.4byte	0x2c
 4190 157c 26       		.uleb128 0x26
 4191 157d 82150000 		.4byte	0x1582
 4192 1581 00       		.byte	0
 4193 1582 09       		.uleb128 0x9
 4194 1583 04       		.byte	0x4
 4195 1584 80040000 		.4byte	0x480
 4196 1588 25       		.uleb128 0x25
 4197 1589 01       		.byte	0x1
 4198 158a B4010000 		.4byte	.LASF89
 4199 158e 09       		.byte	0x9
 4200 158f 4D       		.byte	0x4d
 4201 1590 01       		.byte	0x1
 4202 1591 CE000000 		.4byte	0xce
 4203 1595 01       		.byte	0x1
 4204 1596 A5150000 		.4byte	0x15a5
 4205 159a 26       		.uleb128 0x26
 4206 159b B9140000 		.4byte	0x14b9
 4207 159f 26       		.uleb128 0x26
 4208 15a0 2F040000 		.4byte	0x42f
 4209 15a4 00       		.byte	0
ARM GAS  /tmp/cce4pmgX.s 			page 75


 4210 15a5 28       		.uleb128 0x28
 4211 15a6 01       		.byte	0x1
 4212 15a7 1E020000 		.4byte	.LASF91
 4213 15ab 09       		.byte	0x9
 4214 15ac 44       		.byte	0x44
 4215 15ad 01       		.byte	0x1
 4216 15ae 01       		.byte	0x1
 4217 15af B9150000 		.4byte	0x15b9
 4218 15b3 26       		.uleb128 0x26
 4219 15b4 B9140000 		.4byte	0x14b9
 4220 15b8 00       		.byte	0
 4221 15b9 29       		.uleb128 0x29
 4222 15ba 01       		.byte	0x1
 4223 15bb 0B010000 		.4byte	.LASF96
 4224 15bf 09       		.byte	0x9
 4225 15c0 43       		.byte	0x43
 4226 15c1 01       		.byte	0x1
 4227 15c2 01       		.byte	0x1
 4228 15c3 26       		.uleb128 0x26
 4229 15c4 B9140000 		.4byte	0x14b9
 4230 15c8 26       		.uleb128 0x26
 4231 15c9 2F040000 		.4byte	0x42f
 4232 15cd 26       		.uleb128 0x26
 4233 15ce EF000000 		.4byte	0xef
 4234 15d2 00       		.byte	0
 4235 15d3 00       		.byte	0
 4236              		.section	.debug_abbrev,"",%progbits
 4237              	.Ldebug_abbrev0:
 4238 0000 01       		.uleb128 0x1
 4239 0001 11       		.uleb128 0x11
 4240 0002 01       		.byte	0x1
 4241 0003 25       		.uleb128 0x25
 4242 0004 0E       		.uleb128 0xe
 4243 0005 13       		.uleb128 0x13
 4244 0006 0B       		.uleb128 0xb
 4245 0007 03       		.uleb128 0x3
 4246 0008 0E       		.uleb128 0xe
 4247 0009 55       		.uleb128 0x55
 4248 000a 06       		.uleb128 0x6
 4249 000b 11       		.uleb128 0x11
 4250 000c 01       		.uleb128 0x1
 4251 000d 52       		.uleb128 0x52
 4252 000e 01       		.uleb128 0x1
 4253 000f 10       		.uleb128 0x10
 4254 0010 06       		.uleb128 0x6
 4255 0011 00       		.byte	0
 4256 0012 00       		.byte	0
 4257 0013 02       		.uleb128 0x2
 4258 0014 24       		.uleb128 0x24
 4259 0015 00       		.byte	0
 4260 0016 0B       		.uleb128 0xb
 4261 0017 0B       		.uleb128 0xb
 4262 0018 3E       		.uleb128 0x3e
 4263 0019 0B       		.uleb128 0xb
 4264 001a 03       		.uleb128 0x3
 4265 001b 08       		.uleb128 0x8
 4266 001c 00       		.byte	0
ARM GAS  /tmp/cce4pmgX.s 			page 76


 4267 001d 00       		.byte	0
 4268 001e 03       		.uleb128 0x3
 4269 001f 24       		.uleb128 0x24
 4270 0020 00       		.byte	0
 4271 0021 0B       		.uleb128 0xb
 4272 0022 0B       		.uleb128 0xb
 4273 0023 3E       		.uleb128 0x3e
 4274 0024 0B       		.uleb128 0xb
 4275 0025 03       		.uleb128 0x3
 4276 0026 0E       		.uleb128 0xe
 4277 0027 00       		.byte	0
 4278 0028 00       		.byte	0
 4279 0029 04       		.uleb128 0x4
 4280 002a 16       		.uleb128 0x16
 4281 002b 00       		.byte	0
 4282 002c 03       		.uleb128 0x3
 4283 002d 0E       		.uleb128 0xe
 4284 002e 3A       		.uleb128 0x3a
 4285 002f 0B       		.uleb128 0xb
 4286 0030 3B       		.uleb128 0x3b
 4287 0031 0B       		.uleb128 0xb
 4288 0032 49       		.uleb128 0x49
 4289 0033 13       		.uleb128 0x13
 4290 0034 00       		.byte	0
 4291 0035 00       		.byte	0
 4292 0036 05       		.uleb128 0x5
 4293 0037 13       		.uleb128 0x13
 4294 0038 01       		.byte	0x1
 4295 0039 03       		.uleb128 0x3
 4296 003a 0E       		.uleb128 0xe
 4297 003b 0B       		.uleb128 0xb
 4298 003c 0B       		.uleb128 0xb
 4299 003d 3A       		.uleb128 0x3a
 4300 003e 0B       		.uleb128 0xb
 4301 003f 3B       		.uleb128 0x3b
 4302 0040 0B       		.uleb128 0xb
 4303 0041 01       		.uleb128 0x1
 4304 0042 13       		.uleb128 0x13
 4305 0043 00       		.byte	0
 4306 0044 00       		.byte	0
 4307 0045 06       		.uleb128 0x6
 4308 0046 0D       		.uleb128 0xd
 4309 0047 00       		.byte	0
 4310 0048 03       		.uleb128 0x3
 4311 0049 0E       		.uleb128 0xe
 4312 004a 3A       		.uleb128 0x3a
 4313 004b 0B       		.uleb128 0xb
 4314 004c 3B       		.uleb128 0x3b
 4315 004d 0B       		.uleb128 0xb
 4316 004e 49       		.uleb128 0x49
 4317 004f 13       		.uleb128 0x13
 4318 0050 38       		.uleb128 0x38
 4319 0051 0A       		.uleb128 0xa
 4320 0052 00       		.byte	0
 4321 0053 00       		.byte	0
 4322 0054 07       		.uleb128 0x7
 4323 0055 0D       		.uleb128 0xd
ARM GAS  /tmp/cce4pmgX.s 			page 77


 4324 0056 00       		.byte	0
 4325 0057 03       		.uleb128 0x3
 4326 0058 08       		.uleb128 0x8
 4327 0059 3A       		.uleb128 0x3a
 4328 005a 0B       		.uleb128 0xb
 4329 005b 3B       		.uleb128 0x3b
 4330 005c 0B       		.uleb128 0xb
 4331 005d 49       		.uleb128 0x49
 4332 005e 13       		.uleb128 0x13
 4333 005f 38       		.uleb128 0x38
 4334 0060 0A       		.uleb128 0xa
 4335 0061 00       		.byte	0
 4336 0062 00       		.byte	0
 4337 0063 08       		.uleb128 0x8
 4338 0064 13       		.uleb128 0x13
 4339 0065 01       		.byte	0x1
 4340 0066 0B       		.uleb128 0xb
 4341 0067 0B       		.uleb128 0xb
 4342 0068 3A       		.uleb128 0x3a
 4343 0069 0B       		.uleb128 0xb
 4344 006a 3B       		.uleb128 0x3b
 4345 006b 0B       		.uleb128 0xb
 4346 006c 01       		.uleb128 0x1
 4347 006d 13       		.uleb128 0x13
 4348 006e 00       		.byte	0
 4349 006f 00       		.byte	0
 4350 0070 09       		.uleb128 0x9
 4351 0071 0F       		.uleb128 0xf
 4352 0072 00       		.byte	0
 4353 0073 0B       		.uleb128 0xb
 4354 0074 0B       		.uleb128 0xb
 4355 0075 49       		.uleb128 0x49
 4356 0076 13       		.uleb128 0x13
 4357 0077 00       		.byte	0
 4358 0078 00       		.byte	0
 4359 0079 0A       		.uleb128 0xa
 4360 007a 0F       		.uleb128 0xf
 4361 007b 00       		.byte	0
 4362 007c 0B       		.uleb128 0xb
 4363 007d 0B       		.uleb128 0xb
 4364 007e 00       		.byte	0
 4365 007f 00       		.byte	0
 4366 0080 0B       		.uleb128 0xb
 4367 0081 0D       		.uleb128 0xd
 4368 0082 00       		.byte	0
 4369 0083 03       		.uleb128 0x3
 4370 0084 08       		.uleb128 0x8
 4371 0085 3A       		.uleb128 0x3a
 4372 0086 0B       		.uleb128 0xb
 4373 0087 3B       		.uleb128 0x3b
 4374 0088 05       		.uleb128 0x5
 4375 0089 49       		.uleb128 0x49
 4376 008a 13       		.uleb128 0x13
 4377 008b 38       		.uleb128 0x38
 4378 008c 0A       		.uleb128 0xa
 4379 008d 00       		.byte	0
 4380 008e 00       		.byte	0
ARM GAS  /tmp/cce4pmgX.s 			page 78


 4381 008f 0C       		.uleb128 0xc
 4382 0090 13       		.uleb128 0x13
 4383 0091 01       		.byte	0x1
 4384 0092 03       		.uleb128 0x3
 4385 0093 0E       		.uleb128 0xe
 4386 0094 0B       		.uleb128 0xb
 4387 0095 0B       		.uleb128 0xb
 4388 0096 3A       		.uleb128 0x3a
 4389 0097 0B       		.uleb128 0xb
 4390 0098 3B       		.uleb128 0x3b
 4391 0099 05       		.uleb128 0x5
 4392 009a 01       		.uleb128 0x1
 4393 009b 13       		.uleb128 0x13
 4394 009c 00       		.byte	0
 4395 009d 00       		.byte	0
 4396 009e 0D       		.uleb128 0xd
 4397 009f 35       		.uleb128 0x35
 4398 00a0 00       		.byte	0
 4399 00a1 49       		.uleb128 0x49
 4400 00a2 13       		.uleb128 0x13
 4401 00a3 00       		.byte	0
 4402 00a4 00       		.byte	0
 4403 00a5 0E       		.uleb128 0xe
 4404 00a6 17       		.uleb128 0x17
 4405 00a7 01       		.byte	0x1
 4406 00a8 0B       		.uleb128 0xb
 4407 00a9 0B       		.uleb128 0xb
 4408 00aa 3A       		.uleb128 0x3a
 4409 00ab 0B       		.uleb128 0xb
 4410 00ac 3B       		.uleb128 0x3b
 4411 00ad 0B       		.uleb128 0xb
 4412 00ae 01       		.uleb128 0x1
 4413 00af 13       		.uleb128 0x13
 4414 00b0 00       		.byte	0
 4415 00b1 00       		.byte	0
 4416 00b2 0F       		.uleb128 0xf
 4417 00b3 0D       		.uleb128 0xd
 4418 00b4 00       		.byte	0
 4419 00b5 03       		.uleb128 0x3
 4420 00b6 0E       		.uleb128 0xe
 4421 00b7 3A       		.uleb128 0x3a
 4422 00b8 0B       		.uleb128 0xb
 4423 00b9 3B       		.uleb128 0x3b
 4424 00ba 0B       		.uleb128 0xb
 4425 00bb 49       		.uleb128 0x49
 4426 00bc 13       		.uleb128 0x13
 4427 00bd 00       		.byte	0
 4428 00be 00       		.byte	0
 4429 00bf 10       		.uleb128 0x10
 4430 00c0 26       		.uleb128 0x26
 4431 00c1 00       		.byte	0
 4432 00c2 49       		.uleb128 0x49
 4433 00c3 13       		.uleb128 0x13
 4434 00c4 00       		.byte	0
 4435 00c5 00       		.byte	0
 4436 00c6 11       		.uleb128 0x11
 4437 00c7 15       		.uleb128 0x15
ARM GAS  /tmp/cce4pmgX.s 			page 79


 4438 00c8 00       		.byte	0
 4439 00c9 27       		.uleb128 0x27
 4440 00ca 0C       		.uleb128 0xc
 4441 00cb 00       		.byte	0
 4442 00cc 00       		.byte	0
 4443 00cd 12       		.uleb128 0x12
 4444 00ce 13       		.uleb128 0x13
 4445 00cf 01       		.byte	0x1
 4446 00d0 0B       		.uleb128 0xb
 4447 00d1 05       		.uleb128 0x5
 4448 00d2 3A       		.uleb128 0x3a
 4449 00d3 0B       		.uleb128 0xb
 4450 00d4 3B       		.uleb128 0x3b
 4451 00d5 0B       		.uleb128 0xb
 4452 00d6 01       		.uleb128 0x1
 4453 00d7 13       		.uleb128 0x13
 4454 00d8 00       		.byte	0
 4455 00d9 00       		.byte	0
 4456 00da 13       		.uleb128 0x13
 4457 00db 01       		.uleb128 0x1
 4458 00dc 01       		.byte	0x1
 4459 00dd 49       		.uleb128 0x49
 4460 00de 13       		.uleb128 0x13
 4461 00df 01       		.uleb128 0x1
 4462 00e0 13       		.uleb128 0x13
 4463 00e1 00       		.byte	0
 4464 00e2 00       		.byte	0
 4465 00e3 14       		.uleb128 0x14
 4466 00e4 21       		.uleb128 0x21
 4467 00e5 00       		.byte	0
 4468 00e6 49       		.uleb128 0x49
 4469 00e7 13       		.uleb128 0x13
 4470 00e8 2F       		.uleb128 0x2f
 4471 00e9 0B       		.uleb128 0xb
 4472 00ea 00       		.byte	0
 4473 00eb 00       		.byte	0
 4474 00ec 15       		.uleb128 0x15
 4475 00ed 17       		.uleb128 0x17
 4476 00ee 01       		.byte	0x1
 4477 00ef 03       		.uleb128 0x3
 4478 00f0 0E       		.uleb128 0xe
 4479 00f1 0B       		.uleb128 0xb
 4480 00f2 05       		.uleb128 0x5
 4481 00f3 3A       		.uleb128 0x3a
 4482 00f4 0B       		.uleb128 0xb
 4483 00f5 3B       		.uleb128 0x3b
 4484 00f6 0B       		.uleb128 0xb
 4485 00f7 01       		.uleb128 0x1
 4486 00f8 13       		.uleb128 0x13
 4487 00f9 00       		.byte	0
 4488 00fa 00       		.byte	0
 4489 00fb 16       		.uleb128 0x16
 4490 00fc 0D       		.uleb128 0xd
 4491 00fd 00       		.byte	0
 4492 00fe 03       		.uleb128 0x3
 4493 00ff 08       		.uleb128 0x8
 4494 0100 3A       		.uleb128 0x3a
ARM GAS  /tmp/cce4pmgX.s 			page 80


 4495 0101 0B       		.uleb128 0xb
 4496 0102 3B       		.uleb128 0x3b
 4497 0103 0B       		.uleb128 0xb
 4498 0104 49       		.uleb128 0x49
 4499 0105 13       		.uleb128 0x13
 4500 0106 00       		.byte	0
 4501 0107 00       		.byte	0
 4502 0108 17       		.uleb128 0x17
 4503 0109 21       		.uleb128 0x21
 4504 010a 00       		.byte	0
 4505 010b 49       		.uleb128 0x49
 4506 010c 13       		.uleb128 0x13
 4507 010d 2F       		.uleb128 0x2f
 4508 010e 05       		.uleb128 0x5
 4509 010f 00       		.byte	0
 4510 0110 00       		.byte	0
 4511 0111 18       		.uleb128 0x18
 4512 0112 2E       		.uleb128 0x2e
 4513 0113 01       		.byte	0x1
 4514 0114 03       		.uleb128 0x3
 4515 0115 0E       		.uleb128 0xe
 4516 0116 3A       		.uleb128 0x3a
 4517 0117 0B       		.uleb128 0xb
 4518 0118 3B       		.uleb128 0x3b
 4519 0119 0B       		.uleb128 0xb
 4520 011a 27       		.uleb128 0x27
 4521 011b 0C       		.uleb128 0xc
 4522 011c 11       		.uleb128 0x11
 4523 011d 01       		.uleb128 0x1
 4524 011e 12       		.uleb128 0x12
 4525 011f 01       		.uleb128 0x1
 4526 0120 40       		.uleb128 0x40
 4527 0121 06       		.uleb128 0x6
 4528 0122 9742     		.uleb128 0x2117
 4529 0124 0C       		.uleb128 0xc
 4530 0125 01       		.uleb128 0x1
 4531 0126 13       		.uleb128 0x13
 4532 0127 00       		.byte	0
 4533 0128 00       		.byte	0
 4534 0129 19       		.uleb128 0x19
 4535 012a 34       		.uleb128 0x34
 4536 012b 00       		.byte	0
 4537 012c 03       		.uleb128 0x3
 4538 012d 0E       		.uleb128 0xe
 4539 012e 3A       		.uleb128 0x3a
 4540 012f 0B       		.uleb128 0xb
 4541 0130 3B       		.uleb128 0x3b
 4542 0131 0B       		.uleb128 0xb
 4543 0132 49       		.uleb128 0x49
 4544 0133 13       		.uleb128 0x13
 4545 0134 02       		.uleb128 0x2
 4546 0135 06       		.uleb128 0x6
 4547 0136 00       		.byte	0
 4548 0137 00       		.byte	0
 4549 0138 1A       		.uleb128 0x1a
 4550 0139 34       		.uleb128 0x34
 4551 013a 00       		.byte	0
ARM GAS  /tmp/cce4pmgX.s 			page 81


 4552 013b 03       		.uleb128 0x3
 4553 013c 0E       		.uleb128 0xe
 4554 013d 3A       		.uleb128 0x3a
 4555 013e 0B       		.uleb128 0xb
 4556 013f 3B       		.uleb128 0x3b
 4557 0140 0B       		.uleb128 0xb
 4558 0141 49       		.uleb128 0x49
 4559 0142 13       		.uleb128 0x13
 4560 0143 00       		.byte	0
 4561 0144 00       		.byte	0
 4562 0145 1B       		.uleb128 0x1b
 4563 0146 34       		.uleb128 0x34
 4564 0147 00       		.byte	0
 4565 0148 03       		.uleb128 0x3
 4566 0149 08       		.uleb128 0x8
 4567 014a 3A       		.uleb128 0x3a
 4568 014b 0B       		.uleb128 0xb
 4569 014c 3B       		.uleb128 0x3b
 4570 014d 0B       		.uleb128 0xb
 4571 014e 49       		.uleb128 0x49
 4572 014f 13       		.uleb128 0x13
 4573 0150 02       		.uleb128 0x2
 4574 0151 06       		.uleb128 0x6
 4575 0152 00       		.byte	0
 4576 0153 00       		.byte	0
 4577 0154 1C       		.uleb128 0x1c
 4578 0155 0B       		.uleb128 0xb
 4579 0156 01       		.byte	0x1
 4580 0157 11       		.uleb128 0x11
 4581 0158 01       		.uleb128 0x1
 4582 0159 12       		.uleb128 0x12
 4583 015a 01       		.uleb128 0x1
 4584 015b 01       		.uleb128 0x1
 4585 015c 13       		.uleb128 0x13
 4586 015d 00       		.byte	0
 4587 015e 00       		.byte	0
 4588 015f 1D       		.uleb128 0x1d
 4589 0160 898201   		.uleb128 0x4109
 4590 0163 01       		.byte	0x1
 4591 0164 11       		.uleb128 0x11
 4592 0165 01       		.uleb128 0x1
 4593 0166 31       		.uleb128 0x31
 4594 0167 13       		.uleb128 0x13
 4595 0168 01       		.uleb128 0x1
 4596 0169 13       		.uleb128 0x13
 4597 016a 00       		.byte	0
 4598 016b 00       		.byte	0
 4599 016c 1E       		.uleb128 0x1e
 4600 016d 8A8201   		.uleb128 0x410a
 4601 0170 00       		.byte	0
 4602 0171 02       		.uleb128 0x2
 4603 0172 0A       		.uleb128 0xa
 4604 0173 9142     		.uleb128 0x2111
 4605 0175 0A       		.uleb128 0xa
 4606 0176 00       		.byte	0
 4607 0177 00       		.byte	0
 4608 0178 1F       		.uleb128 0x1f
ARM GAS  /tmp/cce4pmgX.s 			page 82


 4609 0179 898201   		.uleb128 0x4109
 4610 017c 00       		.byte	0
 4611 017d 11       		.uleb128 0x11
 4612 017e 01       		.uleb128 0x1
 4613 017f 31       		.uleb128 0x31
 4614 0180 13       		.uleb128 0x13
 4615 0181 00       		.byte	0
 4616 0182 00       		.byte	0
 4617 0183 20       		.uleb128 0x20
 4618 0184 2E       		.uleb128 0x2e
 4619 0185 01       		.byte	0x1
 4620 0186 03       		.uleb128 0x3
 4621 0187 0E       		.uleb128 0xe
 4622 0188 3A       		.uleb128 0x3a
 4623 0189 0B       		.uleb128 0xb
 4624 018a 3B       		.uleb128 0x3b
 4625 018b 0B       		.uleb128 0xb
 4626 018c 27       		.uleb128 0x27
 4627 018d 0C       		.uleb128 0xc
 4628 018e 11       		.uleb128 0x11
 4629 018f 01       		.uleb128 0x1
 4630 0190 12       		.uleb128 0x12
 4631 0191 01       		.uleb128 0x1
 4632 0192 40       		.uleb128 0x40
 4633 0193 0A       		.uleb128 0xa
 4634 0194 9742     		.uleb128 0x2117
 4635 0196 0C       		.uleb128 0xc
 4636 0197 01       		.uleb128 0x1
 4637 0198 13       		.uleb128 0x13
 4638 0199 00       		.byte	0
 4639 019a 00       		.byte	0
 4640 019b 21       		.uleb128 0x21
 4641 019c 898201   		.uleb128 0x4109
 4642 019f 01       		.byte	0x1
 4643 01a0 11       		.uleb128 0x11
 4644 01a1 01       		.uleb128 0x1
 4645 01a2 9542     		.uleb128 0x2115
 4646 01a4 0C       		.uleb128 0xc
 4647 01a5 31       		.uleb128 0x31
 4648 01a6 13       		.uleb128 0x13
 4649 01a7 00       		.byte	0
 4650 01a8 00       		.byte	0
 4651 01a9 22       		.uleb128 0x22
 4652 01aa 34       		.uleb128 0x34
 4653 01ab 00       		.byte	0
 4654 01ac 03       		.uleb128 0x3
 4655 01ad 08       		.uleb128 0x8
 4656 01ae 3A       		.uleb128 0x3a
 4657 01af 0B       		.uleb128 0xb
 4658 01b0 3B       		.uleb128 0x3b
 4659 01b1 0B       		.uleb128 0xb
 4660 01b2 49       		.uleb128 0x49
 4661 01b3 13       		.uleb128 0x13
 4662 01b4 02       		.uleb128 0x2
 4663 01b5 0A       		.uleb128 0xa
 4664 01b6 00       		.byte	0
 4665 01b7 00       		.byte	0
ARM GAS  /tmp/cce4pmgX.s 			page 83


 4666 01b8 23       		.uleb128 0x23
 4667 01b9 34       		.uleb128 0x34
 4668 01ba 00       		.byte	0
 4669 01bb 03       		.uleb128 0x3
 4670 01bc 0E       		.uleb128 0xe
 4671 01bd 3A       		.uleb128 0x3a
 4672 01be 0B       		.uleb128 0xb
 4673 01bf 3B       		.uleb128 0x3b
 4674 01c0 0B       		.uleb128 0xb
 4675 01c1 49       		.uleb128 0x49
 4676 01c2 13       		.uleb128 0x13
 4677 01c3 3F       		.uleb128 0x3f
 4678 01c4 0C       		.uleb128 0xc
 4679 01c5 3C       		.uleb128 0x3c
 4680 01c6 0C       		.uleb128 0xc
 4681 01c7 00       		.byte	0
 4682 01c8 00       		.byte	0
 4683 01c9 24       		.uleb128 0x24
 4684 01ca 34       		.uleb128 0x34
 4685 01cb 00       		.byte	0
 4686 01cc 03       		.uleb128 0x3
 4687 01cd 0E       		.uleb128 0xe
 4688 01ce 3A       		.uleb128 0x3a
 4689 01cf 0B       		.uleb128 0xb
 4690 01d0 3B       		.uleb128 0x3b
 4691 01d1 0B       		.uleb128 0xb
 4692 01d2 49       		.uleb128 0x49
 4693 01d3 13       		.uleb128 0x13
 4694 01d4 3F       		.uleb128 0x3f
 4695 01d5 0C       		.uleb128 0xc
 4696 01d6 02       		.uleb128 0x2
 4697 01d7 0A       		.uleb128 0xa
 4698 01d8 00       		.byte	0
 4699 01d9 00       		.byte	0
 4700 01da 25       		.uleb128 0x25
 4701 01db 2E       		.uleb128 0x2e
 4702 01dc 01       		.byte	0x1
 4703 01dd 3F       		.uleb128 0x3f
 4704 01de 0C       		.uleb128 0xc
 4705 01df 03       		.uleb128 0x3
 4706 01e0 0E       		.uleb128 0xe
 4707 01e1 3A       		.uleb128 0x3a
 4708 01e2 0B       		.uleb128 0xb
 4709 01e3 3B       		.uleb128 0x3b
 4710 01e4 0B       		.uleb128 0xb
 4711 01e5 27       		.uleb128 0x27
 4712 01e6 0C       		.uleb128 0xc
 4713 01e7 49       		.uleb128 0x49
 4714 01e8 13       		.uleb128 0x13
 4715 01e9 3C       		.uleb128 0x3c
 4716 01ea 0C       		.uleb128 0xc
 4717 01eb 01       		.uleb128 0x1
 4718 01ec 13       		.uleb128 0x13
 4719 01ed 00       		.byte	0
 4720 01ee 00       		.byte	0
 4721 01ef 26       		.uleb128 0x26
 4722 01f0 05       		.uleb128 0x5
ARM GAS  /tmp/cce4pmgX.s 			page 84


 4723 01f1 00       		.byte	0
 4724 01f2 49       		.uleb128 0x49
 4725 01f3 13       		.uleb128 0x13
 4726 01f4 00       		.byte	0
 4727 01f5 00       		.byte	0
 4728 01f6 27       		.uleb128 0x27
 4729 01f7 2E       		.uleb128 0x2e
 4730 01f8 00       		.byte	0
 4731 01f9 3F       		.uleb128 0x3f
 4732 01fa 0C       		.uleb128 0xc
 4733 01fb 03       		.uleb128 0x3
 4734 01fc 0E       		.uleb128 0xe
 4735 01fd 3A       		.uleb128 0x3a
 4736 01fe 0B       		.uleb128 0xb
 4737 01ff 3B       		.uleb128 0x3b
 4738 0200 0B       		.uleb128 0xb
 4739 0201 27       		.uleb128 0x27
 4740 0202 0C       		.uleb128 0xc
 4741 0203 3C       		.uleb128 0x3c
 4742 0204 0C       		.uleb128 0xc
 4743 0205 00       		.byte	0
 4744 0206 00       		.byte	0
 4745 0207 28       		.uleb128 0x28
 4746 0208 2E       		.uleb128 0x2e
 4747 0209 01       		.byte	0x1
 4748 020a 3F       		.uleb128 0x3f
 4749 020b 0C       		.uleb128 0xc
 4750 020c 03       		.uleb128 0x3
 4751 020d 0E       		.uleb128 0xe
 4752 020e 3A       		.uleb128 0x3a
 4753 020f 0B       		.uleb128 0xb
 4754 0210 3B       		.uleb128 0x3b
 4755 0211 0B       		.uleb128 0xb
 4756 0212 27       		.uleb128 0x27
 4757 0213 0C       		.uleb128 0xc
 4758 0214 3C       		.uleb128 0x3c
 4759 0215 0C       		.uleb128 0xc
 4760 0216 01       		.uleb128 0x1
 4761 0217 13       		.uleb128 0x13
 4762 0218 00       		.byte	0
 4763 0219 00       		.byte	0
 4764 021a 29       		.uleb128 0x29
 4765 021b 2E       		.uleb128 0x2e
 4766 021c 01       		.byte	0x1
 4767 021d 3F       		.uleb128 0x3f
 4768 021e 0C       		.uleb128 0xc
 4769 021f 03       		.uleb128 0x3
 4770 0220 0E       		.uleb128 0xe
 4771 0221 3A       		.uleb128 0x3a
 4772 0222 0B       		.uleb128 0xb
 4773 0223 3B       		.uleb128 0x3b
 4774 0224 0B       		.uleb128 0xb
 4775 0225 27       		.uleb128 0x27
 4776 0226 0C       		.uleb128 0xc
 4777 0227 3C       		.uleb128 0x3c
 4778 0228 0C       		.uleb128 0xc
 4779 0229 00       		.byte	0
ARM GAS  /tmp/cce4pmgX.s 			page 85


 4780 022a 00       		.byte	0
 4781 022b 00       		.byte	0
 4782              		.section	.debug_loc,"",%progbits
 4783              	.Ldebug_loc0:
 4784              	.LLST0:
 4785 0000 00000000 		.4byte	.LFB8
 4786 0004 02000000 		.4byte	.LCFI0
 4787 0008 0200     		.2byte	0x2
 4788 000a 7D       		.byte	0x7d
 4789 000b 00       		.sleb128 0
 4790 000c 02000000 		.4byte	.LCFI0
 4791 0010 0A000000 		.4byte	.LCFI1
 4792 0014 0200     		.2byte	0x2
 4793 0016 7D       		.byte	0x7d
 4794 0017 14       		.sleb128 20
 4795 0018 0A000000 		.4byte	.LCFI1
 4796 001c 34070000 		.4byte	.LFE8
 4797 0020 0200     		.2byte	0x2
 4798 0022 7D       		.byte	0x7d
 4799 0023 20       		.sleb128 32
 4800 0024 00000000 		.4byte	0
 4801 0028 00000000 		.4byte	0
 4802              	.LLST1:
 4803 002c 2A000000 		.4byte	.LVL1
 4804 0030 34000000 		.4byte	.LVL2
 4805 0034 0100     		.2byte	0x1
 4806 0036 50       		.byte	0x50
 4807 0037 46000000 		.4byte	.LVL5
 4808 003b 50000000 		.4byte	.LVL6
 4809 003f 0100     		.2byte	0x1
 4810 0041 50       		.byte	0x50
 4811 0042 62000000 		.4byte	.LVL9
 4812 0046 6C000000 		.4byte	.LVL10
 4813 004a 0100     		.2byte	0x1
 4814 004c 50       		.byte	0x50
 4815 004d 7E000000 		.4byte	.LVL13
 4816 0051 88000000 		.4byte	.LVL14
 4817 0055 0100     		.2byte	0x1
 4818 0057 50       		.byte	0x50
 4819 0058 9A000000 		.4byte	.LVL17
 4820 005c A4000000 		.4byte	.LVL18
 4821 0060 0100     		.2byte	0x1
 4822 0062 50       		.byte	0x50
 4823 0063 B8000000 		.4byte	.LVL22
 4824 0067 BC000000 		.4byte	.LVL23
 4825 006b 0100     		.2byte	0x1
 4826 006d 50       		.byte	0x50
 4827 006e BC000000 		.4byte	.LVL23
 4828 0072 C4000000 		.4byte	.LVL24
 4829 0076 0300     		.2byte	0x3
 4830 0078 70       		.byte	0x70
 4831 0079 7F       		.sleb128 -1
 4832 007a 9F       		.byte	0x9f
 4833 007b E2000000 		.4byte	.LVL30
 4834 007f E5000000 		.4byte	.LVL31-1
 4835 0083 0100     		.2byte	0x1
 4836 0085 50       		.byte	0x50
ARM GAS  /tmp/cce4pmgX.s 			page 86


 4837 0086 E5000000 		.4byte	.LVL31-1
 4838 008a 08010000 		.4byte	.LVL35
 4839 008e 0100     		.2byte	0x1
 4840 0090 56       		.byte	0x56
 4841 0091 08010000 		.4byte	.LVL35
 4842 0095 0E010000 		.4byte	.LVL36
 4843 0099 0100     		.2byte	0x1
 4844 009b 50       		.byte	0x50
 4845 009c 0E010000 		.4byte	.LVL36
 4846 00a0 1A010000 		.4byte	.LVL38
 4847 00a4 0300     		.2byte	0x3
 4848 00a6 75       		.byte	0x75
 4849 00a7 7F       		.sleb128 -1
 4850 00a8 9F       		.byte	0x9f
 4851 00a9 32010000 		.4byte	.LVL43
 4852 00ad 35010000 		.4byte	.LVL44-1
 4853 00b1 0100     		.2byte	0x1
 4854 00b3 50       		.byte	0x50
 4855 00b4 35010000 		.4byte	.LVL44-1
 4856 00b8 5E010000 		.4byte	.LVL52
 4857 00bc 0100     		.2byte	0x1
 4858 00be 56       		.byte	0x56
 4859 00bf AA010000 		.4byte	.LVL63
 4860 00c3 CE010000 		.4byte	.LVL70
 4861 00c7 0100     		.2byte	0x1
 4862 00c9 56       		.byte	0x56
 4863 00ca 26020000 		.4byte	.LVL85
 4864 00ce 30020000 		.4byte	.LVL86
 4865 00d2 0100     		.2byte	0x1
 4866 00d4 50       		.byte	0x50
 4867 00d5 60020000 		.4byte	.LVL90
 4868 00d9 6A020000 		.4byte	.LVL91
 4869 00dd 0100     		.2byte	0x1
 4870 00df 50       		.byte	0x50
 4871 00e0 80020000 		.4byte	.LVL93
 4872 00e4 8A020000 		.4byte	.LVL94
 4873 00e8 0100     		.2byte	0x1
 4874 00ea 50       		.byte	0x50
 4875 00eb CA020000 		.4byte	.LVL98
 4876 00ef CE020000 		.4byte	.LVL99
 4877 00f3 0100     		.2byte	0x1
 4878 00f5 50       		.byte	0x50
 4879 00f6 CE020000 		.4byte	.LVL99
 4880 00fa D6020000 		.4byte	.LVL100
 4881 00fe 0300     		.2byte	0x3
 4882 0100 70       		.byte	0x70
 4883 0101 7F       		.sleb128 -1
 4884 0102 9F       		.byte	0x9f
 4885 0103 F4020000 		.4byte	.LVL106
 4886 0107 F7020000 		.4byte	.LVL107-1
 4887 010b 0100     		.2byte	0x1
 4888 010d 50       		.byte	0x50
 4889 010e F7020000 		.4byte	.LVL107-1
 4890 0112 AE030000 		.4byte	.LVL135
 4891 0116 0100     		.2byte	0x1
 4892 0118 57       		.byte	0x57
 4893 0119 AE030000 		.4byte	.LVL135
ARM GAS  /tmp/cce4pmgX.s 			page 87


 4894 011d B8030000 		.4byte	.LVL136
 4895 0121 0100     		.2byte	0x1
 4896 0123 50       		.byte	0x50
 4897 0124 CA030000 		.4byte	.LVL138
 4898 0128 D4030000 		.4byte	.LVL139
 4899 012c 0100     		.2byte	0x1
 4900 012e 50       		.byte	0x50
 4901 012f E6030000 		.4byte	.LVL141
 4902 0133 F0030000 		.4byte	.LVL142
 4903 0137 0100     		.2byte	0x1
 4904 0139 50       		.byte	0x50
 4905 013a 02040000 		.4byte	.LVL144
 4906 013e 0C040000 		.4byte	.LVL145
 4907 0142 0100     		.2byte	0x1
 4908 0144 50       		.byte	0x50
 4909 0145 22040000 		.4byte	.LVL148
 4910 0149 25040000 		.4byte	.LVL149-1
 4911 014d 0100     		.2byte	0x1
 4912 014f 50       		.byte	0x50
 4913 0150 25040000 		.4byte	.LVL149-1
 4914 0154 74040000 		.4byte	.LVL158
 4915 0158 0100     		.2byte	0x1
 4916 015a 56       		.byte	0x56
 4917 015b 74040000 		.4byte	.LVL158
 4918 015f 77040000 		.4byte	.LVL159-1
 4919 0163 0100     		.2byte	0x1
 4920 0165 50       		.byte	0x50
 4921 0166 77040000 		.4byte	.LVL159-1
 4922 016a 24050000 		.4byte	.LVL185
 4923 016e 0100     		.2byte	0x1
 4924 0170 56       		.byte	0x56
 4925 0171 24050000 		.4byte	.LVL185
 4926 0175 2E050000 		.4byte	.LVL186
 4927 0179 0100     		.2byte	0x1
 4928 017b 50       		.byte	0x50
 4929 017c 4C050000 		.4byte	.LVL188
 4930 0180 56050000 		.4byte	.LVL189
 4931 0184 0100     		.2byte	0x1
 4932 0186 50       		.byte	0x50
 4933 0187 68050000 		.4byte	.LVL191
 4934 018b 72050000 		.4byte	.LVL192
 4935 018f 0100     		.2byte	0x1
 4936 0191 50       		.byte	0x50
 4937 0192 84050000 		.4byte	.LVL194
 4938 0196 8E050000 		.4byte	.LVL195
 4939 019a 0100     		.2byte	0x1
 4940 019c 50       		.byte	0x50
 4941 019d A4050000 		.4byte	.LVL198
 4942 01a1 A7050000 		.4byte	.LVL199-1
 4943 01a5 0100     		.2byte	0x1
 4944 01a7 50       		.byte	0x50
 4945 01a8 A7050000 		.4byte	.LVL199-1
 4946 01ac E4050000 		.4byte	.LVL205
 4947 01b0 0100     		.2byte	0x1
 4948 01b2 55       		.byte	0x55
 4949 01b3 FA050000 		.4byte	.LVL210
 4950 01b7 FD050000 		.4byte	.LVL211-1
ARM GAS  /tmp/cce4pmgX.s 			page 88


 4951 01bb 0100     		.2byte	0x1
 4952 01bd 50       		.byte	0x50
 4953 01be FD050000 		.4byte	.LVL211-1
 4954 01c2 1E070000 		.4byte	.LVL255
 4955 01c6 0100     		.2byte	0x1
 4956 01c8 56       		.byte	0x56
 4957 01c9 00000000 		.4byte	0
 4958 01cd 00000000 		.4byte	0
 4959              	.LLST2:
 4960 01d1 3A000000 		.4byte	.LVL4
 4961 01d5 56000000 		.4byte	.LVL8
 4962 01d9 0200     		.2byte	0x2
 4963 01db 31       		.byte	0x31
 4964 01dc 9F       		.byte	0x9f
 4965 01dd 56000000 		.4byte	.LVL8
 4966 01e1 72000000 		.4byte	.LVL12
 4967 01e5 0200     		.2byte	0x2
 4968 01e7 32       		.byte	0x32
 4969 01e8 9F       		.byte	0x9f
 4970 01e9 72000000 		.4byte	.LVL12
 4971 01ed 8E000000 		.4byte	.LVL16
 4972 01f1 0200     		.2byte	0x2
 4973 01f3 33       		.byte	0x33
 4974 01f4 9F       		.byte	0x9f
 4975 01f5 8E000000 		.4byte	.LVL16
 4976 01f9 AA000000 		.4byte	.LVL20
 4977 01fd 0200     		.2byte	0x2
 4978 01ff 34       		.byte	0x34
 4979 0200 9F       		.byte	0x9f
 4980 0201 AE000000 		.4byte	.LVL21
 4981 0205 AA010000 		.4byte	.LVL63
 4982 0209 0200     		.2byte	0x2
 4983 020b 34       		.byte	0x34
 4984 020c 9F       		.byte	0x9f
 4985 020d E0010000 		.4byte	.LVL73
 4986 0211 16020000 		.4byte	.LVL83
 4987 0215 0200     		.2byte	0x2
 4988 0217 34       		.byte	0x34
 4989 0218 9F       		.byte	0x9f
 4990 0219 16020000 		.4byte	.LVL83
 4991 021d 18020000 		.4byte	.LVL84
 4992 0221 0200     		.2byte	0x2
 4993 0223 30       		.byte	0x30
 4994 0224 9F       		.byte	0x9f
 4995 0225 00000000 		.4byte	0
 4996 0229 00000000 		.4byte	0
 4997              	.LLST3:
 4998 022d D4000000 		.4byte	.LVL27
 4999 0231 D7000000 		.4byte	.LVL28-1
 5000 0235 0100     		.2byte	0x1
 5001 0237 53       		.byte	0x53
 5002 0238 00000000 		.4byte	0
 5003 023c 00000000 		.4byte	0
 5004              	.LLST4:
 5005 0240 EC000000 		.4byte	.LVL33
 5006 0244 F9000000 		.4byte	.LVL34-1
 5007 0248 0100     		.2byte	0x1
ARM GAS  /tmp/cce4pmgX.s 			page 89


 5008 024a 53       		.byte	0x53
 5009 024b 00000000 		.4byte	0
 5010 024f 00000000 		.4byte	0
 5011              	.LLST5:
 5012 0253 24010000 		.4byte	.LVL40
 5013 0257 27010000 		.4byte	.LVL41-1
 5014 025b 0100     		.2byte	0x1
 5015 025d 53       		.byte	0x53
 5016 025e 00000000 		.4byte	0
 5017 0262 00000000 		.4byte	0
 5018              	.LLST6:
 5019 0266 3C010000 		.4byte	.LVL46
 5020 026a 46010000 		.4byte	.LVL47
 5021 026e 0100     		.2byte	0x1
 5022 0270 53       		.byte	0x53
 5023 0271 00000000 		.4byte	0
 5024 0275 00000000 		.4byte	0
 5025              	.LLST7:
 5026 0279 58010000 		.4byte	.LVL50
 5027 027d 5B010000 		.4byte	.LVL51-1
 5028 0281 0100     		.2byte	0x1
 5029 0283 53       		.byte	0x53
 5030 0284 00000000 		.4byte	0
 5031 0288 00000000 		.4byte	0
 5032              	.LLST8:
 5033 028c 7C010000 		.4byte	.LVL56
 5034 0290 7E010000 		.4byte	.LVL57
 5035 0294 0100     		.2byte	0x1
 5036 0296 53       		.byte	0x53
 5037 0297 00000000 		.4byte	0
 5038 029b 00000000 		.4byte	0
 5039              	.LLST9:
 5040 029f 82010000 		.4byte	.LVL58
 5041 02a3 85010000 		.4byte	.LVL59-1
 5042 02a7 0100     		.2byte	0x1
 5043 02a9 53       		.byte	0x53
 5044 02aa 00000000 		.4byte	0
 5045 02ae 00000000 		.4byte	0
 5046              	.LLST10:
 5047 02b2 AA000000 		.4byte	.LVL20
 5048 02b6 AE000000 		.4byte	.LVL21
 5049 02ba 0100     		.2byte	0x1
 5050 02bc 53       		.byte	0x53
 5051 02bd A8010000 		.4byte	.LVL62
 5052 02c1 AA010000 		.4byte	.LVL63
 5053 02c5 0100     		.2byte	0x1
 5054 02c7 53       		.byte	0x53
 5055 02c8 00000000 		.4byte	0
 5056 02cc 00000000 		.4byte	0
 5057              	.LLST11:
 5058 02d0 B4010000 		.4byte	.LVL66
 5059 02d4 B6010000 		.4byte	.LVL67
 5060 02d8 0100     		.2byte	0x1
 5061 02da 53       		.byte	0x53
 5062 02db 00000000 		.4byte	0
 5063 02df 00000000 		.4byte	0
 5064              	.LLST12:
ARM GAS  /tmp/cce4pmgX.s 			page 90


 5065 02e3 BA010000 		.4byte	.LVL68
 5066 02e7 BD010000 		.4byte	.LVL69-1
 5067 02eb 0100     		.2byte	0x1
 5068 02ed 53       		.byte	0x53
 5069 02ee 00000000 		.4byte	0
 5070 02f2 00000000 		.4byte	0
 5071              	.LLST13:
 5072 02f6 AA000000 		.4byte	.LVL20
 5073 02fa AE000000 		.4byte	.LVL21
 5074 02fe 0100     		.2byte	0x1
 5075 0300 53       		.byte	0x53
 5076 0301 D8010000 		.4byte	.LVL72
 5077 0305 E0010000 		.4byte	.LVL73
 5078 0309 0100     		.2byte	0x1
 5079 030b 53       		.byte	0x53
 5080 030c 00000000 		.4byte	0
 5081 0310 00000000 		.4byte	0
 5082              	.LLST14:
 5083 0314 EA010000 		.4byte	.LVL76
 5084 0318 EC010000 		.4byte	.LVL77
 5085 031c 0100     		.2byte	0x1
 5086 031e 53       		.byte	0x53
 5087 031f 00000000 		.4byte	0
 5088 0323 00000000 		.4byte	0
 5089              	.LLST15:
 5090 0327 F0010000 		.4byte	.LVL78
 5091 032b F3010000 		.4byte	.LVL79-1
 5092 032f 0100     		.2byte	0x1
 5093 0331 53       		.byte	0x53
 5094 0332 00000000 		.4byte	0
 5095 0336 00000000 		.4byte	0
 5096              	.LLST16:
 5097 033a 16020000 		.4byte	.LVL83
 5098 033e 25020000 		.4byte	.LVL85-1
 5099 0342 0100     		.2byte	0x1
 5100 0344 53       		.byte	0x53
 5101 0345 00000000 		.4byte	0
 5102 0349 00000000 		.4byte	0
 5103              	.LLST17:
 5104 034d E6020000 		.4byte	.LVL103
 5105 0351 E9020000 		.4byte	.LVL104-1
 5106 0355 0100     		.2byte	0x1
 5107 0357 53       		.byte	0x53
 5108 0358 00000000 		.4byte	0
 5109 035c 00000000 		.4byte	0
 5110              	.LLST18:
 5111 0360 FE020000 		.4byte	.LVL109
 5112 0364 0F030000 		.4byte	.LVL110-1
 5113 0368 0100     		.2byte	0x1
 5114 036a 53       		.byte	0x53
 5115 036b 00000000 		.4byte	0
 5116 036f 00000000 		.4byte	0
 5117              	.LLST19:
 5118 0373 1C030000 		.4byte	.LVL112
 5119 0377 1F030000 		.4byte	.LVL113-1
 5120 037b 0100     		.2byte	0x1
 5121 037d 53       		.byte	0x53
ARM GAS  /tmp/cce4pmgX.s 			page 91


 5122 037e 00000000 		.4byte	0
 5123 0382 00000000 		.4byte	0
 5124              	.LLST20:
 5125 0386 40030000 		.4byte	.LVL117
 5126 038a 42030000 		.4byte	.LVL118
 5127 038e 0100     		.2byte	0x1
 5128 0390 53       		.byte	0x53
 5129 0391 00000000 		.4byte	0
 5130 0395 00000000 		.4byte	0
 5131              	.LLST21:
 5132 0399 46030000 		.4byte	.LVL119
 5133 039d 49030000 		.4byte	.LVL120-1
 5134 03a1 0100     		.2byte	0x1
 5135 03a3 53       		.byte	0x53
 5136 03a4 00000000 		.4byte	0
 5137 03a8 00000000 		.4byte	0
 5138              	.LLST22:
 5139 03ac 6E030000 		.4byte	.LVL124
 5140 03b0 70030000 		.4byte	.LVL125
 5141 03b4 0100     		.2byte	0x1
 5142 03b6 53       		.byte	0x53
 5143 03b7 00000000 		.4byte	0
 5144 03bb 00000000 		.4byte	0
 5145              	.LLST23:
 5146 03bf 74030000 		.4byte	.LVL126
 5147 03c3 77030000 		.4byte	.LVL127-1
 5148 03c7 0100     		.2byte	0x1
 5149 03c9 53       		.byte	0x53
 5150 03ca 00000000 		.4byte	0
 5151 03ce 00000000 		.4byte	0
 5152              	.LLST24:
 5153 03d2 9C030000 		.4byte	.LVL131
 5154 03d6 9E030000 		.4byte	.LVL132
 5155 03da 0100     		.2byte	0x1
 5156 03dc 53       		.byte	0x53
 5157 03dd 00000000 		.4byte	0
 5158 03e1 00000000 		.4byte	0
 5159              	.LLST25:
 5160 03e5 A2030000 		.4byte	.LVL133
 5161 03e9 A5030000 		.4byte	.LVL134-1
 5162 03ed 0100     		.2byte	0x1
 5163 03ef 53       		.byte	0x53
 5164 03f0 00000000 		.4byte	0
 5165 03f4 00000000 		.4byte	0
 5166              	.LLST26:
 5167 03f8 2C040000 		.4byte	.LVL151
 5168 03fc 39040000 		.4byte	.LVL152-1
 5169 0400 0100     		.2byte	0x1
 5170 0402 53       		.byte	0x53
 5171 0403 00000000 		.4byte	0
 5172 0407 00000000 		.4byte	0
 5173              	.LLST27:
 5174 040b 64040000 		.4byte	.LVL155
 5175 040f 69040000 		.4byte	.LVL156-1
 5176 0413 0100     		.2byte	0x1
 5177 0415 53       		.byte	0x53
 5178 0416 00000000 		.4byte	0
ARM GAS  /tmp/cce4pmgX.s 			page 92


 5179 041a 00000000 		.4byte	0
 5180              	.LLST28:
 5181 041e 7E040000 		.4byte	.LVL161
 5182 0422 82040000 		.4byte	.LVL162
 5183 0426 0100     		.2byte	0x1
 5184 0428 53       		.byte	0x53
 5185 0429 00000000 		.4byte	0
 5186 042d 00000000 		.4byte	0
 5187              	.LLST29:
 5188 0431 B0040000 		.4byte	.LVL167
 5189 0435 B3040000 		.4byte	.LVL168-1
 5190 0439 0100     		.2byte	0x1
 5191 043b 53       		.byte	0x53
 5192 043c 00000000 		.4byte	0
 5193 0440 00000000 		.4byte	0
 5194              	.LLST30:
 5195 0444 D2040000 		.4byte	.LVL172
 5196 0448 D4040000 		.4byte	.LVL173
 5197 044c 0100     		.2byte	0x1
 5198 044e 53       		.byte	0x53
 5199 044f 00000000 		.4byte	0
 5200 0453 00000000 		.4byte	0
 5201              	.LLST31:
 5202 0457 D8040000 		.4byte	.LVL174
 5203 045b DB040000 		.4byte	.LVL175-1
 5204 045f 0100     		.2byte	0x1
 5205 0461 53       		.byte	0x53
 5206 0462 00000000 		.4byte	0
 5207 0466 00000000 		.4byte	0
 5208              	.LLST32:
 5209 046a FC040000 		.4byte	.LVL179
 5210 046e 00050000 		.4byte	.LVL180
 5211 0472 0100     		.2byte	0x1
 5212 0474 53       		.byte	0x53
 5213 0475 00000000 		.4byte	0
 5214 0479 00000000 		.4byte	0
 5215              	.LLST33:
 5216 047d 18050000 		.4byte	.LVL183
 5217 0481 1B050000 		.4byte	.LVL184-1
 5218 0485 0100     		.2byte	0x1
 5219 0487 53       		.byte	0x53
 5220 0488 00000000 		.4byte	0
 5221 048c 00000000 		.4byte	0
 5222              	.LLST34:
 5223 0490 AE050000 		.4byte	.LVL201
 5224 0494 B4050000 		.4byte	.LVL202
 5225 0498 0100     		.2byte	0x1
 5226 049a 53       		.byte	0x53
 5227 049b 00000000 		.4byte	0
 5228 049f 00000000 		.4byte	0
 5229              	.LLST35:
 5230 04a3 EA050000 		.4byte	.LVL207
 5231 04a7 EF050000 		.4byte	.LVL208-1
 5232 04ab 0100     		.2byte	0x1
 5233 04ad 53       		.byte	0x53
 5234 04ae 00000000 		.4byte	0
 5235 04b2 00000000 		.4byte	0
ARM GAS  /tmp/cce4pmgX.s 			page 93


 5236              	.LLST36:
 5237 04b6 04060000 		.4byte	.LVL213
 5238 04ba 08060000 		.4byte	.LVL214
 5239 04be 0100     		.2byte	0x1
 5240 04c0 53       		.byte	0x53
 5241 04c1 00000000 		.4byte	0
 5242 04c5 00000000 		.4byte	0
 5243              	.LLST37:
 5244 04c9 36060000 		.4byte	.LVL219
 5245 04cd 39060000 		.4byte	.LVL220-1
 5246 04d1 0100     		.2byte	0x1
 5247 04d3 53       		.byte	0x53
 5248 04d4 00000000 		.4byte	0
 5249 04d8 00000000 		.4byte	0
 5250              	.LLST38:
 5251 04dc 56060000 		.4byte	.LVL224
 5252 04e0 58060000 		.4byte	.LVL225
 5253 04e4 0100     		.2byte	0x1
 5254 04e6 53       		.byte	0x53
 5255 04e7 00000000 		.4byte	0
 5256 04eb 00000000 		.4byte	0
 5257              	.LLST39:
 5258 04ef 5C060000 		.4byte	.LVL226
 5259 04f3 5F060000 		.4byte	.LVL227-1
 5260 04f7 0100     		.2byte	0x1
 5261 04f9 53       		.byte	0x53
 5262 04fa 00000000 		.4byte	0
 5263 04fe 00000000 		.4byte	0
 5264              	.LLST40:
 5265 0502 7E060000 		.4byte	.LVL231
 5266 0506 8C060000 		.4byte	.LVL232
 5267 050a 0100     		.2byte	0x1
 5268 050c 53       		.byte	0x53
 5269 050d 00000000 		.4byte	0
 5270 0511 00000000 		.4byte	0
 5271              	.LLST41:
 5272 0515 A6060000 		.4byte	.LVL236
 5273 0519 A9060000 		.4byte	.LVL237-1
 5274 051d 0100     		.2byte	0x1
 5275 051f 53       		.byte	0x53
 5276 0520 00000000 		.4byte	0
 5277 0524 00000000 		.4byte	0
 5278              	.LLST42:
 5279 0528 CA060000 		.4byte	.LVL241
 5280 052c CC060000 		.4byte	.LVL242
 5281 0530 0100     		.2byte	0x1
 5282 0532 53       		.byte	0x53
 5283 0533 00000000 		.4byte	0
 5284 0537 00000000 		.4byte	0
 5285              	.LLST43:
 5286 053b D0060000 		.4byte	.LVL243
 5287 053f D3060000 		.4byte	.LVL244-1
 5288 0543 0100     		.2byte	0x1
 5289 0545 53       		.byte	0x53
 5290 0546 00000000 		.4byte	0
 5291 054a 00000000 		.4byte	0
 5292              	.LLST44:
ARM GAS  /tmp/cce4pmgX.s 			page 94


 5293 054e F0060000 		.4byte	.LVL248
 5294 0552 F2060000 		.4byte	.LVL249
 5295 0556 0100     		.2byte	0x1
 5296 0558 53       		.byte	0x53
 5297 0559 00000000 		.4byte	0
 5298 055d 00000000 		.4byte	0
 5299              	.LLST45:
 5300 0561 F6060000 		.4byte	.LVL250
 5301 0565 F9060000 		.4byte	.LVL251-1
 5302 0569 0100     		.2byte	0x1
 5303 056b 53       		.byte	0x53
 5304 056c 00000000 		.4byte	0
 5305 0570 00000000 		.4byte	0
 5306              	.LLST46:
 5307 0574 AA000000 		.4byte	.LVL20
 5308 0578 AE000000 		.4byte	.LVL21
 5309 057c 0100     		.2byte	0x1
 5310 057e 53       		.byte	0x53
 5311 057f 1C070000 		.4byte	.LVL254
 5312 0583 1E070000 		.4byte	.LVL255
 5313 0587 0100     		.2byte	0x1
 5314 0589 53       		.byte	0x53
 5315 058a 00000000 		.4byte	0
 5316 058e 00000000 		.4byte	0
 5317              	.LLST47:
 5318 0592 AA000000 		.4byte	.LVL20
 5319 0596 AE000000 		.4byte	.LVL21
 5320 059a 0100     		.2byte	0x1
 5321 059c 53       		.byte	0x53
 5322 059d 28070000 		.4byte	.LVL257
 5323 05a1 34070000 		.4byte	.LFE8
 5324 05a5 0100     		.2byte	0x1
 5325 05a7 53       		.byte	0x53
 5326 05a8 00000000 		.4byte	0
 5327 05ac 00000000 		.4byte	0
 5328              		.section	.debug_aranges,"",%progbits
 5329 0000 24000000 		.4byte	0x24
 5330 0004 0200     		.2byte	0x2
 5331 0006 00000000 		.4byte	.Ldebug_info0
 5332 000a 04       		.byte	0x4
 5333 000b 00       		.byte	0
 5334 000c 0000     		.2byte	0
 5335 000e 0000     		.2byte	0
 5336 0010 00000000 		.4byte	.LFB8
 5337 0014 34070000 		.4byte	.LFE8-.LFB8
 5338 0018 00000000 		.4byte	.LFB7
 5339 001c 16000000 		.4byte	.LFE7-.LFB7
 5340 0020 00000000 		.4byte	0
 5341 0024 00000000 		.4byte	0
 5342              		.section	.debug_ranges,"",%progbits
 5343              	.Ldebug_ranges0:
 5344 0000 00000000 		.4byte	.LFB8
 5345 0004 34070000 		.4byte	.LFE8
 5346 0008 00000000 		.4byte	.LFB7
 5347 000c 16000000 		.4byte	.LFE7
 5348 0010 00000000 		.4byte	0
 5349 0014 00000000 		.4byte	0
ARM GAS  /tmp/cce4pmgX.s 			page 95


 5350              		.section	.debug_line,"",%progbits
 5351              	.Ldebug_line0:
 5352 0000 C3020000 		.section	.debug_str,"MS",%progbits,1
 5352      0200A101 
 5352      00000201 
 5352      FB0E0D00 
 5352      01010101 
 5353              	.LASF37:
 5354 0000 705F6D73 		.ascii	"p_msg\000"
 5354      6700
 5355              	.LASF63:
 5356 0006 7264796D 		.ascii	"rdymsg\000"
 5356      736700
 5357              	.LASF11:
 5358 000d 75696E74 		.ascii	"uint64_t\000"
 5358      36345F74 
 5358      00
 5359              	.LASF83:
 5360 0016 63684D42 		.ascii	"chMBPostI\000"
 5360      506F7374 
 5360      4900
 5361              	.LASF62:
 5362 0020 4D61696C 		.ascii	"Mailbox\000"
 5362      626F7800 
 5363              	.LASF86:
 5364 0028 63684D42 		.ascii	"chMBPostAheadI\000"
 5364      506F7374 
 5364      41686561 
 5364      644900
 5365              	.LASF12:
 5366 0037 6C6F6E67 		.ascii	"long long unsigned int\000"
 5366      206C6F6E 
 5366      6720756E 
 5366      7369676E 
 5366      65642069 
 5367              	.LASF79:
 5368 004e 70617474 		.ascii	"patternmbox\000"
 5368      65726E6D 
 5368      626F7800 
 5369              	.LASF64:
 5370 005a 65786974 		.ascii	"exitcode\000"
 5370      636F6465 
 5370      00
 5371              	.LASF77:
 5372 0063 74657374 		.ascii	"test\000"
 5372      00
 5373              	.LASF58:
 5374 0068 6D625F77 		.ascii	"mb_wrptr\000"
 5374      72707472 
 5374      00
 5375              	.LASF25:
 5376 0071 705F7072 		.ascii	"p_prio\000"
 5376      696F00
 5377              	.LASF10:
 5378 0078 6C6F6E67 		.ascii	"long long int\000"
 5378      206C6F6E 
 5378      6720696E 
ARM GAS  /tmp/cce4pmgX.s 			page 96


 5378      7400
 5379              	.LASF1:
 5380 0086 7369676E 		.ascii	"signed char\000"
 5380      65642063 
 5380      68617200 
 5381              	.LASF41:
 5382 0092 705F6D70 		.ascii	"p_mpool\000"
 5382      6F6F6C00 
 5383              	.LASF13:
 5384 009a 626F6F6C 		.ascii	"bool_t\000"
 5384      5F7400
 5385              	.LASF53:
 5386 00a1 6D5F7175 		.ascii	"m_queue\000"
 5386      65756500 
 5387              	.LASF90:
 5388 00a9 74657374 		.ascii	"test_emit_token\000"
 5388      5F656D69 
 5388      745F746F 
 5388      6B656E00 
 5389              	.LASF81:
 5390 00b9 63684D42 		.ascii	"chMBPost\000"
 5390      506F7374 
 5390      00
 5391              	.LASF7:
 5392 00c2 6C6F6E67 		.ascii	"long int\000"
 5392      20696E74 
 5392      00
 5393              	.LASF15:
 5394 00cb 74737461 		.ascii	"tstate_t\000"
 5394      74655F74 
 5394      00
 5395              	.LASF27:
 5396 00d4 705F6E65 		.ascii	"p_newer\000"
 5396      77657200 
 5397              	.LASF50:
 5398 00dc 735F7175 		.ascii	"s_queue\000"
 5398      65756500 
 5399              	.LASF44:
 5400 00e4 72656761 		.ascii	"regarm_t\000"
 5400      726D5F74 
 5400      00
 5401              	.LASF21:
 5402 00ed 636E745F 		.ascii	"cnt_t\000"
 5402      7400
 5403              	.LASF30:
 5404 00f3 705F7374 		.ascii	"p_stklimit\000"
 5404      6B6C696D 
 5404      697400
 5405              	.LASF0:
 5406 00fe 756E7369 		.ascii	"unsigned int\000"
 5406      676E6564 
 5406      20696E74 
 5406      00
 5407              	.LASF96:
 5408 010b 63684D42 		.ascii	"chMBInit\000"
 5408      496E6974 
 5408      00
ARM GAS  /tmp/cce4pmgX.s 			page 97


 5409              	.LASF74:
 5410 0114 6D736731 		.ascii	"msg1\000"
 5410      00
 5411              	.LASF95:
 5412 0119 6D736732 		.ascii	"msg2\000"
 5412      00
 5413              	.LASF92:
 5414 011e 474E5520 		.ascii	"GNU C 4.7.3 20121207 (release) [ARM/embedded-4_7-br"
 5414      4320342E 
 5414      372E3320 
 5414      32303132 
 5414      31323037 
 5415 0151 616E6368 		.ascii	"anch revision 194305]\000"
 5415      20726576 
 5415      6973696F 
 5415      6E203139 
 5415      34333035 
 5416              	.LASF9:
 5417 0167 6C6F6E67 		.ascii	"long unsigned int\000"
 5417      20756E73 
 5417      69676E65 
 5417      6420696E 
 5417      7400
 5418              	.LASF71:
 5419 0179 74656172 		.ascii	"teardown\000"
 5419      646F776E 
 5419      00
 5420              	.LASF61:
 5421 0182 6D625F65 		.ascii	"mb_emptysem\000"
 5421      6D707479 
 5421      73656D00 
 5422              	.LASF69:
 5423 018e 6E616D65 		.ascii	"name\000"
 5423      00
 5424              	.LASF51:
 5425 0193 735F636E 		.ascii	"s_cnt\000"
 5425      7400
 5426              	.LASF47:
 5427 0199 636F6E74 		.ascii	"context\000"
 5427      65787400 
 5428              	.LASF4:
 5429 01a1 73686F72 		.ascii	"short unsigned int\000"
 5429      7420756E 
 5429      7369676E 
 5429      65642069 
 5429      6E7400
 5430              	.LASF89:
 5431 01b4 63684D42 		.ascii	"chMBFetchI\000"
 5431      46657463 
 5431      684900
 5432              	.LASF18:
 5433 01bf 6D73675F 		.ascii	"msg_t\000"
 5433      7400
 5434              	.LASF14:
 5435 01c5 746D6F64 		.ascii	"tmode_t\000"
 5435      655F7400 
 5436              	.LASF76:
ARM GAS  /tmp/cce4pmgX.s 			page 98


 5437 01cd 6D626F78 		.ascii	"mbox1_setup\000"
 5437      315F7365 
 5437      74757000 
 5438              	.LASF43:
 5439 01d9 54687265 		.ascii	"ThreadsList\000"
 5439      6164734C 
 5439      69737400 
 5440              	.LASF19:
 5441 01e5 6576656E 		.ascii	"eventmask_t\000"
 5441      746D6173 
 5441      6B5F7400 
 5442              	.LASF52:
 5443 01f1 4D757465 		.ascii	"Mutex\000"
 5443      7800
 5444              	.LASF78:
 5445 01f7 74657374 		.ascii	"testmbox1\000"
 5445      6D626F78 
 5445      3100
 5446              	.LASF45:
 5447 0201 73746B61 		.ascii	"stkalign_t\000"
 5447      6C69676E 
 5447      5F7400
 5448              	.LASF48:
 5449 020c 73697A65 		.ascii	"sizetype\000"
 5449      74797065 
 5449      00
 5450              	.LASF59:
 5451 0215 6D625F72 		.ascii	"mb_rdptr\000"
 5451      64707472 
 5451      00
 5452              	.LASF91:
 5453 021e 63684D42 		.ascii	"chMBReset\000"
 5453      52657365 
 5453      7400
 5454              	.LASF28:
 5455 0228 705F6F6C 		.ascii	"p_older\000"
 5455      64657200 
 5456              	.LASF42:
 5457 0230 54687265 		.ascii	"ThreadsQueue\000"
 5457      61647351 
 5457      75657565 
 5457      00
 5458              	.LASF70:
 5459 023d 73657475 		.ascii	"setup\000"
 5459      7000
 5460              	.LASF88:
 5461 0243 5F746573 		.ascii	"_test_assert_sequence\000"
 5461      745F6173 
 5461      73657274 
 5461      5F736571 
 5461      75656E63 
 5462              	.LASF56:
 5463 0259 6D625F62 		.ascii	"mb_buffer\000"
 5463      75666665 
 5463      7200
 5464              	.LASF75:
 5465 0263 6D626F78 		.ascii	"mbox1_execute\000"
ARM GAS  /tmp/cce4pmgX.s 			page 99


 5465      315F6578 
 5465      65637574 
 5465      6500
 5466              	.LASF84:
 5467 0271 6462675F 		.ascii	"dbg_check_lock\000"
 5467      63686563 
 5467      6B5F6C6F 
 5467      636B00
 5468              	.LASF85:
 5469 0280 6462675F 		.ascii	"dbg_check_unlock\000"
 5469      63686563 
 5469      6B5F756E 
 5469      6C6F636B 
 5469      00
 5470              	.LASF16:
 5471 0291 74726566 		.ascii	"trefs_t\000"
 5471      735F7400 
 5472              	.LASF24:
 5473 0299 705F7072 		.ascii	"p_prev\000"
 5473      657600
 5474              	.LASF72:
 5475 02a0 65786563 		.ascii	"execute\000"
 5475      75746500 
 5476              	.LASF17:
 5477 02a8 74707269 		.ascii	"tprio_t\000"
 5477      6F5F7400 
 5478              	.LASF6:
 5479 02b0 696E7433 		.ascii	"int32_t\000"
 5479      325F7400 
 5480              	.LASF2:
 5481 02b8 756E7369 		.ascii	"unsigned char\000"
 5481      676E6564 
 5481      20636861 
 5481      7200
 5482              	.LASF57:
 5483 02c6 6D625F74 		.ascii	"mb_top\000"
 5483      6F7000
 5484              	.LASF39:
 5485 02cd 705F6D74 		.ascii	"p_mtxlist\000"
 5485      786C6973 
 5485      7400
 5486              	.LASF3:
 5487 02d7 73686F72 		.ascii	"short int\000"
 5487      7420696E 
 5487      7400
 5488              	.LASF31:
 5489 02e1 705F7374 		.ascii	"p_state\000"
 5489      61746500 
 5490              	.LASF66:
 5491 02e9 65776D61 		.ascii	"ewmask\000"
 5491      736B00
 5492              	.LASF23:
 5493 02f0 705F6E65 		.ascii	"p_next\000"
 5493      787400
 5494              	.LASF32:
 5495 02f7 705F666C 		.ascii	"p_flags\000"
 5495      61677300 
ARM GAS  /tmp/cce4pmgX.s 			page 100


 5496              	.LASF22:
 5497 02ff 54687265 		.ascii	"Thread\000"
 5497      616400
 5498              	.LASF68:
 5499 0306 74657374 		.ascii	"testcase\000"
 5499      63617365 
 5499      00
 5500              	.LASF38:
 5501 030f 705F6570 		.ascii	"p_epending\000"
 5501      656E6469 
 5501      6E6700
 5502              	.LASF8:
 5503 031a 75696E74 		.ascii	"uint32_t\000"
 5503      33325F74 
 5503      00
 5504              	.LASF93:
 5505 0323 2F686F6D 		.ascii	"/home/formica/chibios/chibios/test/testmbox.c\000"
 5505      652F666F 
 5505      726D6963 
 5505      612F6368 
 5505      6962696F 
 5506              	.LASF67:
 5507 0351 63686172 		.ascii	"char\000"
 5507      00
 5508              	.LASF55:
 5509 0356 6D5F6E65 		.ascii	"m_next\000"
 5509      787400
 5510              	.LASF20:
 5511 035d 73797374 		.ascii	"systime_t\000"
 5511      696D655F 
 5511      7400
 5512              	.LASF40:
 5513 0367 705F7265 		.ascii	"p_realprio\000"
 5513      616C7072 
 5513      696F00
 5514              	.LASF73:
 5515 0372 62756666 		.ascii	"buffer\000"
 5515      657200
 5516              	.LASF34:
 5517 0379 705F7469 		.ascii	"p_time\000"
 5517      6D6500
 5518              	.LASF82:
 5519 0380 63684D42 		.ascii	"chMBPostAhead\000"
 5519      506F7374 
 5519      41686561 
 5519      6400
 5520              	.LASF46:
 5521 038e 696E7463 		.ascii	"intctx\000"
 5521      747800
 5522              	.LASF36:
 5523 0395 705F6D73 		.ascii	"p_msgqueue\000"
 5523      67717565 
 5523      756500
 5524              	.LASF87:
 5525 03a0 63684D42 		.ascii	"chMBFetch\000"
 5525      46657463 
 5525      6800
ARM GAS  /tmp/cce4pmgX.s 			page 101


 5526              	.LASF49:
 5527 03aa 53656D61 		.ascii	"Semaphore\000"
 5527      70686F72 
 5527      6500
 5528              	.LASF60:
 5529 03b4 6D625F66 		.ascii	"mb_fullsem\000"
 5529      756C6C73 
 5529      656D00
 5530              	.LASF94:
 5531 03bf 74657374 		.ascii	"test_buffers\000"
 5531      5F627566 
 5531      66657273 
 5531      00
 5532              	.LASF33:
 5533 03cc 705F7265 		.ascii	"p_refs\000"
 5533      667300
 5534              	.LASF5:
 5535 03d3 75696E74 		.ascii	"uint8_t\000"
 5535      385F7400 
 5536              	.LASF65:
 5537 03db 77746F62 		.ascii	"wtobjp\000"
 5537      6A7000
 5538              	.LASF29:
 5539 03e2 705F6E61 		.ascii	"p_name\000"
 5539      6D6500
 5540              	.LASF80:
 5541 03e9 5F746573 		.ascii	"_test_assert\000"
 5541      745F6173 
 5541      73657274 
 5541      00
 5542              	.LASF54:
 5543 03f6 6D5F6F77 		.ascii	"m_owner\000"
 5543      6E657200 
 5544              	.LASF26:
 5545 03fe 705F6374 		.ascii	"p_ctx\000"
 5545      7800
 5546              	.LASF35:
 5547 0404 705F7761 		.ascii	"p_waiting\000"
 5547      6974696E 
 5547      6700
 5548              		.ident	"GCC: (GNU Tools for ARM Embedded Processors) 4.7.3 20121207 (release) [ARM/embedded-4_7-br
ARM GAS  /tmp/cce4pmgX.s 			page 102


DEFINED SYMBOLS
                            *ABS*:00000000 testmbox.c
     /tmp/cce4pmgX.s:19     .text.mbox1_execute:00000000 $t
     /tmp/cce4pmgX.s:24     .text.mbox1_execute:00000000 mbox1_execute
     /tmp/cce4pmgX.s:374    .text.mbox1_execute:000001dc $d
     /tmp/cce4pmgX.s:379    .text.mbox1_execute:000001e0 $t
     /tmp/cce4pmgX.s:950    .text.mbox1_execute:0000053c $d
     /tmp/cce4pmgX.s:954    .text.mbox1_execute:00000544 $t
     /tmp/cce4pmgX.s:1295   .text.mbox1_execute:0000072c $d
     /tmp/cce4pmgX.s:1302   .text.mbox1_setup:00000000 $t
     /tmp/cce4pmgX.s:1307   .text.mbox1_setup:00000000 mbox1_setup
     /tmp/cce4pmgX.s:1331   .data.mb1:00000000 .LANCHOR0
     /tmp/cce4pmgX.s:1349   .rodata.patternmbox:00000000 patternmbox
     /tmp/cce4pmgX.s:1363   .rodata.testmbox1:00000000 testmbox1
     /tmp/cce4pmgX.s:1330   .data.mb1:00000000 $d
     /tmp/cce4pmgX.s:1334   .data.mb1:00000000 mb1
     /tmp/cce4pmgX.s:1346   .rodata.patternmbox:00000000 $d
     /tmp/cce4pmgX.s:1353   .rodata.str1.4:00000000 $d
     /tmp/cce4pmgX.s:1360   .rodata.testmbox1:00000000 $d
                     .debug_frame:00000010 $d
     /tmp/cce4pmgX.s:1301   .text.mbox1_execute:00000734 $t

UNDEFINED SYMBOLS
_test_assert
chMBPost
chMBPostAhead
dbg_check_lock
chMBPostI
dbg_check_unlock
chMBPostAheadI
chMBFetch
test_emit_token
_test_assert_sequence
chMBFetchI
chMBReset
test
chMBInit
