ARM GAS  /tmp/ccgphSn8.s 			page 1


   1              		.syntax unified
   2              		.cpu cortex-m3
   3              		.fpu softvfp
   4              		.eabi_attribute 20, 1
   5              		.eabi_attribute 21, 1
   6              		.eabi_attribute 23, 3
   7              		.eabi_attribute 24, 1
   8              		.eabi_attribute 25, 1
   9              		.eabi_attribute 26, 1
  10              		.eabi_attribute 30, 2
  11              		.eabi_attribute 34, 1
  12              		.eabi_attribute 18, 4
  13              		.thumb
  14              		.file	"testevt.c"
  15              		.text
  16              	.Ltext0:
  17              		.cfi_sections	.debug_frame
  18              		.section	.text.evt3_setup,"ax",%progbits
  19              		.align	2
  20              		.p2align 4,,15
  21              		.thumb
  22              		.thumb_func
  23              		.type	evt3_setup, %function
  24              	evt3_setup:
  25              	.LFB16:
  26              		.file 1 "/home/formica/chibios/chibios/test/testevt.c"
  27              		.loc 1 258 0
  28              		.cfi_startproc
  29              		@ args = 0, pretend = 0, frame = 0
  30              		@ frame_needed = 0, uses_anonymous_args = 0
  31              		@ link register save eliminated.
  32              		.loc 1 260 0
  33 0000 4FF0FF30 		mov	r0, #-1
  34              		.loc 1 261 0
  35              		.loc 1 260 0
  36 0004 FFF7FEBF 		b	chEvtClearFlags
  37              	.LVL0:
  38              		.cfi_endproc
  39              	.LFE16:
  40              		.size	evt3_setup, .-evt3_setup
  41 0008 AFF30080 		.section	.text.evt2_setup,"ax",%progbits
  41      AFF30080 
  42              		.align	2
  43              		.p2align 4,,15
  44              		.thumb
  45              		.thumb_func
  46              		.type	evt2_setup, %function
  47              	evt2_setup:
  48              	.LFB12:
  49              		.loc 1 139 0
  50              		.cfi_startproc
  51              		@ args = 0, pretend = 0, frame = 0
  52              		@ frame_needed = 0, uses_anonymous_args = 0
  53              		@ link register save eliminated.
  54              		.loc 1 141 0
  55 0000 4FF0FF30 		mov	r0, #-1
  56              		.loc 1 142 0
ARM GAS  /tmp/ccgphSn8.s 			page 2


  57              		.loc 1 141 0
  58 0004 FFF7FEBF 		b	chEvtClearFlags
  59              	.LVL1:
  60              		.cfi_endproc
  61              	.LFE12:
  62              		.size	evt2_setup, .-evt2_setup
  63 0008 AFF30080 		.section	.text.evt1_setup,"ax",%progbits
  63      AFF30080 
  64              		.align	2
  65              		.p2align 4,,15
  66              		.thumb
  67              		.thumb_func
  68              		.type	evt1_setup, %function
  69              	evt1_setup:
  70              	.LFB7:
  71              		.loc 1 86 0
  72              		.cfi_startproc
  73              		@ args = 0, pretend = 0, frame = 0
  74              		@ frame_needed = 0, uses_anonymous_args = 0
  75              		@ link register save eliminated.
  76              		.loc 1 88 0
  77 0000 4FF0FF30 		mov	r0, #-1
  78              		.loc 1 89 0
  79              		.loc 1 88 0
  80 0004 FFF7FEBF 		b	chEvtClearFlags
  81              	.LVL2:
  82              		.cfi_endproc
  83              	.LFE7:
  84              		.size	evt1_setup, .-evt1_setup
  85 0008 AFF30080 		.section	.text.evt2_execute,"ax",%progbits
  85      AFF30080 
  86              		.align	2
  87              		.p2align 4,,15
  88              		.thumb
  89              		.thumb_func
  90              		.type	evt2_execute, %function
  91              	evt2_execute:
  92              	.LFB15:
  93              		.loc 1 160 0
  94              		.cfi_startproc
  95              		@ args = 0, pretend = 0, frame = 32
  96              		@ frame_needed = 0, uses_anonymous_args = 0
  97 0000 2DE9F042 		push	{r4, r5, r6, r7, r9, lr}
  98              	.LCFI0:
  99              		.cfi_def_cfa_offset 24
 100              		.cfi_offset 4, -24
 101              		.cfi_offset 5, -20
 102              		.cfi_offset 6, -16
 103              		.cfi_offset 7, -12
 104              		.cfi_offset 9, -8
 105              		.cfi_offset 14, -4
 106              		.loc 1 168 0
 107 0004 0520     		movs	r0, #5
 108              		.loc 1 160 0
 109 0006 8AB0     		sub	sp, sp, #40
 110              	.LCFI1:
 111              		.cfi_def_cfa_offset 64
ARM GAS  /tmp/ccgphSn8.s 			page 3


 112              		.loc 1 168 0
 113 0008 FFF7FEFF 		bl	chEvtAddFlags
 114              	.LVL3:
 115              		.loc 1 169 0
 116 000c 4FF0FF30 		mov	r0, #-1
 117 0010 FFF7FEFF 		bl	chEvtWaitOne
 118              	.LVL4:
 119              		.loc 1 170 0
 120 0014 0138     		subs	r0, r0, #1
 121              	.LVL5:
 122 0016 4142     		rsbs	r1, r0, #0
 123 0018 4141     		adcs	r1, r1, r0
 124 001a 0120     		movs	r0, #1
 125              	.LVL6:
 126 001c FFF7FEFF 		bl	_test_assert
 127              	.LVL7:
 128 0020 10B1     		cbz	r0, .L8
 129              	.L4:
 130              		.loc 1 233 0
 131 0022 0AB0     		add	sp, sp, #40
 132 0024 BDE8F082 		pop	{r4, r5, r6, r7, r9, pc}
 133              	.L8:
 134              		.loc 1 171 0
 135 0028 4FF0FF30 		mov	r0, #-1
 136 002c FFF7FEFF 		bl	chEvtWaitOne
 137              	.LVL8:
 138              		.loc 1 172 0
 139 0030 021F     		subs	r2, r0, #4
 140 0032 5342     		rsbs	r3, r2, #0
 141 0034 53EB0201 		adcs	r1, r3, r2
 142 0038 0220     		movs	r0, #2
 143              	.LVL9:
 144 003a FFF7FEFF 		bl	_test_assert
 145              	.LVL10:
 146 003e 0028     		cmp	r0, #0
 147 0040 EFD1     		bne	.L4
 148              		.loc 1 173 0
 149 0042 4FF0FF30 		mov	r0, #-1
 150 0046 FFF7FEFF 		bl	chEvtClearFlags
 151              	.LVL11:
 152              		.loc 1 174 0
 153 004a D0F10101 		rsbs	r1, r0, #1
 154 004e 38BF     		it	cc
 155 0050 0021     		movcc	r1, #0
 156 0052 0320     		movs	r0, #3
 157              	.LVL12:
 158 0054 FFF7FEFF 		bl	_test_assert
 159              	.LVL13:
 160 0058 0028     		cmp	r0, #0
 161 005a E2D1     		bne	.L4
 162              		.loc 1 181 0
 163 005c 754D     		ldr	r5, .L9
 164 005e 764F     		ldr	r7, .L9+4
 165              		.loc 1 179 0
 166 0060 FFF7FEFF 		bl	test_wait_tick
 167              	.LVL14:
 168              		.loc 1 181 0
ARM GAS  /tmp/ccgphSn8.s 			page 4


 169 0064 EC69     		ldr	r4, [r5, #28]
 170 0066 3868     		ldr	r0, [r7, #0]
 171 0068 A668     		ldr	r6, [r4, #8]
 172 006a 0390     		str	r0, [sp, #12]
 173              		.loc 1 180 0
 174 006c 734F     		ldr	r7, .L9+8
 175              		.loc 1 181 0
 176 006e 721E     		subs	r2, r6, #1
 177 0070 4FF49871 		mov	r1, #304
 178 0074 724B     		ldr	r3, .L9+12
 179 0076 0094     		str	r4, [sp, #0]
 180 0078 0398     		ldr	r0, [sp, #12]
 181              		.loc 1 180 0
 182 007a FC68     		ldr	r4, [r7, #12]
 183              	.LVL15:
 184              		.loc 1 181 0
 185 007c FFF7FEFF 		bl	chThdCreateStatic
 186              	.LVL16:
 187 0080 704E     		ldr	r6, .L9+16
 188 0082 3060     		str	r0, [r6, #0]
 189              		.loc 1 183 0
 190 0084 4FF0FF30 		mov	r0, #-1
 191 0088 FFF7FEFF 		bl	chEvtWaitOne
 192              	.LVL17:
 193              		.loc 1 184 0
 194 008c 04F13201 		add	r1, r4, #50
 195              	.LVL18:
 196              		.loc 1 183 0
 197 0090 8146     		mov	r9, r0
 198              	.LVL19:
 199              		.loc 1 184 0
 200 0092 04F13702 		add	r2, r4, #55
 201 0096 0420     		movs	r0, #4
 202              	.LVL20:
 203 0098 FFF7FEFF 		bl	_test_assert_time_window
 204              	.LVL21:
 205 009c 0028     		cmp	r0, #0
 206 009e C0D1     		bne	.L4
 207              		.loc 1 185 0
 208 00a0 0520     		movs	r0, #5
 209 00a2 B9F10102 		subs	r2, r9, #1
 210 00a6 5142     		rsbs	r1, r2, #0
 211 00a8 5141     		adcs	r1, r1, r2
 212 00aa FFF7FEFF 		bl	_test_assert
 213              	.LVL22:
 214 00ae 0028     		cmp	r0, #0
 215 00b0 B7D1     		bne	.L4
 216              		.loc 1 186 0
 217 00b2 4FF0FF30 		mov	r0, #-1
 218 00b6 FFF7FEFF 		bl	chEvtClearFlags
 219              	.LVL23:
 220              		.loc 1 187 0
 221 00ba D0F10101 		rsbs	r1, r0, #1
 222 00be 38BF     		it	cc
 223 00c0 0021     		movcc	r1, #0
 224 00c2 0620     		movs	r0, #6
 225              	.LVL24:
ARM GAS  /tmp/ccgphSn8.s 			page 5


 226 00c4 FFF7FEFF 		bl	_test_assert
 227              	.LVL25:
 228 00c8 0028     		cmp	r0, #0
 229 00ca AAD1     		bne	.L4
 230              		.loc 1 188 0
 231 00cc FFF7FEFF 		bl	test_wait_threads
 232              	.LVL26:
 233              		.loc 1 193 0
 234 00d0 0520     		movs	r0, #5
 235 00d2 FFF7FEFF 		bl	chEvtAddFlags
 236              	.LVL27:
 237              		.loc 1 194 0
 238 00d6 4FF0FF30 		mov	r0, #-1
 239 00da FFF7FEFF 		bl	chEvtWaitAny
 240              	.LVL28:
 241              		.loc 1 195 0
 242 00de B0F1050C 		subs	ip, r0, #5
 243 00e2 DCF10003 		rsbs	r3, ip, #0
 244 00e6 53EB0C01 		adcs	r1, r3, ip
 245 00ea 0720     		movs	r0, #7
 246              	.LVL29:
 247 00ec FFF7FEFF 		bl	_test_assert
 248              	.LVL30:
 249 00f0 0028     		cmp	r0, #0
 250 00f2 96D1     		bne	.L4
 251              		.loc 1 196 0
 252 00f4 4FF0FF30 		mov	r0, #-1
 253 00f8 FFF7FEFF 		bl	chEvtClearFlags
 254              	.LVL31:
 255              		.loc 1 197 0
 256 00fc D0F10101 		rsbs	r1, r0, #1
 257 0100 38BF     		it	cc
 258 0102 0021     		movcc	r1, #0
 259 0104 0820     		movs	r0, #8
 260              	.LVL32:
 261 0106 FFF7FEFF 		bl	_test_assert
 262              	.LVL33:
 263 010a 0028     		cmp	r0, #0
 264 010c 89D1     		bne	.L4
 265              		.loc 1 202 0
 266 010e FFF7FEFF 		bl	test_wait_tick
 267              	.LVL34:
 268              		.loc 1 204 0
 269 0112 EC69     		ldr	r4, [r5, #28]
 270              	.LVL35:
 271 0114 4FF49871 		mov	r1, #304
 272 0118 A068     		ldr	r0, [r4, #8]
 273 011a 494B     		ldr	r3, .L9+12
 274 011c 421E     		subs	r2, r0, #1
 275 011e 0094     		str	r4, [sp, #0]
 276 0120 0398     		ldr	r0, [sp, #12]
 277              		.loc 1 203 0
 278 0122 FC68     		ldr	r4, [r7, #12]
 279              	.LVL36:
 280              		.loc 1 204 0
 281 0124 FFF7FEFF 		bl	chThdCreateStatic
 282              	.LVL37:
ARM GAS  /tmp/ccgphSn8.s 			page 6


 283 0128 3060     		str	r0, [r6, #0]
 284              		.loc 1 206 0
 285 012a 4FF0FF30 		mov	r0, #-1
 286 012e FFF7FEFF 		bl	chEvtWaitAny
 287              	.LVL38:
 288              		.loc 1 207 0
 289 0132 04F13201 		add	r1, r4, #50
 290              	.LVL39:
 291              		.loc 1 206 0
 292 0136 8146     		mov	r9, r0
 293              	.LVL40:
 294              		.loc 1 207 0
 295 0138 04F13702 		add	r2, r4, #55
 296 013c 0920     		movs	r0, #9
 297              	.LVL41:
 298 013e FFF7FEFF 		bl	_test_assert_time_window
 299              	.LVL42:
 300 0142 0028     		cmp	r0, #0
 301 0144 7FF46DAF 		bne	.L4
 302              		.loc 1 208 0
 303 0148 0A20     		movs	r0, #10
 304 014a B9F1010E 		subs	lr, r9, #1
 305 014e DEF10002 		rsbs	r2, lr, #0
 306 0152 52EB0E01 		adcs	r1, r2, lr
 307 0156 FFF7FEFF 		bl	_test_assert
 308              	.LVL43:
 309 015a 0028     		cmp	r0, #0
 310 015c 7FF461AF 		bne	.L4
 311              		.loc 1 209 0
 312 0160 4FF0FF30 		mov	r0, #-1
 313 0164 FFF7FEFF 		bl	chEvtClearFlags
 314              	.LVL44:
 315              		.loc 1 210 0
 316 0168 D0F10101 		rsbs	r1, r0, #1
 317 016c 38BF     		it	cc
 318 016e 0021     		movcc	r1, #0
 319 0170 0B20     		movs	r0, #11
 320              	.LVL45:
 321 0172 FFF7FEFF 		bl	_test_assert
 322              	.LVL46:
 323 0176 0028     		cmp	r0, #0
 324 0178 7FF453AF 		bne	.L4
 325              		.loc 1 216 0
 326 017c DFF8D490 		ldr	r9, .L9+32
 327              		.loc 1 217 0
 328 0180 314C     		ldr	r4, .L9+20
 329              	.LVL47:
 330              		.loc 1 211 0
 331 0182 FFF7FEFF 		bl	test_wait_threads
 332              	.LVL48:
 333              		.loc 1 218 0
 334 0186 4846     		mov	r0, r9
 335 0188 04A9     		add	r1, sp, #16
 336 018a 0122     		movs	r2, #1
 337              		.loc 1 216 0
 338 018c C9F80090 		str	r9, [r9, #0]
 339              		.loc 1 217 0
ARM GAS  /tmp/ccgphSn8.s 			page 7


 340 0190 2460     		str	r4, [r4, #0]
 341              		.loc 1 218 0
 342 0192 FFF7FEFF 		bl	chEvtRegisterMask
 343              	.LVL49:
 344              		.loc 1 219 0
 345 0196 07A9     		add	r1, sp, #28
 346 0198 0422     		movs	r2, #4
 347 019a 2046     		mov	r0, r4
 348 019c FFF7FEFF 		bl	chEvtRegisterMask
 349              	.LVL50:
 350              		.loc 1 220 0
 351 01a0 FFF7FEFF 		bl	test_wait_tick
 352              	.LVL51:
 353              		.loc 1 222 0
 354 01a4 ED69     		ldr	r5, [r5, #28]
 355 01a6 2948     		ldr	r0, .L9+24
 356 01a8 AB68     		ldr	r3, [r5, #8]
 357 01aa 4FF49871 		mov	r1, #304
 358 01ae 5A1E     		subs	r2, r3, #1
 359 01b0 0090     		str	r0, [sp, #0]
 360 01b2 274B     		ldr	r3, .L9+28
 361 01b4 0398     		ldr	r0, [sp, #12]
 362              		.loc 1 221 0
 363 01b6 FD68     		ldr	r5, [r7, #12]
 364              	.LVL52:
 365              		.loc 1 222 0
 366 01b8 FFF7FEFF 		bl	chThdCreateStatic
 367              	.LVL53:
 368 01bc 3060     		str	r0, [r6, #0]
 369              		.loc 1 224 0
 370 01be 0520     		movs	r0, #5
 371 01c0 FFF7FEFF 		bl	chEvtWaitAll
 372              	.LVL54:
 373              		.loc 1 225 0
 374 01c4 0C20     		movs	r0, #12
 375 01c6 05F13201 		add	r1, r5, #50
 376              	.LVL55:
 377 01ca 05F13702 		add	r2, r5, #55
 378 01ce FFF7FEFF 		bl	_test_assert_time_window
 379              	.LVL56:
 380 01d2 0028     		cmp	r0, #0
 381 01d4 7FF425AF 		bne	.L4
 382              		.loc 1 226 0
 383 01d8 4FF0FF30 		mov	r0, #-1
 384 01dc FFF7FEFF 		bl	chEvtClearFlags
 385              	.LVL57:
 386              		.loc 1 227 0
 387 01e0 D0F10101 		rsbs	r1, r0, #1
 388 01e4 38BF     		it	cc
 389 01e6 0021     		movcc	r1, #0
 390 01e8 0D20     		movs	r0, #13
 391              	.LVL58:
 392 01ea FFF7FEFF 		bl	_test_assert
 393              	.LVL59:
 394 01ee 0028     		cmp	r0, #0
 395 01f0 7FF417AF 		bne	.L4
 396              		.loc 1 228 0
ARM GAS  /tmp/ccgphSn8.s 			page 8


 397 01f4 FFF7FEFF 		bl	test_wait_threads
 398              	.LVL60:
 399              		.loc 1 229 0
 400 01f8 4846     		mov	r0, r9
 401 01fa 04A9     		add	r1, sp, #16
 402 01fc FFF7FEFF 		bl	chEvtUnregister
 403              	.LVL61:
 404              		.loc 1 230 0
 405 0200 2046     		mov	r0, r4
 406 0202 07A9     		add	r1, sp, #28
 407 0204 FFF7FEFF 		bl	chEvtUnregister
 408              	.LVL62:
 409              		.loc 1 231 0
 410 0208 D9F80010 		ldr	r1, [r9, #0]
 411 020c 0E20     		movs	r0, #14
 412 020e B1EB0902 		subs	r2, r1, r9
 413 0212 5342     		rsbs	r3, r2, #0
 414 0214 53EB0201 		adcs	r1, r3, r2
 415 0218 FFF7FEFF 		bl	_test_assert
 416              	.LVL63:
 417 021c 0028     		cmp	r0, #0
 418 021e 7FF400AF 		bne	.L4
 419              		.loc 1 232 0
 420 0222 2168     		ldr	r1, [r4, #0]
 421 0224 0F20     		movs	r0, #15
 422 0226 0A1B     		subs	r2, r1, r4
 423 0228 5342     		rsbs	r3, r2, #0
 424 022a 53EB0201 		adcs	r1, r3, r2
 425 022e FFF7FEFF 		bl	_test_assert
 426              	.LVL64:
 427 0232 F6E6     		b	.L4
 428              	.L10:
 429              		.align	2
 430              	.L9:
 431 0234 00000000 		.word	rlist
 432 0238 00000000 		.word	wa
 433 023c 00000000 		.word	vtlist
 434 0240 00000000 		.word	thread1
 435 0244 00000000 		.word	threads
 436 0248 00000000 		.word	.LANCHOR1
 437 024c 00000000 		.word	.LC0
 438 0250 00000000 		.word	thread2
 439 0254 00000000 		.word	.LANCHOR0
 440              		.cfi_endproc
 441              	.LFE15:
 442              		.size	evt2_execute, .-evt2_execute
 443 0258 AFF30080 		.section	.text.thread2,"ax",%progbits
 443      AFF30080 
 444              		.align	2
 445              		.p2align 4,,15
 446              		.thumb
 447              		.thumb_func
 448              		.type	thread2, %function
 449              	thread2:
 450              	.LFB14:
 451              		.loc 1 151 0
 452              		.cfi_startproc
ARM GAS  /tmp/ccgphSn8.s 			page 9


 453              		@ args = 0, pretend = 0, frame = 0
 454              		@ frame_needed = 0, uses_anonymous_args = 0
 455              	.LVL65:
 456              		.loc 1 154 0
 457 0000 40F20000 		movw	r0, #:lower16:.LANCHOR0
 458              	.LVL66:
 459              		.loc 1 151 0
 460 0004 08B5     		push	{r3, lr}
 461              	.LCFI2:
 462              		.cfi_def_cfa_offset 8
 463              		.cfi_offset 3, -8
 464              		.cfi_offset 14, -4
 465              		.loc 1 154 0
 466 0006 0021     		movs	r1, #0
 467 0008 C0F20000 		movt	r0, #:upper16:.LANCHOR0
 468 000c FFF7FEFF 		bl	chEvtBroadcastFlags
 469              	.LVL67:
 470              		.loc 1 155 0
 471 0010 3220     		movs	r0, #50
 472 0012 FFF7FEFF 		bl	chThdSleep
 473              	.LVL68:
 474              		.loc 1 156 0
 475 0016 40F20000 		movw	r0, #:lower16:.LANCHOR1
 476 001a C0F20000 		movt	r0, #:upper16:.LANCHOR1
 477 001e 0021     		movs	r1, #0
 478 0020 FFF7FEFF 		bl	chEvtBroadcastFlags
 479              	.LVL69:
 480              		.loc 1 158 0
 481 0024 0020     		movs	r0, #0
 482 0026 08BD     		pop	{r3, pc}
 483              		.cfi_endproc
 484              	.LFE14:
 485              		.size	thread2, .-thread2
 486 0028 AFF30080 		.section	.text.thread1,"ax",%progbits
 486      AFF30080 
 487              		.align	2
 488              		.p2align 4,,15
 489              		.thumb
 490              		.thumb_func
 491              		.type	thread1, %function
 492              	thread1:
 493              	.LFB13:
 494              		.loc 1 144 0
 495              		.cfi_startproc
 496              		@ args = 0, pretend = 0, frame = 0
 497              		@ frame_needed = 0, uses_anonymous_args = 0
 498              	.LVL70:
 499 0000 10B5     		push	{r4, lr}
 500              	.LCFI3:
 501              		.cfi_def_cfa_offset 8
 502              		.cfi_offset 4, -8
 503              		.cfi_offset 14, -4
 504              		.loc 1 144 0
 505 0002 0446     		mov	r4, r0
 506              		.loc 1 146 0
 507 0004 3220     		movs	r0, #50
 508              	.LVL71:
ARM GAS  /tmp/ccgphSn8.s 			page 10


 509 0006 FFF7FEFF 		bl	chThdSleep
 510              	.LVL72:
 511              		.loc 1 147 0
 512 000a 2046     		mov	r0, r4
 513 000c 0121     		movs	r1, #1
 514 000e FFF7FEFF 		bl	chEvtSignalFlags
 515              	.LVL73:
 516              		.loc 1 149 0
 517 0012 0020     		movs	r0, #0
 518 0014 10BD     		pop	{r4, pc}
 519              		.cfi_endproc
 520              	.LFE13:
 521              		.size	thread1, .-thread1
 522 0016 00BFAFF3 		.section	.text.evt1_execute,"ax",%progbits
 522      0080AFF3 
 522      0080
 523              		.align	2
 524              		.p2align 4,,15
 525              		.thumb
 526              		.thumb_func
 527              		.type	evt1_execute, %function
 528              	evt1_execute:
 529              	.LFB11:
 530              		.loc 1 96 0
 531              		.cfi_startproc
 532              		@ args = 0, pretend = 0, frame = 24
 533              		@ frame_needed = 0, uses_anonymous_args = 0
 534 0000 10B5     		push	{r4, lr}
 535              	.LCFI4:
 536              		.cfi_def_cfa_offset 8
 537              		.cfi_offset 4, -8
 538              		.cfi_offset 14, -4
 539              		.loc 1 102 0
 540 0002 1E4C     		ldr	r4, .L17
 541              		.loc 1 96 0
 542 0004 86B0     		sub	sp, sp, #24
 543              	.LCFI5:
 544              		.cfi_def_cfa_offset 32
 545              		.loc 1 103 0
 546 0006 0122     		movs	r2, #1
 547 0008 2046     		mov	r0, r4
 548 000a 6946     		mov	r1, sp
 549              		.loc 1 102 0
 550 000c 2460     		str	r4, [r4, #0]
 551              		.loc 1 103 0
 552 000e FFF7FEFF 		bl	chEvtRegisterMask
 553              	.LVL74:
 554              		.loc 1 104 0
 555 0012 2046     		mov	r0, r4
 556 0014 03A9     		add	r1, sp, #12
 557 0016 0222     		movs	r2, #2
 558 0018 FFF7FEFF 		bl	chEvtRegisterMask
 559              	.LVL75:
 560              		.loc 1 105 0
 561 001c 2168     		ldr	r1, [r4, #0]
 562 001e 0120     		movs	r0, #1
 563 0020 091B     		subs	r1, r1, r4
ARM GAS  /tmp/ccgphSn8.s 			page 11


 564 0022 18BF     		it	ne
 565 0024 0121     		movne	r1, #1
 566 0026 FFF7FEFF 		bl	_test_assert
 567              	.LVL76:
 568 002a 08B1     		cbz	r0, .L16
 569              	.L13:
 570              		.loc 1 116 0
 571 002c 06B0     		add	sp, sp, #24
 572 002e 10BD     		pop	{r4, pc}
 573              	.L16:
 574              		.loc 1 106 0
 575 0030 2046     		mov	r0, r4
 576 0032 6946     		mov	r1, sp
 577 0034 FFF7FEFF 		bl	chEvtUnregister
 578              	.LVL77:
 579              		.loc 1 107 0
 580 0038 2268     		ldr	r2, [r4, #0]
 581 003a 0220     		movs	r0, #2
 582 003c 111B     		subs	r1, r2, r4
 583 003e 18BF     		it	ne
 584 0040 0121     		movne	r1, #1
 585 0042 FFF7FEFF 		bl	_test_assert
 586              	.LVL78:
 587 0046 0028     		cmp	r0, #0
 588 0048 F0D1     		bne	.L13
 589              		.loc 1 108 0
 590 004a 2046     		mov	r0, r4
 591 004c 03A9     		add	r1, sp, #12
 592 004e FFF7FEFF 		bl	chEvtUnregister
 593              	.LVL79:
 594              		.loc 1 109 0
 595 0052 2368     		ldr	r3, [r4, #0]
 596 0054 0320     		movs	r0, #3
 597 0056 B3EB040E 		subs	lr, r3, r4
 598 005a DEF10001 		rsbs	r1, lr, #0
 599 005e 51EB0E01 		adcs	r1, r1, lr
 600 0062 FFF7FEFF 		bl	_test_assert
 601              	.LVL80:
 602 0066 0028     		cmp	r0, #0
 603 0068 E0D1     		bne	.L13
 604              		.loc 1 114 0
 605 006a 0721     		movs	r1, #7
 606 006c 0448     		ldr	r0, .L17+4
 607 006e FFF7FEFF 		bl	chEvtDispatch
 608              	.LVL81:
 609              		.loc 1 115 0
 610 0072 0420     		movs	r0, #4
 611 0074 0349     		ldr	r1, .L17+8
 612 0076 FFF7FEFF 		bl	_test_assert_sequence
 613              	.LVL82:
 614 007a D7E7     		b	.L13
 615              	.L18:
 616              		.align	2
 617              	.L17:
 618 007c 00000000 		.word	.LANCHOR0
 619 0080 00000000 		.word	.LANCHOR2
 620 0084 04000000 		.word	.LC1
ARM GAS  /tmp/ccgphSn8.s 			page 12


 621              		.cfi_endproc
 622              	.LFE11:
 623              		.size	evt1_execute, .-evt1_execute
 624 0088 AFF30080 		.section	.text.h3,"ax",%progbits
 624      AFF30080 
 625              		.align	2
 626              		.p2align 4,,15
 627              		.thumb
 628              		.thumb_func
 629              		.type	h3, %function
 630              	h3:
 631              	.LFB10:
 632              		.loc 1 93 0
 633              		.cfi_startproc
 634              		@ args = 0, pretend = 0, frame = 0
 635              		@ frame_needed = 0, uses_anonymous_args = 0
 636              		@ link register save eliminated.
 637              	.LVL83:
 638              		.loc 1 93 0
 639 0000 4320     		movs	r0, #67
 640              	.LVL84:
 641 0002 FFF7FEBF 		b	test_emit_token
 642              	.LVL85:
 643              		.cfi_endproc
 644              	.LFE10:
 645              		.size	h3, .-h3
 646 0006 00BFAFF3 		.section	.text.h2,"ax",%progbits
 646      0080AFF3 
 646      0080
 647              		.align	2
 648              		.p2align 4,,15
 649              		.thumb
 650              		.thumb_func
 651              		.type	h2, %function
 652              	h2:
 653              	.LFB9:
 654              		.loc 1 92 0
 655              		.cfi_startproc
 656              		@ args = 0, pretend = 0, frame = 0
 657              		@ frame_needed = 0, uses_anonymous_args = 0
 658              		@ link register save eliminated.
 659              	.LVL86:
 660              		.loc 1 92 0
 661 0000 4220     		movs	r0, #66
 662              	.LVL87:
 663 0002 FFF7FEBF 		b	test_emit_token
 664              	.LVL88:
 665              		.cfi_endproc
 666              	.LFE9:
 667              		.size	h2, .-h2
 668 0006 00BFAFF3 		.section	.text.h1,"ax",%progbits
 668      0080AFF3 
 668      0080
 669              		.align	2
 670              		.p2align 4,,15
 671              		.thumb
 672              		.thumb_func
ARM GAS  /tmp/ccgphSn8.s 			page 13


 673              		.type	h1, %function
 674              	h1:
 675              	.LFB8:
 676              		.loc 1 91 0
 677              		.cfi_startproc
 678              		@ args = 0, pretend = 0, frame = 0
 679              		@ frame_needed = 0, uses_anonymous_args = 0
 680              		@ link register save eliminated.
 681              	.LVL89:
 682              		.loc 1 91 0
 683 0000 4120     		movs	r0, #65
 684              	.LVL90:
 685 0002 FFF7FEBF 		b	test_emit_token
 686              	.LVL91:
 687              		.cfi_endproc
 688              	.LFE8:
 689              		.size	h1, .-h1
 690 0006 00BFAFF3 		.section	.text.evt3_execute,"ax",%progbits
 690      0080AFF3 
 690      0080
 691              		.align	2
 692              		.p2align 4,,15
 693              		.thumb
 694              		.thumb_func
 695              		.type	evt3_execute, %function
 696              	evt3_execute:
 697              	.LFB17:
 698              		.loc 1 263 0
 699              		.cfi_startproc
 700              		@ args = 0, pretend = 0, frame = 0
 701              		@ frame_needed = 0, uses_anonymous_args = 0
 702 0000 08B5     		push	{r3, lr}
 703              	.LCFI6:
 704              		.cfi_def_cfa_offset 8
 705              		.cfi_offset 3, -8
 706              		.cfi_offset 14, -4
 707              		.loc 1 269 0
 708 0002 0021     		movs	r1, #0
 709 0004 4FF0FF30 		mov	r0, #-1
 710 0008 FFF7FEFF 		bl	chEvtWaitOneTimeout
 711              	.LVL92:
 712              		.loc 1 270 0
 713 000c D0F10101 		rsbs	r1, r0, #1
 714 0010 38BF     		it	cc
 715 0012 0021     		movcc	r1, #0
 716 0014 0120     		movs	r0, #1
 717              	.LVL93:
 718 0016 FFF7FEFF 		bl	_test_assert
 719              	.LVL94:
 720 001a 00B1     		cbz	r0, .L26
 721              	.L22:
 722 001c 08BD     		pop	{r3, pc}
 723              	.L26:
 724              		.loc 1 271 0
 725 001e 0146     		mov	r1, r0
 726 0020 4FF0FF30 		mov	r0, #-1
 727 0024 FFF7FEFF 		bl	chEvtWaitAnyTimeout
ARM GAS  /tmp/ccgphSn8.s 			page 14


 728              	.LVL95:
 729              		.loc 1 272 0
 730 0028 D0F10101 		rsbs	r1, r0, #1
 731 002c 38BF     		it	cc
 732 002e 0021     		movcc	r1, #0
 733 0030 0220     		movs	r0, #2
 734              	.LVL96:
 735 0032 FFF7FEFF 		bl	_test_assert
 736              	.LVL97:
 737 0036 0028     		cmp	r0, #0
 738 0038 F0D1     		bne	.L22
 739              		.loc 1 273 0
 740 003a 0146     		mov	r1, r0
 741 003c 4FF0FF30 		mov	r0, #-1
 742 0040 FFF7FEFF 		bl	chEvtWaitAllTimeout
 743              	.LVL98:
 744              		.loc 1 274 0
 745 0044 D0F10101 		rsbs	r1, r0, #1
 746 0048 38BF     		it	cc
 747 004a 0021     		movcc	r1, #0
 748 004c 0320     		movs	r0, #3
 749              	.LVL99:
 750 004e FFF7FEFF 		bl	_test_assert
 751              	.LVL100:
 752 0052 0028     		cmp	r0, #0
 753 0054 E2D1     		bne	.L22
 754              	.LBB4:
 755              	.LBB5:
 756              		.loc 1 275 0
 757 0056 0A21     		movs	r1, #10
 758 0058 4FF0FF30 		mov	r0, #-1
 759 005c FFF7FEFF 		bl	chEvtWaitOneTimeout
 760              	.LVL101:
 761              		.loc 1 276 0
 762 0060 D0F10101 		rsbs	r1, r0, #1
 763 0064 38BF     		it	cc
 764 0066 0021     		movcc	r1, #0
 765 0068 0420     		movs	r0, #4
 766              	.LVL102:
 767 006a FFF7FEFF 		bl	_test_assert
 768              	.LVL103:
 769 006e 0028     		cmp	r0, #0
 770 0070 D4D1     		bne	.L22
 771              		.loc 1 277 0
 772 0072 0A21     		movs	r1, #10
 773 0074 4FF0FF30 		mov	r0, #-1
 774 0078 FFF7FEFF 		bl	chEvtWaitAnyTimeout
 775              	.LVL104:
 776              		.loc 1 278 0
 777 007c D0F10101 		rsbs	r1, r0, #1
 778 0080 38BF     		it	cc
 779 0082 0021     		movcc	r1, #0
 780 0084 0520     		movs	r0, #5
 781              	.LVL105:
 782 0086 FFF7FEFF 		bl	_test_assert
 783              	.LVL106:
 784 008a 0028     		cmp	r0, #0
ARM GAS  /tmp/ccgphSn8.s 			page 15


 785 008c C6D1     		bne	.L22
 786              		.loc 1 279 0
 787 008e 0A21     		movs	r1, #10
 788 0090 4FF0FF30 		mov	r0, #-1
 789 0094 FFF7FEFF 		bl	chEvtWaitAllTimeout
 790              	.LVL107:
 791              		.loc 1 280 0
 792 0098 D0F10101 		rsbs	r1, r0, #1
 793 009c 38BF     		it	cc
 794 009e 0021     		movcc	r1, #0
 795 00a0 0620     		movs	r0, #6
 796              	.LVL108:
 797              	.LBE5:
 798              	.LBE4:
 799              		.loc 1 281 0
 800 00a2 BDE80840 		pop	{r3, lr}
 801              	.LBB7:
 802              	.LBB6:
 803              		.loc 1 280 0
 804 00a6 FFF7FEBF 		b	_test_assert
 805              	.LVL109:
 806              	.LBE6:
 807              	.LBE7:
 808              		.cfi_endproc
 809              	.LFE17:
 810              		.size	evt3_execute, .-evt3_execute
 811              		.global	patternevt
 812              		.global	testevt3
 813              		.global	testevt2
 814              		.global	testevt1
 815 00aa 00BFAFF3 		.section	.rodata.patternevt,"a",%progbits
 815      0080
 816              		.align	2
 817              		.type	patternevt, %object
 818              		.size	patternevt, 16
 819              	patternevt:
 820 0000 00000000 		.word	testevt1
 821 0004 00000000 		.word	testevt2
 822 0008 00000000 		.word	testevt3
 823 000c 00000000 		.word	0
 824              		.section	.rodata.testevt2,"a",%progbits
 825              		.align	2
 826              		.type	testevt2, %object
 827              		.size	testevt2, 16
 828              	testevt2:
 829 0000 1C000000 		.word	.LC3
 830 0004 00000000 		.word	evt2_setup
 831 0008 00000000 		.word	0
 832 000c 00000000 		.word	evt2_execute
 833              		.section	.rodata.str1.4,"aMS",%progbits,1
 834              		.align	2
 835              	.LC0:
 836 0000 4100     		.ascii	"A\000"
 837 0002 0000     		.space	2
 838              	.LC1:
 839 0004 41424300 		.ascii	"ABC\000"
 840              	.LC2:
ARM GAS  /tmp/ccgphSn8.s 			page 16


 841 0008 4576656E 		.ascii	"Events, timeouts\000"
 841      74732C20 
 841      74696D65 
 841      6F757473 
 841      00
 842 0019 000000   		.space	3
 843              	.LC3:
 844 001c 4576656E 		.ascii	"Events, wait and broadcast\000"
 844      74732C20 
 844      77616974 
 844      20616E64 
 844      2062726F 
 845 0037 00       		.space	1
 846              	.LC4:
 847 0038 4576656E 		.ascii	"Events, registration and dispatch\000"
 847      74732C20 
 847      72656769 
 847      73747261 
 847      74696F6E 
 848 005a 0000     		.section	.rodata.testevt1,"a",%progbits
 849              		.align	2
 850              		.type	testevt1, %object
 851              		.size	testevt1, 16
 852              	testevt1:
 853 0000 38000000 		.word	.LC4
 854 0004 00000000 		.word	evt1_setup
 855 0008 00000000 		.word	0
 856 000c 00000000 		.word	evt1_execute
 857              		.section	.rodata.evhndl,"a",%progbits
 858              		.align	2
 859              		.set	.LANCHOR2,. + 0
 860              		.type	evhndl, %object
 861              		.size	evhndl, 12
 862              	evhndl:
 863 0000 00000000 		.word	h1
 864 0004 00000000 		.word	h2
 865 0008 00000000 		.word	h3
 866              		.section	.rodata.testevt3,"a",%progbits
 867              		.align	2
 868              		.type	testevt3, %object
 869              		.size	testevt3, 16
 870              	testevt3:
 871 0000 08000000 		.word	.LC2
 872 0004 00000000 		.word	evt3_setup
 873 0008 00000000 		.word	0
 874 000c 00000000 		.word	evt3_execute
 875              		.section	.data.es1,"aw",%progbits
 876              		.align	2
 877              		.set	.LANCHOR0,. + 0
 878              		.type	es1, %object
 879              		.size	es1, 4
 880              	es1:
 881 0000 00000000 		.word	es1
 882              		.section	.data.es2,"aw",%progbits
 883              		.align	2
 884              		.set	.LANCHOR1,. + 0
 885              		.type	es2, %object
ARM GAS  /tmp/ccgphSn8.s 			page 17


 886              		.size	es2, 4
 887              	es2:
 888 0000 00000000 		.word	es2
 889              		.text
 890              	.Letext0:
 891              		.file 2 "/home/formica/toolchains/gcc-arm-none-eabi-4_7-2012q4/bin/../lib/gcc/arm-none-eabi/4.7.3/
 892              		.file 3 "/home/formica/toolchains/gcc-arm-none-eabi-4_7-2012q4/bin/../lib/gcc/arm-none-eabi/4.7.3/
 893              		.file 4 "/home/formica/chibios/chibios/os/ports/GCC/ARMCMx/chtypes.h"
 894              		.file 5 "/home/formica/chibios/chibios/os/kernel/include/chlists.h"
 895              		.file 6 "/home/formica/chibios/chibios/os/kernel/include/chthreads.h"
 896              		.file 7 "/home/formica/chibios/chibios/os/ports/GCC/ARMCMx/chcore_v7m.h"
 897              		.file 8 "/home/formica/chibios/chibios/os/kernel/include/chvt.h"
 898              		.file 9 "/home/formica/chibios/chibios/os/kernel/include/chschd.h"
 899              		.file 10 "/home/formica/chibios/chibios/os/kernel/include/chmtx.h"
 900              		.file 11 "/home/formica/chibios/chibios/os/kernel/include/chevents.h"
 901              		.file 12 "/home/formica/chibios/chibios/test/test.h"