ARM GAS  /tmp/cced5PxZ.s 			page 1


   1              		.syntax unified
   2              		.cpu cortex-m3
   3              		.fpu softvfp
   4              		.eabi_attribute 20, 1
   5              		.eabi_attribute 21, 1
   6              		.eabi_attribute 23, 3
   7              		.eabi_attribute 24, 1
   8              		.eabi_attribute 25, 1
   9              		.eabi_attribute 26, 1
  10              		.eabi_attribute 30, 2
  11              		.eabi_attribute 34, 1
  12              		.eabi_attribute 18, 4
  13              		.thumb
  14              		.file	"tm.c"
  15              		.text
  16              	.Ltext0:
  17              		.cfi_sections	.debug_frame
  18              		.section	.text.tm_start,"ax",%progbits
  19              		.align	2
  20              		.p2align 4,,15
  21              		.thumb
  22              		.thumb_func
  23              		.type	tm_start, %function
  24              	tm_start:
  25              	.LFB62:
  26              		.file 1 "/home/formica/chibios/chibios/os/hal/src/tm.c"
  27              		.loc 1 69 0
  28              		.cfi_startproc
  29              		@ args = 0, pretend = 0, frame = 0
  30              		@ frame_needed = 0, uses_anonymous_args = 0
  31              		@ link register save eliminated.
  32              	.LVL0:
  33              		.loc 1 71 0
  34 0000 4FF48053 		mov	r3, #4096
  35 0004 CEF20003 		movt	r3, 57344
  36 0008 5968     		ldr	r1, [r3, #4]
  37 000a 8160     		str	r1, [r0, #8]
  38 000c 7047     		bx	lr
  39              		.cfi_endproc
  40              	.LFE62:
  41              		.size	tm_start, .-tm_start
  42              		.section	.text.tm_stop,"ax",%progbits
  43              		.align	2
  44              		.p2align 4,,15
  45              		.thumb
  46              		.thumb_func
  47              		.type	tm_stop, %function
  48              	tm_stop:
  49              	.LFB63:
  50              		.loc 1 81 0
  51              		.cfi_startproc
  52              		@ args = 0, pretend = 0, frame = 0
  53              		@ frame_needed = 0, uses_anonymous_args = 0
  54              		@ link register save eliminated.
  55              	.LVL1:
  56              		.loc 1 83 0
  57 0000 4FF48053 		mov	r3, #4096
ARM GAS  /tmp/cced5PxZ.s 			page 2


  58 0004 CEF20003 		movt	r3, 57344
  59              		.loc 1 84 0
  60 0008 0849     		ldr	r1, .L7
  61 000a 8268     		ldr	r2, [r0, #8]
  62              		.loc 1 83 0
  63 000c 5B68     		ldr	r3, [r3, #4]
  64              	.LVL2:
  65              		.loc 1 84 0
  66 000e 0968     		ldr	r1, [r1, #0]
  67 0010 9B1A     		subs	r3, r3, r2
  68              	.LVL3:
  69              		.loc 1 85 0
  70 0012 C268     		ldr	r2, [r0, #12]
  71              		.loc 1 84 0
  72 0014 591A     		subs	r1, r3, r1
  73              		.loc 1 85 0
  74 0016 9142     		cmp	r1, r2
  75              		.loc 1 84 0
  76 0018 8160     		str	r1, [r0, #8]
  77              		.loc 1 85 0
  78 001a 04D8     		bhi	.L6
  79              		.loc 1 87 0
  80 001c 0369     		ldr	r3, [r0, #16]
  81 001e 9942     		cmp	r1, r3
  82              		.loc 1 88 0
  83 0020 38BF     		it	cc
  84 0022 0161     		strcc	r1, [r0, #16]
  85 0024 7047     		bx	lr
  86              	.L6:
  87              		.loc 1 86 0
  88 0026 C160     		str	r1, [r0, #12]
  89 0028 7047     		bx	lr
  90              	.L8:
  91 002a 00BF     		.align	2
  92              	.L7:
  93 002c 00000000 		.word	.LANCHOR0
  94              		.cfi_endproc
  95              	.LFE63:
  96              		.size	tm_stop, .-tm_stop
  97              		.section	.text.tmInit,"ax",%progbits
  98              		.align	2
  99              		.p2align 4,,15
 100              		.global	tmInit
 101              		.thumb
 102              		.thumb_func
 103              		.type	tmInit, %function
 104              	tmInit:
 105              	.LFB64:
 106              		.loc 1 104 0
 107              		.cfi_startproc
 108              		@ args = 0, pretend = 0, frame = 24
 109              		@ frame_needed = 0, uses_anonymous_args = 0
 110 0000 10B5     		push	{r4, lr}
 111              	.LCFI0:
 112              		.cfi_def_cfa_offset 8
 113              		.cfi_offset 4, -8
 114              		.cfi_offset 14, -4
ARM GAS  /tmp/cced5PxZ.s 			page 3


 115              		.loc 1 110 0
 116 0002 40F20004 		movw	r4, #:lower16:.LANCHOR0
 117              		.loc 1 104 0
 118 0006 86B0     		sub	sp, sp, #24
 119              	.LCFI1:
 120              		.cfi_def_cfa_offset 32
 121              		.loc 1 110 0
 122 0008 0022     		movs	r2, #0
 123 000a C0F20004 		movt	r4, #:upper16:.LANCHOR0
 124              	.LBB8:
 125              	.LBB9:
 126              		.loc 1 130 0
 127 000e 4FF0FF30 		mov	r0, #-1
 128              	.LBE9:
 129              	.LBE8:
 130              	.LBB13:
 131              	.LBB14:
 132              		.loc 1 71 0
 133 0012 4FF48053 		mov	r3, #4096
 134              	.LBE14:
 135              	.LBE13:
 136              		.loc 1 110 0
 137 0016 2260     		str	r2, [r4, #0]
 138              	.LVL4:
 139              	.LBB17:
 140              	.LBB10:
 141              		.loc 1 129 0
 142 0018 0492     		str	r2, [sp, #16]
 143              		.loc 1 130 0
 144 001a 0590     		str	r0, [sp, #20]
 145              	.LVL5:
 146              	.LBE10:
 147              	.LBE17:
 148              	.LBB18:
 149              	.LBB15:
 150              		.loc 1 71 0
 151 001c CEF20003 		movt	r3, 57344
 152 0020 5968     		ldr	r1, [r3, #4]
 153              	.LBE15:
 154              	.LBE18:
 155              	.LBB19:
 156              	.LBB11:
 157              		.loc 1 126 0
 158 0022 40F20002 		movw	r2, #:lower16:tm_start
 159              		.loc 1 127 0
 160 0026 40F20003 		movw	r3, #:lower16:tm_stop
 161              	.LBE11:
 162              	.LBE19:
 163              		.loc 1 113 0
 164 002a 01A8     		add	r0, sp, #4
 165              	.LVL6:
 166              	.LBB20:
 167              	.LBB12:
 168              		.loc 1 126 0
 169 002c C0F20002 		movt	r2, #:upper16:tm_start
 170              		.loc 1 127 0
 171 0030 C0F20003 		movt	r3, #:upper16:tm_stop
ARM GAS  /tmp/cced5PxZ.s 			page 4


 172              		.loc 1 126 0
 173 0034 0192     		str	r2, [sp, #4]
 174              		.loc 1 127 0
 175 0036 0293     		str	r3, [sp, #8]
 176              	.LBE12:
 177              	.LBE20:
 178              	.LBB21:
 179              	.LBB16:
 180              		.loc 1 71 0
 181 0038 0391     		str	r1, [sp, #12]
 182              	.LBE16:
 183              	.LBE21:
 184              		.loc 1 113 0
 185 003a FFF7FEFF 		bl	tm_stop
 186              	.LVL7:
 187              		.loc 1 114 0
 188 003e 0398     		ldr	r0, [sp, #12]
 189 0040 2060     		str	r0, [r4, #0]
 190              		.loc 1 115 0
 191 0042 06B0     		add	sp, sp, #24
 192 0044 10BD     		pop	{r4, pc}
 193              		.cfi_endproc
 194              	.LFE64:
 195              		.size	tmInit, .-tmInit
 196 0046 00BFAFF3 		.section	.text.tmObjectInit,"ax",%progbits
 196      0080AFF3 
 196      0080
 197              		.align	2
 198              		.p2align 4,,15
 199              		.global	tmObjectInit
 200              		.thumb
 201              		.thumb_func
 202              		.type	tmObjectInit, %function
 203              	tmObjectInit:
 204              	.LFB65:
 205              		.loc 1 124 0
 206              		.cfi_startproc
 207              		@ args = 0, pretend = 0, frame = 0
 208              		@ frame_needed = 0, uses_anonymous_args = 0
 209              		@ link register save eliminated.
 210              	.LVL8:
 211              		.loc 1 128 0
 212 0000 0023     		movs	r3, #0
 213              		.loc 1 126 0
 214 0002 40F20002 		movw	r2, #:lower16:tm_start
 215              		.loc 1 127 0
 216 0006 40F20001 		movw	r1, #:lower16:tm_stop
 217              		.loc 1 126 0
 218 000a C0F20002 		movt	r2, #:upper16:tm_start
 219              		.loc 1 127 0
 220 000e C0F20001 		movt	r1, #:upper16:tm_stop
 221              		.loc 1 128 0
 222 0012 8360     		str	r3, [r0, #8]
 223              		.loc 1 129 0
 224 0014 C360     		str	r3, [r0, #12]
 225              		.loc 1 130 0
 226 0016 4FF0FF33 		mov	r3, #-1
ARM GAS  /tmp/cced5PxZ.s 			page 5


 227              		.loc 1 126 0
 228 001a 0260     		str	r2, [r0, #0]
 229              		.loc 1 127 0
 230 001c 4160     		str	r1, [r0, #4]
 231              		.loc 1 130 0
 232 001e 0361     		str	r3, [r0, #16]
 233 0020 7047     		bx	lr
 234              		.cfi_endproc
 235              	.LFE65:
 236              		.size	tmObjectInit, .-tmObjectInit
 237 0022 00BFAFF3 		.section	.bss.measurement_offset,"aw",%nobits
 237      0080AFF3 
 237      0080AFF3 
 237      0080
 238              		.align	2
 239              		.set	.LANCHOR0,. + 0
 240              		.type	measurement_offset, %object
 241              		.size	measurement_offset, 4
 242              	measurement_offset:
 243 0000 00000000 		.space	4
 244              		.text
 245              	.Letext0:
 246              		.file 2 "/home/formica/toolchains/gcc-arm-none-eabi-4_7-2012q4/bin/../lib/gcc/arm-none-eabi/4.7.3/
 247              		.file 3 "/home/formica/chibios/chibios/os/ports/common/ARMCMx/nvic.h"
 248              		.file 4 "/home/formica/chibios/chibios/os/hal/platforms/STM32F1xx/hal_lld.h"
 249              		.file 5 "/home/formica/chibios/chibios/os/hal/include/tm.h"
 250              		.file 6 "/home/formica/chibios/chibios/os/ports/common/ARMCMx/CMSIS/include/core_cm3.h"