ARM GAS  /tmp/ccIGPwpJ.s 			page 1


   1              		.syntax unified
   2              		.cpu cortex-m3
   3              		.fpu softvfp
   4              		.eabi_attribute 20, 1
   5              		.eabi_attribute 21, 1
   6              		.eabi_attribute 23, 3
   7              		.eabi_attribute 24, 1
   8              		.eabi_attribute 25, 1
   9              		.eabi_attribute 26, 1
  10              		.eabi_attribute 30, 2
  11              		.eabi_attribute 34, 1
  12              		.eabi_attribute 18, 4
  13              		.thumb
  14              		.file	"usb.c"
  15              		.text
  16              	.Ltext0:
  17              		.cfi_sections	.debug_frame
  18              		.section	.text.set_address,"ax",%progbits
  19              		.align	2
  20              		.p2align 4,,15
  21              		.thumb
  22              		.thumb_func
  23              		.type	set_address, %function
  24              	set_address:
  25              	.LFB62:
  26              		.file 1 "/home/formica/chibios/chibios/os/hal/src/usb.c"
  27              		.loc 1 69 0
  28              		.cfi_startproc
  29              		@ args = 0, pretend = 0, frame = 0
  30              		@ frame_needed = 0, uses_anonymous_args = 0
  31              	.LVL0:
  32 0000 10B5     		push	{r4, lr}
  33              	.LCFI0:
  34              		.cfi_def_cfa_offset 8
  35              		.cfi_offset 4, -8
  36              		.cfi_offset 14, -4
  37              		.loc 1 71 0
  38 0002 90F84230 		ldrb	r3, [r0, #66]	@ zero_extendqisi2
  39              		.loc 1 69 0
  40 0006 0446     		mov	r4, r0
  41              		.loc 1 71 0
  42 0008 80F84A30 		strb	r3, [r0, #74]
  43              		.loc 1 72 0
  44 000c FFF7FEFF 		bl	usb_lld_set_address
  45              	.LVL1:
  46              		.loc 1 73 0
  47 0010 6068     		ldr	r0, [r4, #4]
  48 0012 0268     		ldr	r2, [r0, #0]
  49 0014 12B1     		cbz	r2, .L2
  50              		.loc 1 73 0 is_stmt 0 discriminator 1
  51 0016 2046     		mov	r0, r4
  52 0018 0121     		movs	r1, #1
  53 001a 9047     		blx	r2
  54              	.LVL2:
  55              	.L2:
  56              		.loc 1 74 0 is_stmt 1
  57 001c 0321     		movs	r1, #3
ARM GAS  /tmp/ccIGPwpJ.s 			page 2


  58 001e 2170     		strb	r1, [r4, #0]
  59 0020 10BD     		pop	{r4, pc}
  60              		.cfi_endproc
  61              	.LFE62:
  62              		.size	set_address, .-set_address
  63              		.section	.text.usbInit,"ax",%progbits
  64              		.align	2
  65              		.p2align 4,,15
  66              		.global	usbInit
  67              		.thumb
  68              		.thumb_func
  69              		.type	usbInit, %function
  70              	usbInit:
  71              	.LFB64:
  72              		.loc 1 235 0
  73              		.cfi_startproc
  74              		@ args = 0, pretend = 0, frame = 0
  75              		@ frame_needed = 0, uses_anonymous_args = 0
  76              		@ link register save eliminated.
  77              		.loc 1 238 0
  78              		.loc 1 237 0
  79 0000 FFF7FEBF 		b	usb_lld_init
  80              	.LVL3:
  81              		.cfi_endproc
  82              	.LFE64:
  83              		.size	usbInit, .-usbInit
  84 0004 AFF30080 		.section	.text.usbObjectInit,"ax",%progbits
  84      AFF30080 
  84      AFF30080 
  85              		.align	2
  86              		.p2align 4,,15
  87              		.global	usbObjectInit
  88              		.thumb
  89              		.thumb_func
  90              		.type	usbObjectInit, %function
  91              	usbObjectInit:
  92              	.LFB65:
  93              		.loc 1 247 0
  94              		.cfi_startproc
  95              		@ args = 0, pretend = 0, frame = 0
  96              		@ frame_needed = 0, uses_anonymous_args = 0
  97              		@ link register save eliminated.
  98              	.LVL4:
  99              		.loc 1 250 0
 100 0000 0023     		movs	r3, #0
 101              		.loc 1 249 0
 102 0002 0122     		movs	r2, #1
 103 0004 0270     		strb	r2, [r0, #0]
 104              		.loc 1 250 0
 105 0006 4360     		str	r3, [r0, #4]
 106              		.loc 1 251 0
 107 0008 8360     		str	r3, [r0, #8]
 108              		.loc 1 252 0
 109 000a 8381     		strh	r3, [r0, #12]	@ movhi
 110              		.loc 1 253 0
 111 000c C381     		strh	r3, [r0, #14]	@ movhi
 112 000e 7047     		bx	lr
ARM GAS  /tmp/ccIGPwpJ.s 			page 3


 113              		.cfi_endproc
 114              	.LFE65:
 115              		.size	usbObjectInit, .-usbObjectInit
 116              		.section	.text.usbStart,"ax",%progbits
 117              		.align	2
 118              		.p2align 4,,15
 119              		.global	usbStart
 120              		.thumb
 121              		.thumb_func
 122              		.type	usbStart, %function
 123              	usbStart:
 124              	.LFB66:
 125              		.loc 1 264 0
 126              		.cfi_startproc
 127              		@ args = 0, pretend = 0, frame = 0
 128              		@ frame_needed = 0, uses_anonymous_args = 0
 129              	.LVL5:
 130 0000 70B5     		push	{r4, r5, r6, lr}
 131              	.LCFI1:
 132              		.cfi_def_cfa_offset 16
 133              		.cfi_offset 4, -16
 134              		.cfi_offset 5, -12
 135              		.cfi_offset 6, -8
 136              		.cfi_offset 14, -4
 137              		.loc 1 267 0
 138 0002 0446     		mov	r4, r0
 139              		.loc 1 264 0
 140 0004 0E46     		mov	r6, r1
 141              		.loc 1 267 0
 142 0006 08B3     		cbz	r0, .L10
 143              		.loc 1 267 0 is_stmt 0 discriminator 2
 144 0008 01B3     		cbz	r1, .L10
 145              	.LVL6:
 146              	.L11:
 147              	.LBB2:
 148              		.loc 1 269 0 is_stmt 1
 149 000a 2023     		movs	r3, #32
 150              	.LVL7:
 151              	@ 269 "/home/formica/chibios/chibios/os/hal/src/usb.c" 1
 152 000c 83F31188 		msr     BASEPRI, r3
 153              	@ 0 "" 2
 154              	.LVL8:
 155              		.thumb
 156              	.LBE2:
 157 0010 FFF7FEFF 		bl	dbg_check_lock
 158              	.LVL9:
 159              		.loc 1 270 0
 160 0014 2378     		ldrb	r3, [r4, #0]	@ zero_extendqisi2
 161 0016 581E     		subs	r0, r3, #1
 162 0018 0128     		cmp	r0, #1
 163 001a 02D9     		bls	.L12
 164              		.loc 1 270 0 is_stmt 0 discriminator 1
 165 001c 0D48     		ldr	r0, .L16
 166 001e FFF7FEFF 		bl	chDbgPanic
 167              	.LVL10:
 168              	.L12:
 169              		.loc 1 274 0 is_stmt 1
ARM GAS  /tmp/ccIGPwpJ.s 			page 4


 170 0022 0025     		movs	r5, #0
 171              		.loc 1 275 0
 172 0024 2046     		mov	r0, r4
 173              		.loc 1 272 0
 174 0026 6660     		str	r6, [r4, #4]
 175              	.LVL11:
 176              		.loc 1 274 0
 177 0028 2561     		str	r5, [r4, #16]
 178              	.LVL12:
 179 002a 6561     		str	r5, [r4, #20]
 180              	.LVL13:
 181 002c A561     		str	r5, [r4, #24]
 182              	.LVL14:
 183 002e E561     		str	r5, [r4, #28]
 184              	.LVL15:
 185 0030 2562     		str	r5, [r4, #32]
 186              	.LVL16:
 187 0032 6562     		str	r5, [r4, #36]
 188              	.LVL17:
 189 0034 A562     		str	r5, [r4, #40]
 190              	.LVL18:
 191 0036 E562     		str	r5, [r4, #44]
 192              	.LVL19:
 193              		.loc 1 275 0
 194 0038 FFF7FEFF 		bl	usb_lld_start
 195              	.LVL20:
 196              		.loc 1 276 0
 197 003c 0221     		movs	r1, #2
 198 003e 2170     		strb	r1, [r4, #0]
 199              		.loc 1 277 0
 200 0040 FFF7FEFF 		bl	dbg_check_unlock
 201              	.LVL21:
 202              	.LBB3:
 203 0044 2B46     		mov	r3, r5
 204              	.LVL22:
 205              	@ 277 "/home/formica/chibios/chibios/os/hal/src/usb.c" 1
 206 0046 83F31188 		msr     BASEPRI, r3
 207              	@ 0 "" 2
 208              	.LVL23:
 209              		.thumb
 210 004a 70BD     		pop	{r4, r5, r6, pc}
 211              	.LVL24:
 212              	.L10:
 213              	.LBE3:
 214              		.loc 1 267 0 discriminator 1
 215 004c 0248     		ldr	r0, .L16+4
 216              	.LVL25:
 217 004e FFF7FEFF 		bl	chDbgPanic
 218              	.LVL26:
 219 0052 DAE7     		b	.L11
 220              	.L17:
 221              		.align	2
 222              	.L16:
 223 0054 10000000 		.word	.LC1
 224 0058 00000000 		.word	.LC0
 225              		.cfi_endproc
 226              	.LFE66:
ARM GAS  /tmp/ccIGPwpJ.s 			page 5


 227              		.size	usbStart, .-usbStart
 228 005c AFF30080 		.section	.text.usbStop,"ax",%progbits
 229              		.align	2
 230              		.p2align 4,,15
 231              		.global	usbStop
 232              		.thumb
 233              		.thumb_func
 234              		.type	usbStop, %function
 235              	usbStop:
 236              	.LFB67:
 237              		.loc 1 287 0
 238              		.cfi_startproc
 239              		@ args = 0, pretend = 0, frame = 0
 240              		@ frame_needed = 0, uses_anonymous_args = 0
 241              	.LVL27:
 242 0000 10B5     		push	{r4, lr}
 243              	.LCFI2:
 244              		.cfi_def_cfa_offset 8
 245              		.cfi_offset 4, -8
 246              		.cfi_offset 14, -4
 247              		.loc 1 289 0
 248 0002 0446     		mov	r4, r0
 249 0004 B0B1     		cbz	r0, .L21
 250              	.LVL28:
 251              	.L19:
 252              	.LBB4:
 253              		.loc 1 291 0
 254 0006 2023     		movs	r3, #32
 255              	.LVL29:
 256              	@ 291 "/home/formica/chibios/chibios/os/hal/src/usb.c" 1
 257 0008 83F31188 		msr     BASEPRI, r3
 258              	@ 0 "" 2
 259              	.LVL30:
 260              		.thumb
 261              	.LBE4:
 262 000c FFF7FEFF 		bl	dbg_check_lock
 263              	.LVL31:
 264              		.loc 1 292 0
 265 0010 2378     		ldrb	r3, [r4, #0]	@ zero_extendqisi2
 266 0012 581E     		subs	r0, r3, #1
 267 0014 0128     		cmp	r0, #1
 268 0016 02D9     		bls	.L20
 269              		.loc 1 292 0 is_stmt 0 discriminator 1
 270 0018 0848     		ldr	r0, .L22
 271 001a FFF7FEFF 		bl	chDbgPanic
 272              	.LVL32:
 273              	.L20:
 274              		.loc 1 294 0 is_stmt 1
 275 001e 2046     		mov	r0, r4
 276 0020 FFF7FEFF 		bl	usb_lld_stop
 277              	.LVL33:
 278              		.loc 1 295 0
 279 0024 0121     		movs	r1, #1
 280 0026 2170     		strb	r1, [r4, #0]
 281              		.loc 1 296 0
 282 0028 FFF7FEFF 		bl	dbg_check_unlock
 283              	.LVL34:
ARM GAS  /tmp/ccIGPwpJ.s 			page 6


 284              	.LBB5:
 285 002c 0023     		movs	r3, #0
 286              	.LVL35:
 287              	@ 296 "/home/formica/chibios/chibios/os/hal/src/usb.c" 1
 288 002e 83F31188 		msr     BASEPRI, r3
 289              	@ 0 "" 2
 290              	.LVL36:
 291              		.thumb
 292 0032 10BD     		pop	{r4, pc}
 293              	.LVL37:
 294              	.L21:
 295              	.LBE5:
 296              		.loc 1 289 0 discriminator 1
 297 0034 0248     		ldr	r0, .L22+4
 298              	.LVL38:
 299 0036 FFF7FEFF 		bl	chDbgPanic
 300              	.LVL39:
 301 003a E4E7     		b	.L19
 302              	.L23:
 303              		.align	2
 304              	.L22:
 305 003c 2C000000 		.word	.LC3
 306 0040 20000000 		.word	.LC2
 307              		.cfi_endproc
 308              	.LFE67:
 309              		.size	usbStop, .-usbStop
 310 0044 AFF30080 		.section	.text.usbInitEndpointI,"ax",%progbits
 310      AFF30080 
 310      AFF30080 
 311              		.align	2
 312              		.p2align 4,,15
 313              		.global	usbInitEndpointI
 314              		.thumb
 315              		.thumb_func
 316              		.type	usbInitEndpointI, %function
 317              	usbInitEndpointI:
 318              	.LFB68:
 319              		.loc 1 313 0
 320              		.cfi_startproc
 321              		@ args = 0, pretend = 0, frame = 0
 322              		@ frame_needed = 0, uses_anonymous_args = 0
 323              	.LVL40:
 324 0000 F8B5     		push	{r3, r4, r5, r6, r7, lr}
 325              	.LCFI3:
 326              		.cfi_def_cfa_offset 24
 327              		.cfi_offset 3, -24
 328              		.cfi_offset 4, -20
 329              		.cfi_offset 5, -16
 330              		.cfi_offset 6, -12
 331              		.cfi_offset 7, -8
 332              		.cfi_offset 14, -4
 333              		.loc 1 313 0
 334 0002 0446     		mov	r4, r0
 335 0004 0E46     		mov	r6, r1
 336 0006 1546     		mov	r5, r2
 337              		.loc 1 315 0
 338 0008 FFF7FEFF 		bl	chDbgCheckClassI
ARM GAS  /tmp/ccIGPwpJ.s 			page 7


 339              	.LVL41:
 340              		.loc 1 316 0
 341 000c 002C     		cmp	r4, #0
 342 000e 38D0     		beq	.L25
 343              		.loc 1 316 0 is_stmt 0 discriminator 2
 344 0010 002D     		cmp	r5, #0
 345 0012 36D0     		beq	.L25
 346              	.L26:
 347              		.loc 1 317 0 is_stmt 1
 348 0014 2378     		ldrb	r3, [r4, #0]	@ zero_extendqisi2
 349 0016 042B     		cmp	r3, #4
 350 0018 02D0     		beq	.L27
 351              		.loc 1 317 0 is_stmt 0 discriminator 1
 352 001a 1C48     		ldr	r0, .L39
 353 001c FFF7FEFF 		bl	chDbgPanic
 354              	.LVL42:
 355              	.L27:
 356              		.loc 1 319 0 is_stmt 1
 357 0020 371D     		adds	r7, r6, #4
 358 0022 54F82700 		ldr	r0, [r4, r7, lsl #2]
 359 0026 10B1     		cbz	r0, .L28
 360              		.loc 1 319 0 is_stmt 0 discriminator 1
 361 0028 1948     		ldr	r0, .L39+4
 362 002a FFF7FEFF 		bl	chDbgPanic
 363              	.LVL43:
 364              	.L28:
 365              		.loc 1 323 0 is_stmt 1
 366 002e 2968     		ldr	r1, [r5, #0]
 367 0030 11F01003 		ands	r3, r1, #16
 368 0034 1DD1     		bne	.L29
 369              		.loc 1 324 0
 370 0036 6869     		ldr	r0, [r5, #20]
 371              		.loc 1 325 0
 372 0038 1946     		mov	r1, r3
 373              		.loc 1 324 0
 374 003a 0246     		mov	r2, r0
 375 003c 02F8013B 		strb	r3, [r2], #1
 376 0040 0132     		adds	r2, r2, #1
 377 0042 4370     		strb	r3, [r0, #1]
 378 0044 02F8013B 		strb	r3, [r2], #1
 379 0048 02F8013B 		strb	r3, [r2], #1
 380 004c 02F8013B 		strb	r3, [r2], #1
 381 0050 02F8013B 		strb	r3, [r2], #1
 382 0054 02F8013B 		strb	r3, [r2], #1
 383 0058 02F8013B 		strb	r3, [r2], #1
 384 005c 02F8013B 		strb	r3, [r2], #1
 385 0060 02F8013B 		strb	r3, [r2], #1
 386 0064 02F8013B 		strb	r3, [r2], #1
 387 0068 1370     		strb	r3, [r2, #0]
 388              		.loc 1 325 0
 389 006a A869     		ldr	r0, [r5, #24]
 390 006c 1022     		movs	r2, #16
 391 006e FFF7FEFF 		bl	memset
 392              	.LVL44:
 393              	.L29:
 394              		.loc 1 330 0
 395 0072 2046     		mov	r0, r4
ARM GAS  /tmp/ccIGPwpJ.s 			page 8


 396 0074 3146     		mov	r1, r6
 397              		.loc 1 327 0
 398 0076 44F82750 		str	r5, [r4, r7, lsl #2]
 399              		.loc 1 331 0
 400 007a BDE8F840 		pop	{r3, r4, r5, r6, r7, lr}
 401              		.loc 1 330 0
 402 007e FFF7FEBF 		b	usb_lld_init_endpoint
 403              	.LVL45:
 404              	.L25:
 405              		.loc 1 316 0 discriminator 1
 406 0082 0448     		ldr	r0, .L39+8
 407 0084 FFF7FEFF 		bl	chDbgPanic
 408              	.LVL46:
 409 0088 C4E7     		b	.L26
 410              	.L40:
 411 008a 00BF     		.align	2
 412              	.L39:
 413 008c 54000000 		.word	.LC5
 414 0090 70000000 		.word	.LC6
 415 0094 3C000000 		.word	.LC4
 416              		.cfi_endproc
 417              	.LFE68:
 418              		.size	usbInitEndpointI, .-usbInitEndpointI
 419 0098 AFF30080 		.section	.text.usbDisableEndpointsI,"ax",%progbits
 419      AFF30080 
 420              		.align	2
 421              		.p2align 4,,15
 422              		.global	usbDisableEndpointsI
 423              		.thumb
 424              		.thumb_func
 425              		.type	usbDisableEndpointsI, %function
 426              	usbDisableEndpointsI:
 427              	.LFB69:
 428              		.loc 1 344 0
 429              		.cfi_startproc
 430              		@ args = 0, pretend = 0, frame = 0
 431              		@ frame_needed = 0, uses_anonymous_args = 0
 432              	.LVL47:
 433 0000 10B5     		push	{r4, lr}
 434              	.LCFI4:
 435              		.cfi_def_cfa_offset 8
 436              		.cfi_offset 4, -8
 437              		.cfi_offset 14, -4
 438              		.loc 1 344 0
 439 0002 0446     		mov	r4, r0
 440              		.loc 1 347 0
 441 0004 FFF7FEFF 		bl	chDbgCheckClassI
 442              	.LVL48:
 443              		.loc 1 348 0
 444 0008 D4B1     		cbz	r4, .L47
 445              	.L42:
 446              		.loc 1 349 0
 447 000a 2378     		ldrb	r3, [r4, #0]	@ zero_extendqisi2
 448 000c 032B     		cmp	r3, #3
 449 000e 02D0     		beq	.L43
 450              		.loc 1 349 0 is_stmt 0 discriminator 1
 451 0010 0D48     		ldr	r0, .L48
ARM GAS  /tmp/ccIGPwpJ.s 			page 9


 452 0012 FFF7FEFF 		bl	chDbgPanic
 453              	.LVL49:
 454              	.L43:
 455              		.loc 1 352 0 is_stmt 1
 456 0016 A189     		ldrh	r1, [r4, #12]
 457              		.loc 1 353 0
 458 0018 E289     		ldrh	r2, [r4, #14]
 459              		.loc 1 355 0
 460 001a 0020     		movs	r0, #0
 461              		.loc 1 352 0
 462 001c 21F00103 		bic	r3, r1, #1
 463              		.loc 1 355 0
 464 0020 6061     		str	r0, [r4, #20]
 465              		.loc 1 353 0
 466 0022 22F00101 		bic	r1, r2, #1
 467              		.loc 1 355 0
 468 0026 A061     		str	r0, [r4, #24]
 469 0028 E061     		str	r0, [r4, #28]
 470 002a 2062     		str	r0, [r4, #32]
 471 002c 6062     		str	r0, [r4, #36]
 472 002e A062     		str	r0, [r4, #40]
 473 0030 E062     		str	r0, [r4, #44]
 474              		.loc 1 358 0
 475 0032 2046     		mov	r0, r4
 476              		.loc 1 352 0
 477 0034 A381     		strh	r3, [r4, #12]	@ movhi
 478              		.loc 1 353 0
 479 0036 E181     		strh	r1, [r4, #14]	@ movhi
 480              	.LVL50:
 481              		.loc 1 359 0
 482 0038 BDE81040 		pop	{r4, lr}
 483              		.loc 1 358 0
 484 003c FFF7FEBF 		b	usb_lld_disable_endpoints
 485              	.LVL51:
 486              	.L47:
 487              		.loc 1 348 0 discriminator 1
 488 0040 0248     		ldr	r0, .L48+4
 489 0042 FFF7FEFF 		bl	chDbgPanic
 490              	.LVL52:
 491 0046 E0E7     		b	.L42
 492              	.L49:
 493              		.align	2
 494              	.L48:
 495 0048 A8000000 		.word	.LC8
 496 004c 8C000000 		.word	.LC7
 497              		.cfi_endproc
 498              	.LFE69:
 499              		.size	usbDisableEndpointsI, .-usbDisableEndpointsI
 500              		.section	.text.usbStartReceiveI,"ax",%progbits
 501              		.align	2
 502              		.p2align 4,,15
 503              		.global	usbStartReceiveI
 504              		.thumb
 505              		.thumb_func
 506              		.type	usbStartReceiveI, %function
 507              	usbStartReceiveI:
 508              	.LFB70:
ARM GAS  /tmp/ccIGPwpJ.s 			page 10


 509              		.loc 1 374 0
 510              		.cfi_startproc
 511              		@ args = 0, pretend = 0, frame = 0
 512              		@ frame_needed = 0, uses_anonymous_args = 0
 513              	.LVL53:
 514 0000 70B5     		push	{r4, r5, r6, lr}
 515              	.LCFI5:
 516              		.cfi_def_cfa_offset 16
 517              		.cfi_offset 4, -16
 518              		.cfi_offset 5, -12
 519              		.cfi_offset 6, -8
 520              		.cfi_offset 14, -4
 521              		.loc 1 374 0
 522 0002 0446     		mov	r4, r0
 523 0004 0D46     		mov	r5, r1
 524              		.loc 1 376 0
 525 0006 FFF7FEFF 		bl	chDbgCheckClassI
 526              	.LVL54:
 527              		.loc 1 377 0
 528 000a 9CB1     		cbz	r4, .L54
 529              	.L51:
 530              		.loc 1 379 0
 531 000c E389     		ldrh	r3, [r4, #14]
 532 000e 43FA05F0 		asr	r0, r3, r5
 533 0012 10F00106 		ands	r6, r0, #1
 534 0016 01D0     		beq	.L55
 535              		.loc 1 380 0
 536 0018 0120     		movs	r0, #1
 537              		.loc 1 385 0
 538 001a 70BD     		pop	{r4, r5, r6, pc}
 539              	.L55:
 540              		.loc 1 382 0
 541 001c 0122     		movs	r2, #1
 542 001e 02FA05F2 		lsl	r2, r2, r5
 543 0022 42EA0301 		orr	r1, r2, r3
 544 0026 E181     		strh	r1, [r4, #14]	@ movhi
 545              		.loc 1 383 0
 546 0028 2046     		mov	r0, r4
 547 002a 2946     		mov	r1, r5
 548 002c FFF7FEFF 		bl	usb_lld_start_out
 549              	.LVL55:
 550              		.loc 1 384 0
 551 0030 3046     		mov	r0, r6
 552 0032 70BD     		pop	{r4, r5, r6, pc}
 553              	.L54:
 554              		.loc 1 377 0 discriminator 1
 555 0034 0148     		ldr	r0, .L56
 556 0036 FFF7FEFF 		bl	chDbgPanic
 557              	.LVL56:
 558 003a E7E7     		b	.L51
 559              	.L57:
 560              		.align	2
 561              	.L56:
 562 003c C4000000 		.word	.LC9
 563              		.cfi_endproc
 564              	.LFE70:
 565              		.size	usbStartReceiveI, .-usbStartReceiveI
ARM GAS  /tmp/ccIGPwpJ.s 			page 11


 566              		.section	.text.usbStartTransmitI,"ax",%progbits
 567              		.align	2
 568              		.p2align 4,,15
 569              		.global	usbStartTransmitI
 570              		.thumb
 571              		.thumb_func
 572              		.type	usbStartTransmitI, %function
 573              	usbStartTransmitI:
 574              	.LFB71:
 575              		.loc 1 400 0
 576              		.cfi_startproc
 577              		@ args = 0, pretend = 0, frame = 0
 578              		@ frame_needed = 0, uses_anonymous_args = 0
 579              	.LVL57:
 580 0000 70B5     		push	{r4, r5, r6, lr}
 581              	.LCFI6:
 582              		.cfi_def_cfa_offset 16
 583              		.cfi_offset 4, -16
 584              		.cfi_offset 5, -12
 585              		.cfi_offset 6, -8
 586              		.cfi_offset 14, -4
 587              		.loc 1 400 0
 588 0002 0446     		mov	r4, r0
 589 0004 0D46     		mov	r5, r1
 590              		.loc 1 402 0
 591 0006 FFF7FEFF 		bl	chDbgCheckClassI
 592              	.LVL58:
 593              		.loc 1 403 0
 594 000a 9CB1     		cbz	r4, .L62
 595              	.L59:
 596              		.loc 1 405 0
 597 000c A389     		ldrh	r3, [r4, #12]
 598 000e 43FA05F0 		asr	r0, r3, r5
 599 0012 10F00106 		ands	r6, r0, #1
 600 0016 01D0     		beq	.L63
 601              		.loc 1 406 0
 602 0018 0120     		movs	r0, #1
 603              		.loc 1 411 0
 604 001a 70BD     		pop	{r4, r5, r6, pc}
 605              	.L63:
 606              		.loc 1 408 0
 607 001c 0122     		movs	r2, #1
 608 001e 02FA05F2 		lsl	r2, r2, r5
 609 0022 42EA0301 		orr	r1, r2, r3
 610 0026 A181     		strh	r1, [r4, #12]	@ movhi
 611              		.loc 1 409 0
 612 0028 2046     		mov	r0, r4
 613 002a 2946     		mov	r1, r5
 614 002c FFF7FEFF 		bl	usb_lld_start_in
 615              	.LVL59:
 616              		.loc 1 410 0
 617 0030 3046     		mov	r0, r6
 618 0032 70BD     		pop	{r4, r5, r6, pc}
 619              	.L62:
 620              		.loc 1 403 0 discriminator 1
 621 0034 0148     		ldr	r0, .L64
 622 0036 FFF7FEFF 		bl	chDbgPanic
ARM GAS  /tmp/ccIGPwpJ.s 			page 12


 623              	.LVL60:
 624 003a E7E7     		b	.L59
 625              	.L65:
 626              		.align	2
 627              	.L64:
 628 003c DC000000 		.word	.LC10
 629              		.cfi_endproc
 630              	.LFE71:
 631              		.size	usbStartTransmitI, .-usbStartTransmitI
 632              		.section	.text.usbStallReceiveI,"ax",%progbits
 633              		.align	2
 634              		.p2align 4,,15
 635              		.global	usbStallReceiveI
 636              		.thumb
 637              		.thumb_func
 638              		.type	usbStallReceiveI, %function
 639              	usbStallReceiveI:
 640              	.LFB72:
 641              		.loc 1 424 0
 642              		.cfi_startproc
 643              		@ args = 0, pretend = 0, frame = 0
 644              		@ frame_needed = 0, uses_anonymous_args = 0
 645              	.LVL61:
 646 0000 70B5     		push	{r4, r5, r6, lr}
 647              	.LCFI7:
 648              		.cfi_def_cfa_offset 16
 649              		.cfi_offset 4, -16
 650              		.cfi_offset 5, -12
 651              		.cfi_offset 6, -8
 652              		.cfi_offset 14, -4
 653              		.loc 1 424 0
 654 0002 0446     		mov	r4, r0
 655 0004 0D46     		mov	r5, r1
 656              		.loc 1 426 0
 657 0006 FFF7FEFF 		bl	chDbgCheckClassI
 658              	.LVL62:
 659              		.loc 1 427 0
 660 000a 6CB1     		cbz	r4, .L70
 661              	.L67:
 662              		.loc 1 429 0
 663 000c E089     		ldrh	r0, [r4, #14]
 664 000e 40FA05F0 		asr	r0, r0, r5
 665 0012 10F00106 		ands	r6, r0, #1
 666 0016 01D0     		beq	.L71
 667              		.loc 1 430 0
 668 0018 0120     		movs	r0, #1
 669              		.loc 1 434 0
 670 001a 70BD     		pop	{r4, r5, r6, pc}
 671              	.L71:
 672              		.loc 1 432 0
 673 001c 2046     		mov	r0, r4
 674 001e 2946     		mov	r1, r5
 675 0020 FFF7FEFF 		bl	usb_lld_stall_out
 676              	.LVL63:
 677              		.loc 1 433 0
 678 0024 3046     		mov	r0, r6
 679 0026 70BD     		pop	{r4, r5, r6, pc}
ARM GAS  /tmp/ccIGPwpJ.s 			page 13


 680              	.L70:
 681              		.loc 1 427 0 discriminator 1
 682 0028 0148     		ldr	r0, .L72
 683 002a FFF7FEFF 		bl	chDbgPanic
 684              	.LVL64:
 685 002e EDE7     		b	.L67
 686              	.L73:
 687              		.align	2
 688              	.L72:
 689 0030 F4000000 		.word	.LC11
 690              		.cfi_endproc
 691              	.LFE72:
 692              		.size	usbStallReceiveI, .-usbStallReceiveI
 693 0034 AFF30080 		.section	.text.usbStallTransmitI,"ax",%progbits
 693      AFF30080 
 693      AFF30080 
 694              		.align	2
 695              		.p2align 4,,15
 696              		.global	usbStallTransmitI
 697              		.thumb
 698              		.thumb_func
 699              		.type	usbStallTransmitI, %function
 700              	usbStallTransmitI:
 701              	.LFB73:
 702              		.loc 1 447 0
 703              		.cfi_startproc
 704              		@ args = 0, pretend = 0, frame = 0
 705              		@ frame_needed = 0, uses_anonymous_args = 0
 706              	.LVL65:
 707 0000 70B5     		push	{r4, r5, r6, lr}
 708              	.LCFI8:
 709              		.cfi_def_cfa_offset 16
 710              		.cfi_offset 4, -16
 711              		.cfi_offset 5, -12
 712              		.cfi_offset 6, -8
 713              		.cfi_offset 14, -4
 714              		.loc 1 447 0
 715 0002 0446     		mov	r4, r0
 716 0004 0D46     		mov	r5, r1
 717              		.loc 1 449 0
 718 0006 FFF7FEFF 		bl	chDbgCheckClassI
 719              	.LVL66:
 720              		.loc 1 450 0
 721 000a 6CB1     		cbz	r4, .L78
 722              	.L75:
 723              		.loc 1 452 0
 724 000c A089     		ldrh	r0, [r4, #12]
 725 000e 40FA05F0 		asr	r0, r0, r5
 726 0012 10F00106 		ands	r6, r0, #1
 727 0016 01D0     		beq	.L79
 728              		.loc 1 453 0
 729 0018 0120     		movs	r0, #1
 730              		.loc 1 457 0
 731 001a 70BD     		pop	{r4, r5, r6, pc}
 732              	.L79:
 733              		.loc 1 455 0
 734 001c 2046     		mov	r0, r4
ARM GAS  /tmp/ccIGPwpJ.s 			page 14


 735 001e 2946     		mov	r1, r5
 736 0020 FFF7FEFF 		bl	usb_lld_stall_in
 737              	.LVL67:
 738              		.loc 1 456 0
 739 0024 3046     		mov	r0, r6
 740 0026 70BD     		pop	{r4, r5, r6, pc}
 741              	.L78:
 742              		.loc 1 450 0 discriminator 1
 743 0028 0148     		ldr	r0, .L80
 744 002a FFF7FEFF 		bl	chDbgPanic
 745              	.LVL68:
 746 002e EDE7     		b	.L75
 747              	.L81:
 748              		.align	2
 749              	.L80:
 750 0030 0C010000 		.word	.LC12
 751              		.cfi_endproc
 752              	.LFE73:
 753              		.size	usbStallTransmitI, .-usbStallTransmitI
 754 0034 AFF30080 		.section	.text._usb_reset,"ax",%progbits
 754      AFF30080 
 754      AFF30080 
 755              		.align	2
 756              		.p2align 4,,15
 757              		.global	_usb_reset
 758              		.thumb
 759              		.thumb_func
 760              		.type	_usb_reset, %function
 761              	_usb_reset:
 762              	.LFB74:
 763              		.loc 1 468 0
 764              		.cfi_startproc
 765              		@ args = 0, pretend = 0, frame = 0
 766              		@ frame_needed = 0, uses_anonymous_args = 0
 767              		@ link register save eliminated.
 768              	.LVL69:
 769 0000 10B4     		push	{r4}
 770              	.LCFI9:
 771              		.cfi_def_cfa_offset 4
 772              		.cfi_offset 4, -4
 773              		.loc 1 472 0
 774 0002 0022     		movs	r2, #0
 775              		.loc 1 468 0
 776 0004 0346     		mov	r3, r0
 777              		.loc 1 471 0
 778 0006 0224     		movs	r4, #2
 779 0008 0470     		strb	r4, [r0, #0]
 780              		.loc 1 472 0
 781 000a A0F84820 		strh	r2, [r0, #72]	@ movhi
 782              		.loc 1 473 0
 783 000e 83F84A20 		strb	r2, [r3, #74]
 784              		.loc 1 474 0
 785 0012 80F84B20 		strb	r2, [r0, #75]
 786              		.loc 1 475 0
 787 0016 8281     		strh	r2, [r0, #12]	@ movhi
 788              		.loc 1 476 0
 789 0018 C281     		strh	r2, [r0, #14]	@ movhi
ARM GAS  /tmp/ccIGPwpJ.s 			page 15


 790              	.LVL70:
 791              		.loc 1 480 0
 792 001a 0261     		str	r2, [r0, #16]
 793              	.LVL71:
 794 001c 4261     		str	r2, [r0, #20]
 795              	.LVL72:
 796 001e 8261     		str	r2, [r0, #24]
 797              	.LVL73:
 798 0020 C261     		str	r2, [r0, #28]
 799              	.LVL74:
 800 0022 0262     		str	r2, [r0, #32]
 801              	.LVL75:
 802 0024 4262     		str	r2, [r0, #36]
 803              	.LVL76:
 804 0026 8262     		str	r2, [r0, #40]
 805              	.LVL77:
 806 0028 C262     		str	r2, [r0, #44]
 807              	.LVL78:
 808              		.loc 1 483 0
 809 002a 83F83020 		strb	r2, [r3, #48]
 810              		.loc 1 487 0
 811 002e 10BC     		pop	{r4}
 812              		.loc 1 486 0
 813 0030 FFF7FEBF 		b	usb_lld_reset
 814              	.LVL79:
 815              		.cfi_endproc
 816              	.LFE74:
 817              		.size	_usb_reset, .-_usb_reset
 818              		.section	.text._usb_ep0setup,"ax",%progbits
 819              		.align	2
 820              		.p2align 4,,15
 821              		.global	_usb_ep0setup
 822              		.thumb
 823              		.thumb_func
 824              		.type	_usb_ep0setup, %function
 825              	_usb_ep0setup:
 826              	.LFB75:
 827              		.loc 1 499 0
 828              		.cfi_startproc
 829              		@ args = 0, pretend = 0, frame = 0
 830              		@ frame_needed = 0, uses_anonymous_args = 0
 831              	.LVL80:
 832 0000 F8B5     		push	{r3, r4, r5, r6, r7, lr}
 833              	.LCFI10:
 834              		.cfi_def_cfa_offset 24
 835              		.cfi_offset 3, -24
 836              		.cfi_offset 4, -20
 837              		.cfi_offset 5, -16
 838              		.cfi_offset 6, -12
 839              		.cfi_offset 7, -8
 840              		.cfi_offset 14, -4
 841              		.loc 1 502 0
 842 0002 0023     		movs	r3, #0
 843              		.loc 1 499 0
 844 0004 0446     		mov	r4, r0
 845              		.loc 1 502 0
 846 0006 80F83030 		strb	r3, [r0, #48]
ARM GAS  /tmp/ccIGPwpJ.s 			page 16


 847              		.loc 1 503 0
 848 000a 00F14002 		add	r2, r0, #64
 849 000e FFF7FEFF 		bl	usb_lld_read_setup
 850              	.LVL81:
 851              		.loc 1 507 0
 852 0012 6068     		ldr	r0, [r4, #4]
 853 0014 8168     		ldr	r1, [r0, #8]
 854 0016 0029     		cmp	r1, #0
 855 0018 1ED0     		beq	.L87
 856              		.loc 1 508 0 discriminator 1
 857 001a 2046     		mov	r0, r4
 858 001c 8847     		blx	r1
 859              	.LVL82:
 860              		.loc 1 507 0 discriminator 1
 861 001e D8B1     		cbz	r0, .L87
 862 0020 A56B     		ldr	r5, [r4, #56]
 863 0022 94F84030 		ldrb	r3, [r4, #64]	@ zero_extendqisi2
 864              	.L125:
 865              		.loc 1 527 0
 866 0026 B4F84610 		ldrh	r1, [r4, #70]
 867              	.LVL83:
 868              		.loc 1 529 0
 869 002a A942     		cmp	r1, r5
 870              		.loc 1 530 0
 871 002c 3CBF     		itt	cc
 872 002e A163     		strcc	r1, [r4, #56]
 873 0030 0D46     		movcc	r5, r1
 874              		.loc 1 531 0
 875 0032 1B06     		lsls	r3, r3, #24
 876 0034 77D4     		bmi	.L152
 877              		.loc 1 549 0
 878 0036 002D     		cmp	r5, #0
 879 0038 66D1     		bne	.L153
 880              		.loc 1 558 0
 881 003a 0423     		movs	r3, #4
 882 003c 84F83030 		strb	r3, [r4, #48]
 883              		.loc 1 559 0
 884 0040 2046     		mov	r0, r4
 885 0042 2946     		mov	r1, r5
 886              	.LVL84:
 887 0044 2A46     		mov	r2, r5
 888 0046 2B46     		mov	r3, r5
 889 0048 FFF7FEFF 		bl	usb_lld_prepare_transmit
 890              	.LVL85:
 891              		.loc 1 560 0
 892 004c 2046     		mov	r0, r4
 893 004e 2946     		mov	r1, r5
 894              		.loc 1 563 0
 895 0050 BDE8F840 		pop	{r3, r4, r5, r6, r7, lr}
 896              		.loc 1 560 0
 897 0054 FFF7FEBF 		b	usb_lld_start_in
 898              	.LVL86:
 899              	.L87:
 900              		.loc 1 511 0
 901 0058 94F84030 		ldrb	r3, [r4, #64]	@ zero_extendqisi2
 902 005c 13F06007 		ands	r7, r3, #96
 903 0060 11D0     		beq	.L154
ARM GAS  /tmp/ccIGPwpJ.s 			page 17


 904              	.L85:
 905              		.loc 1 516 0
 906 0062 0021     		movs	r1, #0
 907 0064 2046     		mov	r0, r4
 908 0066 FFF7FEFF 		bl	usb_lld_stall_in
 909              	.LVL87:
 910              		.loc 1 517 0
 911 006a 0021     		movs	r1, #0
 912 006c 2046     		mov	r0, r4
 913 006e FFF7FEFF 		bl	usb_lld_stall_out
 914              	.LVL88:
 915              		.loc 1 518 0
 916 0072 6168     		ldr	r1, [r4, #4]
 917 0074 0A68     		ldr	r2, [r1, #0]
 918 0076 12B1     		cbz	r2, .L119
 919              		.loc 1 518 0 is_stmt 0 discriminator 1
 920 0078 2046     		mov	r0, r4
 921 007a 0521     		movs	r1, #5
 922 007c 9047     		blx	r2
 923              	.LVL89:
 924              	.L119:
 925              		.loc 1 519 0 is_stmt 1
 926 007e 0520     		movs	r0, #5
 927 0080 84F83000 		strb	r0, [r4, #48]
 928              		.loc 1 520 0
 929 0084 F8BD     		pop	{r3, r4, r5, r6, r7, pc}
 930              	.L154:
 931              	.LVL90:
 932              	.LBB8:
 933              	.LBB9:
 934              		.loc 1 95 0
 935 0086 94F84160 		ldrb	r6, [r4, #65]	@ zero_extendqisi2
 936              		.loc 1 93 0
 937 008a 03F07F02 		and	r2, r3, #127
 938              		.loc 1 94 0
 939 008e 42EA0626 		orr	r6, r2, r6, lsl #8
 940              		.loc 1 93 0
 941 0092 B6F5407F 		cmp	r6, #768
 942 0096 00F0A680 		beq	.L95
 943 009a 16DD     		ble	.L155
 944 009c B6F5C06F 		cmp	r6, #1536
 945 00a0 00F0CB80 		beq	.L98
 946 00a4 5EDD     		ble	.L156
 947 00a6 B6F5106F 		cmp	r6, #2304
 948 00aa 00F0B380 		beq	.L100
 949 00ae 40F60240 		movw	r0, #3074
 950 00b2 8642     		cmp	r6, r0
 951 00b4 69D0     		beq	.L91
 952 00b6 B6F5006F 		cmp	r6, #2048
 953 00ba D2D1     		bne	.L85
 954              		.loc 1 142 0
 955 00bc 0125     		movs	r5, #1
 956 00be 04F14B01 		add	r1, r4, #75
 957 00c2 6163     		str	r1, [r4, #52]
 958 00c4 A563     		str	r5, [r4, #56]
 959 00c6 E763     		str	r7, [r4, #60]
 960 00c8 ADE7     		b	.L125
ARM GAS  /tmp/ccIGPwpJ.s 			page 18


 961              	.L155:
 962              		.loc 1 93 0
 963 00ca 022E     		cmp	r6, #2
 964 00cc 74D0     		beq	.L92
 965 00ce 57DD     		ble	.L157
 966 00d0 B6F5807F 		cmp	r6, #256
 967 00d4 60D0     		beq	.L93
 968 00d6 B6F5817F 		cmp	r6, #258
 969 00da C2D1     		bne	.L85
 970              		.loc 1 188 0
 971 00dc 94F84210 		ldrb	r1, [r4, #66]	@ zero_extendqisi2
 972 00e0 0029     		cmp	r1, #0
 973 00e2 BED1     		bne	.L85
 974              		.loc 1 191 0
 975 00e4 94F84450 		ldrb	r5, [r4, #68]	@ zero_extendqisi2
 976 00e8 15F00F01 		ands	r1, r5, #15
 977 00ec 07D0     		beq	.L117
 978              		.loc 1 192 0
 979 00ee 2D06     		lsls	r5, r5, #24
 980              		.loc 1 193 0
 981 00f0 2046     		mov	r0, r4
 982              		.loc 1 192 0
 983 00f2 00F1D980 		bmi	.L158
 984              	.LVL91:
 985              		.loc 1 195 0
 986 00f6 FFF7FEFF 		bl	usb_lld_clear_out
 987              	.LVL92:
 988 00fa 94F84030 		ldrb	r3, [r4, #64]	@ zero_extendqisi2
 989              	.L117:
 990              		.loc 1 210 0
 991 00fe 0025     		movs	r5, #0
 992 0100 6563     		str	r5, [r4, #52]
 993 0102 A563     		str	r5, [r4, #56]
 994 0104 E563     		str	r5, [r4, #60]
 995 0106 8EE7     		b	.L125
 996              	.LVL93:
 997              	.L153:
 998              	.LBE9:
 999              	.LBE8:
 1000              		.loc 1 551 0
 1001 0108 0322     		movs	r2, #3
 1002              		.loc 1 552 0
 1003 010a 0021     		movs	r1, #0
 1004              	.LVL94:
 1005              		.loc 1 551 0
 1006 010c 84F83020 		strb	r2, [r4, #48]
 1007              		.loc 1 552 0
 1008 0110 2046     		mov	r0, r4
 1009 0112 626B     		ldr	r2, [r4, #52]
 1010 0114 2B46     		mov	r3, r5
 1011 0116 FFF7FEFF 		bl	usb_lld_prepare_receive
 1012              	.LVL95:
 1013              		.loc 1 553 0
 1014 011a 2046     		mov	r0, r4
 1015 011c 0021     		movs	r1, #0
 1016              		.loc 1 563 0
 1017 011e BDE8F840 		pop	{r3, r4, r5, r6, r7, lr}
ARM GAS  /tmp/ccIGPwpJ.s 			page 19


 1018              		.loc 1 553 0
 1019 0122 FFF7FEBF 		b	usb_lld_start_out
 1020              	.LVL96:
 1021              	.L152:
 1022              		.loc 1 533 0
 1023 0126 75B1     		cbz	r5, .L123
 1024              		.loc 1 535 0
 1025 0128 0123     		movs	r3, #1
 1026              		.loc 1 536 0
 1027 012a 0021     		movs	r1, #0
 1028              	.LVL97:
 1029              		.loc 1 535 0
 1030 012c 84F83030 		strb	r3, [r4, #48]
 1031              		.loc 1 536 0
 1032 0130 2046     		mov	r0, r4
 1033 0132 626B     		ldr	r2, [r4, #52]
 1034 0134 2B46     		mov	r3, r5
 1035 0136 FFF7FEFF 		bl	usb_lld_prepare_transmit
 1036              	.LVL98:
 1037              		.loc 1 537 0
 1038 013a 2046     		mov	r0, r4
 1039 013c 0021     		movs	r1, #0
 1040              		.loc 1 563 0
 1041 013e BDE8F840 		pop	{r3, r4, r5, r6, r7, lr}
 1042              		.loc 1 537 0
 1043 0142 FFF7FEBF 		b	usb_lld_start_in
 1044              	.LVL99:
 1045              	.L123:
 1046              		.loc 1 542 0
 1047 0146 0220     		movs	r0, #2
 1048 0148 84F83000 		strb	r0, [r4, #48]
 1049              		.loc 1 543 0
 1050 014c 2946     		mov	r1, r5
 1051              	.LVL100:
 1052 014e 2046     		mov	r0, r4
 1053 0150 2A46     		mov	r2, r5
 1054 0152 2B46     		mov	r3, r5
 1055 0154 FFF7FEFF 		bl	usb_lld_prepare_receive
 1056              	.LVL101:
 1057              		.loc 1 544 0
 1058 0158 2046     		mov	r0, r4
 1059 015a 2946     		mov	r1, r5
 1060              		.loc 1 563 0
 1061 015c BDE8F840 		pop	{r3, r4, r5, r6, r7, lr}
 1062              		.loc 1 544 0
 1063 0160 FFF7FEBF 		b	usb_lld_start_out
 1064              	.LVL102:
 1065              	.L156:
 1066              	.LBB11:
 1067              	.LBB10:
 1068              		.loc 1 93 0
 1069 0164 40F20230 		movw	r0, #770
 1070 0168 8642     		cmp	r6, r0
 1071 016a 7BD0     		beq	.L96
 1072 016c B6F5A06F 		cmp	r6, #1280
 1073 0170 7FF477AF 		bne	.L85
 1074              		.loc 1 128 0
ARM GAS  /tmp/ccIGPwpJ.s 			page 20


 1075 0174 5149     		ldr	r1, .L161
 1076 0176 6763     		str	r7, [r4, #52]
 1077 0178 A763     		str	r7, [r4, #56]
 1078 017a E163     		str	r1, [r4, #60]
 1079 017c 3D46     		mov	r5, r7
 1080 017e 52E7     		b	.L125
 1081              	.L157:
 1082              		.loc 1 93 0
 1083 0180 002E     		cmp	r6, #0
 1084 0182 40D0     		beq	.L90
 1085 0184 012E     		cmp	r6, #1
 1086 0186 7FF46CAF 		bne	.L85
 1087              	.L91:
 1088              		.loc 1 158 0
 1089 018a 4D4A     		ldr	r2, .L161+4
 1090 018c 0225     		movs	r5, #2
 1091 018e 0020     		movs	r0, #0
 1092 0190 6263     		str	r2, [r4, #52]
 1093 0192 A563     		str	r5, [r4, #56]
 1094 0194 E063     		str	r0, [r4, #60]
 1095 0196 46E7     		b	.L125
 1096              	.L93:
 1097              		.loc 1 103 0
 1098 0198 94F84220 		ldrb	r2, [r4, #66]	@ zero_extendqisi2
 1099 019c 012A     		cmp	r2, #1
 1100 019e 7FF460AF 		bne	.L85
 1101              		.loc 1 104 0
 1102 01a2 B4F84800 		ldrh	r0, [r4, #72]
 1103              		.loc 1 105 0
 1104 01a6 6763     		str	r7, [r4, #52]
 1105              		.loc 1 104 0
 1106 01a8 20F00201 		bic	r1, r0, #2
 1107 01ac A4F84810 		strh	r1, [r4, #72]	@ movhi
 1108              		.loc 1 105 0
 1109 01b0 A763     		str	r7, [r4, #56]
 1110 01b2 E763     		str	r7, [r4, #60]
 1111 01b4 3D46     		mov	r5, r7
 1112 01b6 36E7     		b	.L125
 1113              	.L92:
 1114              		.loc 1 162 0
 1115 01b8 94F84430 		ldrb	r3, [r4, #68]	@ zero_extendqisi2
 1116              		.loc 1 163 0
 1117 01bc 2046     		mov	r0, r4
 1118              		.loc 1 162 0
 1119 01be 13F0800F 		tst	r3, #128
 1120              		.loc 1 163 0
 1121 01c2 03F00F01 		and	r1, r3, #15
 1122              		.loc 1 162 0
 1123 01c6 63D1     		bne	.L159
 1124              	.LVL103:
 1125              		.loc 1 175 0
 1126 01c8 FFF7FEFF 		bl	usb_lld_get_status_out
 1127              	.LVL104:
 1128 01cc 0128     		cmp	r0, #1
 1129 01ce 63D0     		beq	.L113
 1130              	.L151:
 1131 01d0 0228     		cmp	r0, #2
ARM GAS  /tmp/ccIGPwpJ.s 			page 21


 1132 01d2 7FF446AF 		bne	.L85
 1133              		.loc 1 180 0
 1134 01d6 3B4D     		ldr	r5, .L161+8
 1135 01d8 A063     		str	r0, [r4, #56]
 1136 01da 6563     		str	r5, [r4, #52]
 1137 01dc E763     		str	r7, [r4, #60]
 1138 01de 94F84030 		ldrb	r3, [r4, #64]	@ zero_extendqisi2
 1139 01e2 0546     		mov	r5, r0
 1140 01e4 1FE7     		b	.L125
 1141              	.L95:
 1142              		.loc 1 112 0
 1143 01e6 94F84220 		ldrb	r2, [r4, #66]	@ zero_extendqisi2
 1144 01ea 012A     		cmp	r2, #1
 1145 01ec 7FF439AF 		bne	.L85
 1146              		.loc 1 113 0
 1147 01f0 B4F84800 		ldrh	r0, [r4, #72]
 1148              		.loc 1 114 0
 1149 01f4 6763     		str	r7, [r4, #52]
 1150              		.loc 1 113 0
 1151 01f6 40F00205 		orr	r5, r0, #2
 1152 01fa A4F84850 		strh	r5, [r4, #72]	@ movhi
 1153              		.loc 1 114 0
 1154 01fe A763     		str	r7, [r4, #56]
 1155 0200 E763     		str	r7, [r4, #60]
 1156 0202 3D46     		mov	r5, r7
 1157 0204 0FE7     		b	.L125
 1158              	.L90:
 1159              		.loc 1 98 0
 1160 0206 0225     		movs	r5, #2
 1161 0208 04F14800 		add	r0, r4, #72
 1162 020c 6063     		str	r0, [r4, #52]
 1163 020e A563     		str	r5, [r4, #56]
 1164 0210 E663     		str	r6, [r4, #60]
 1165 0212 08E7     		b	.L125
 1166              	.L100:
 1167              		.loc 1 146 0
 1168 0214 94F84250 		ldrb	r5, [r4, #66]	@ zero_extendqisi2
 1169 0218 84F84B50 		strb	r5, [r4, #75]
 1170              		.loc 1 147 0
 1171 021c 002D     		cmp	r5, #0
 1172 021e 34D1     		bne	.L107
 1173              		.loc 1 148 0
 1174 0220 0322     		movs	r2, #3
 1175 0222 2270     		strb	r2, [r4, #0]
 1176              	.L108:
 1177              		.loc 1 151 0
 1178 0224 6068     		ldr	r0, [r4, #4]
 1179 0226 0568     		ldr	r5, [r0, #0]
 1180 0228 002D     		cmp	r5, #0
 1181 022a 3FF468AF 		beq	.L117
 1182 022e 2046     		mov	r0, r4
 1183 0230 0221     		movs	r1, #2
 1184 0232 A847     		blx	r5
 1185              	.LVL105:
 1186 0234 94F84030 		ldrb	r3, [r4, #64]	@ zero_extendqisi2
 1187 0238 61E7     		b	.L117
 1188              	.L98:
ARM GAS  /tmp/ccIGPwpJ.s 			page 22


 1189              		.loc 1 133 0
 1190 023a 6368     		ldr	r3, [r4, #4]
 1191 023c 2046     		mov	r0, r4
 1192 023e 5D68     		ldr	r5, [r3, #4]
 1193 0240 94F84310 		ldrb	r1, [r4, #67]	@ zero_extendqisi2
 1194 0244 94F84220 		ldrb	r2, [r4, #66]	@ zero_extendqisi2
 1195 0248 B4F84430 		ldrh	r3, [r4, #68]
 1196 024c A847     		blx	r5
 1197              	.LVL106:
 1198              		.loc 1 136 0
 1199 024e 0028     		cmp	r0, #0
 1200 0250 3FF407AF 		beq	.L85
 1201              		.loc 1 138 0
 1202 0254 4168     		ldr	r1, [r0, #4]
 1203 0256 0568     		ldr	r5, [r0, #0]
 1204 0258 94F84030 		ldrb	r3, [r4, #64]	@ zero_extendqisi2
 1205 025c 6163     		str	r1, [r4, #52]
 1206 025e A563     		str	r5, [r4, #56]
 1207 0260 E763     		str	r7, [r4, #60]
 1208 0262 E0E6     		b	.L125
 1209              	.LVL107:
 1210              	.L96:
 1211              		.loc 1 201 0
 1212 0264 94F84220 		ldrb	r2, [r4, #66]	@ zero_extendqisi2
 1213 0268 002A     		cmp	r2, #0
 1214 026a 7FF4FAAE 		bne	.L85
 1215              		.loc 1 204 0
 1216 026e 94F84450 		ldrb	r5, [r4, #68]	@ zero_extendqisi2
 1217 0272 15F00F01 		ands	r1, r5, #15
 1218 0276 3FF442AF 		beq	.L117
 1219              		.loc 1 205 0
 1220 027a 2A06     		lsls	r2, r5, #24
 1221              		.loc 1 206 0
 1222 027c 2046     		mov	r0, r4
 1223              		.loc 1 205 0
 1224 027e 18D4     		bmi	.L160
 1225              	.LVL108:
 1226              		.loc 1 208 0
 1227 0280 FFF7FEFF 		bl	usb_lld_stall_out
 1228              	.LVL109:
 1229 0284 94F84030 		ldrb	r3, [r4, #64]	@ zero_extendqisi2
 1230 0288 39E7     		b	.L117
 1231              	.L107:
 1232              		.loc 1 150 0
 1233 028a 0421     		movs	r1, #4
 1234 028c 2170     		strb	r1, [r4, #0]
 1235 028e C9E7     		b	.L108
 1236              	.LVL110:
 1237              	.L159:
 1238              		.loc 1 163 0
 1239 0290 FFF7FEFF 		bl	usb_lld_get_status_in
 1240              	.LVL111:
 1241 0294 0128     		cmp	r0, #1
 1242 0296 9BD1     		bne	.L151
 1243              	.L113:
 1244              		.loc 1 177 0
 1245 0298 0B4A     		ldr	r2, .L161+12
ARM GAS  /tmp/ccIGPwpJ.s 			page 23


 1246 029a A663     		str	r6, [r4, #56]
 1247 029c 6263     		str	r2, [r4, #52]
 1248 029e E763     		str	r7, [r4, #60]
 1249 02a0 94F84030 		ldrb	r3, [r4, #64]	@ zero_extendqisi2
 1250 02a4 3546     		mov	r5, r6
 1251 02a6 BEE6     		b	.L125
 1252              	.LVL112:
 1253              	.L158:
 1254              		.loc 1 193 0
 1255 02a8 FFF7FEFF 		bl	usb_lld_clear_in
 1256              	.LVL113:
 1257 02ac 94F84030 		ldrb	r3, [r4, #64]	@ zero_extendqisi2
 1258 02b0 25E7     		b	.L117
 1259              	.LVL114:
 1260              	.L160:
 1261              		.loc 1 206 0
 1262 02b2 FFF7FEFF 		bl	usb_lld_stall_in
 1263              	.LVL115:
 1264 02b6 94F84030 		ldrb	r3, [r4, #64]	@ zero_extendqisi2
 1265 02ba 20E7     		b	.L117
 1266              	.L162:
 1267              		.align	2
 1268              	.L161:
 1269 02bc 00000000 		.word	set_address
 1270 02c0 00000000 		.word	.LANCHOR0
 1271 02c4 00000000 		.word	.LANCHOR2
 1272 02c8 00000000 		.word	.LANCHOR1
 1273              	.LBE10:
 1274              	.LBE11:
 1275              		.cfi_endproc
 1276              	.LFE75:
 1277              		.size	_usb_ep0setup, .-_usb_ep0setup
 1278 02cc AFF30080 		.section	.text._usb_ep0in,"ax",%progbits
 1279              		.align	2
 1280              		.p2align 4,,15
 1281              		.global	_usb_ep0in
 1282              		.thumb
 1283              		.thumb_func
 1284              		.type	_usb_ep0in, %function
 1285              	_usb_ep0in:
 1286              	.LFB76:
 1287              		.loc 1 575 0
 1288              		.cfi_startproc
 1289              		@ args = 0, pretend = 0, frame = 0
 1290              		@ frame_needed = 0, uses_anonymous_args = 0
 1291              	.LVL116:
 1292 0000 38B5     		push	{r3, r4, r5, lr}
 1293              	.LCFI11:
 1294              		.cfi_def_cfa_offset 16
 1295              		.cfi_offset 3, -16
 1296              		.cfi_offset 4, -12
 1297              		.cfi_offset 5, -8
 1298              		.cfi_offset 14, -4
 1299              		.loc 1 579 0
 1300 0002 90F83030 		ldrb	r3, [r0, #48]	@ zero_extendqisi2
 1301              		.loc 1 575 0
 1302 0006 0446     		mov	r4, r0
ARM GAS  /tmp/ccIGPwpJ.s 			page 24


 1303              		.loc 1 579 0
 1304 0008 012B     		cmp	r3, #1
 1305 000a 19D0     		beq	.L165
 1306 000c 042B     		cmp	r3, #4
 1307 000e 10D0     		beq	.L178
 1308              		.loc 1 609 0
 1309 0010 0021     		movs	r1, #0
 1310              	.LVL117:
 1311 0012 FFF7FEFF 		bl	usb_lld_stall_in
 1312              	.LVL118:
 1313              		.loc 1 610 0
 1314 0016 2046     		mov	r0, r4
 1315 0018 0021     		movs	r1, #0
 1316 001a FFF7FEFF 		bl	usb_lld_stall_out
 1317              	.LVL119:
 1318              		.loc 1 611 0
 1319 001e 6068     		ldr	r0, [r4, #4]
 1320 0020 0268     		ldr	r2, [r0, #0]
 1321 0022 12B1     		cbz	r2, .L170
 1322              		.loc 1 611 0 is_stmt 0 discriminator 1
 1323 0024 2046     		mov	r0, r4
 1324 0026 0521     		movs	r1, #5
 1325 0028 9047     		blx	r2
 1326              	.LVL120:
 1327              	.L170:
 1328              		.loc 1 612 0 is_stmt 1
 1329 002a 0521     		movs	r1, #5
 1330 002c 84F83010 		strb	r1, [r4, #48]
 1331 0030 38BD     		pop	{r3, r4, r5, pc}
 1332              	.LVL121:
 1333              	.L178:
 1334              		.loc 1 599 0
 1335 0032 C36B     		ldr	r3, [r0, #60]
 1336 0034 03B1     		cbz	r3, .L168
 1337              		.loc 1 600 0
 1338 0036 9847     		blx	r3
 1339              	.LVL122:
 1340              	.L168:
 1341              		.loc 1 601 0
 1342 0038 0020     		movs	r0, #0
 1343 003a 84F83000 		strb	r0, [r4, #48]
 1344              		.loc 1 602 0
 1345 003e 38BD     		pop	{r3, r4, r5, pc}
 1346              	.LVL123:
 1347              	.L165:
 1348              		.loc 1 585 0
 1349 0040 856B     		ldr	r5, [r0, #56]
 1350              		.loc 1 581 0
 1351 0042 B0F84620 		ldrh	r2, [r0, #70]
 1352              	.LVL124:
 1353              		.loc 1 585 0
 1354 0046 AA42     		cmp	r2, r5
 1355 0048 06D9     		bls	.L167
 1356              		.loc 1 586 0 discriminator 1
 1357 004a 0169     		ldr	r1, [r0, #16]
 1358              	.LVL125:
 1359 004c 0B8A     		ldrh	r3, [r1, #16]
ARM GAS  /tmp/ccIGPwpJ.s 			page 25


 1360 004e B5FBF3F2 		udiv	r2, r5, r3
 1361              	.LVL126:
 1362 0052 03FB1255 		mls	r5, r3, r2, r5
 1363              		.loc 1 585 0 discriminator 1
 1364 0056 75B1     		cbz	r5, .L179
 1365              	.L167:
 1366              		.loc 1 594 0
 1367 0058 0021     		movs	r1, #0
 1368              		.loc 1 593 0
 1369 005a 0220     		movs	r0, #2
 1370              	.LVL127:
 1371              		.loc 1 594 0
 1372 005c 0A46     		mov	r2, r1
 1373 005e 0B46     		mov	r3, r1
 1374              		.loc 1 593 0
 1375 0060 84F83000 		strb	r0, [r4, #48]
 1376              		.loc 1 594 0
 1377 0064 2046     		mov	r0, r4
 1378 0066 FFF7FEFF 		bl	usb_lld_prepare_receive
 1379              	.LVL128:
 1380              		.loc 1 595 0
 1381 006a 2046     		mov	r0, r4
 1382 006c 0021     		movs	r1, #0
 1383              		.loc 1 613 0
 1384 006e BDE83840 		pop	{r3, r4, r5, lr}
 1385              		.loc 1 595 0
 1386 0072 FFF7FEBF 		b	usb_lld_start_out
 1387              	.LVL129:
 1388              	.L179:
 1389              		.loc 1 587 0
 1390 0076 2946     		mov	r1, r5
 1391 0078 2A46     		mov	r2, r5
 1392 007a 2B46     		mov	r3, r5
 1393 007c FFF7FEFF 		bl	usb_lld_prepare_transmit
 1394              	.LVL130:
 1395              		.loc 1 588 0
 1396 0080 2046     		mov	r0, r4
 1397 0082 2946     		mov	r1, r5
 1398              		.loc 1 613 0
 1399 0084 BDE83840 		pop	{r3, r4, r5, lr}
 1400              		.loc 1 588 0
 1401 0088 FFF7FEBF 		b	usb_lld_start_in
 1402              	.LVL131:
 1403              		.cfi_endproc
 1404              	.LFE76:
 1405              		.size	_usb_ep0in, .-_usb_ep0in
 1406 008c AFF30080 		.section	.text._usb_ep0out,"ax",%progbits
 1407              		.align	2
 1408              		.p2align 4,,15
 1409              		.global	_usb_ep0out
 1410              		.thumb
 1411              		.thumb_func
 1412              		.type	_usb_ep0out, %function
 1413              	_usb_ep0out:
 1414              	.LFB77:
 1415              		.loc 1 625 0
 1416              		.cfi_startproc
ARM GAS  /tmp/ccIGPwpJ.s 			page 26


 1417              		@ args = 0, pretend = 0, frame = 0
 1418              		@ frame_needed = 0, uses_anonymous_args = 0
 1419              	.LVL132:
 1420 0000 38B5     		push	{r3, r4, r5, lr}
 1421              	.LCFI12:
 1422              		.cfi_def_cfa_offset 16
 1423              		.cfi_offset 3, -16
 1424              		.cfi_offset 4, -12
 1425              		.cfi_offset 5, -8
 1426              		.cfi_offset 14, -4
 1427              		.loc 1 628 0
 1428 0002 90F83030 		ldrb	r3, [r0, #48]	@ zero_extendqisi2
 1429              		.loc 1 625 0
 1430 0006 0446     		mov	r4, r0
 1431              		.loc 1 628 0
 1432 0008 022B     		cmp	r3, #2
 1433 000a 21D0     		beq	.L182
 1434 000c 032B     		cmp	r3, #3
 1435 000e 11D0     		beq	.L193
 1436              	.LVL133:
 1437              	.L181:
 1438              		.loc 1 650 0
 1439 0010 0021     		movs	r1, #0
 1440 0012 2046     		mov	r0, r4
 1441              	.LVL134:
 1442 0014 FFF7FEFF 		bl	usb_lld_stall_in
 1443              	.LVL135:
 1444              		.loc 1 651 0
 1445 0018 2046     		mov	r0, r4
 1446 001a 0021     		movs	r1, #0
 1447 001c FFF7FEFF 		bl	usb_lld_stall_out
 1448              	.LVL136:
 1449              		.loc 1 652 0
 1450 0020 6268     		ldr	r2, [r4, #4]
 1451 0022 1368     		ldr	r3, [r2, #0]
 1452 0024 13B1     		cbz	r3, .L186
 1453              		.loc 1 652 0 is_stmt 0 discriminator 1
 1454 0026 2046     		mov	r0, r4
 1455 0028 0521     		movs	r1, #5
 1456 002a 9847     		blx	r3
 1457              	.LVL137:
 1458              	.L186:
 1459              		.loc 1 653 0 is_stmt 1
 1460 002c 0521     		movs	r1, #5
 1461 002e 84F83010 		strb	r1, [r4, #48]
 1462 0032 38BD     		pop	{r3, r4, r5, pc}
 1463              	.LVL138:
 1464              	.L193:
 1465              		.loc 1 632 0
 1466 0034 0021     		movs	r1, #0
 1467              	.LVL139:
 1468              		.loc 1 631 0
 1469 0036 0425     		movs	r5, #4
 1470              		.loc 1 632 0
 1471 0038 0A46     		mov	r2, r1
 1472 003a 0B46     		mov	r3, r1
 1473              		.loc 1 631 0
ARM GAS  /tmp/ccIGPwpJ.s 			page 27


 1474 003c 80F83050 		strb	r5, [r0, #48]
 1475              		.loc 1 632 0
 1476 0040 FFF7FEFF 		bl	usb_lld_prepare_transmit
 1477              	.LVL140:
 1478              		.loc 1 633 0
 1479 0044 2046     		mov	r0, r4
 1480 0046 0021     		movs	r1, #0
 1481              		.loc 1 654 0
 1482 0048 BDE83840 		pop	{r3, r4, r5, lr}
 1483              		.loc 1 633 0
 1484 004c FFF7FEBF 		b	usb_lld_start_in
 1485              	.LVL141:
 1486              	.L182:
 1487              		.loc 1 638 0
 1488 0050 0169     		ldr	r1, [r0, #16]
 1489              	.LVL142:
 1490 0052 8A69     		ldr	r2, [r1, #24]
 1491 0054 D368     		ldr	r3, [r2, #12]
 1492 0056 002B     		cmp	r3, #0
 1493 0058 DAD1     		bne	.L181
 1494              		.loc 1 640 0
 1495 005a C16B     		ldr	r1, [r0, #60]
 1496 005c 01B1     		cbz	r1, .L184
 1497              		.loc 1 641 0
 1498 005e 8847     		blx	r1
 1499              	.LVL143:
 1500              	.L184:
 1501              		.loc 1 642 0
 1502 0060 0020     		movs	r0, #0
 1503 0062 84F83000 		strb	r0, [r4, #48]
 1504              		.loc 1 643 0
 1505 0066 38BD     		pop	{r3, r4, r5, pc}
 1506              		.cfi_endproc
 1507              	.LFE77:
 1508              		.size	_usb_ep0out, .-_usb_ep0out
 1509 0068 AFF30080 		.section	.rodata.zero_status,"a",%progbits
 1509      AFF30080 
 1510              		.align	2
 1511              		.set	.LANCHOR0,. + 0
 1512              		.type	zero_status, %object
 1513              		.size	zero_status, 2
 1514              	zero_status:
 1515 0000 0000     		.space	2
 1516 0002 0000     		.section	.rodata.active_status,"a",%progbits
 1517              		.align	2
 1518              		.set	.LANCHOR2,. + 0
 1519              		.type	active_status, %object
 1520              		.size	active_status, 2
 1521              	active_status:
 1522 0000 0000     		.space	2
 1523 0002 0000     		.section	.rodata.str1.4,"aMS",%progbits,1
 1524              		.align	2
 1525              	.LC0:
 1526 0000 22757362 		.ascii	"\"usbStart\"()\000"
 1526      53746172 
 1526      74222829 
 1526      00
ARM GAS  /tmp/ccIGPwpJ.s 			page 28


 1527 000d 000000   		.space	3
 1528              	.LC1:
 1529 0010 75736253 		.ascii	"usbStart(), #1\000"
 1529      74617274 
 1529      28292C20 
 1529      233100
 1530 001f 00       		.space	1
 1531              	.LC2:
 1532 0020 22757362 		.ascii	"\"usbStop\"()\000"
 1532      53746F70 
 1532      22282900 
 1533              	.LC3:
 1534 002c 75736253 		.ascii	"usbStop(), #1\000"
 1534      746F7028 
 1534      292C2023 
 1534      3100
 1535 003a 0000     		.space	2
 1536              	.LC4:
 1537 003c 22757362 		.ascii	"\"usbInitEndpointI\"()\000"
 1537      496E6974 
 1537      456E6470 
 1537      6F696E74 
 1537      49222829 
 1538 0051 000000   		.space	3
 1539              	.LC5:
 1540 0054 75736245 		.ascii	"usbEnableEndpointI(), #1\000"
 1540      6E61626C 
 1540      65456E64 
 1540      706F696E 
 1540      74492829 
 1541 006d 000000   		.space	3
 1542              	.LC6:
 1543 0070 75736245 		.ascii	"usbEnableEndpointI(), #2\000"
 1543      6E61626C 
 1543      65456E64 
 1543      706F696E 
 1543      74492829 
 1544 0089 000000   		.space	3
 1545              	.LC7:
 1546 008c 22757362 		.ascii	"\"usbDisableEndpointsI\"()\000"
 1546      44697361 
 1546      626C6545 
 1546      6E64706F 
 1546      696E7473 
 1547 00a5 000000   		.space	3
 1548              	.LC8:
 1549 00a8 75736244 		.ascii	"usbDisableEndpointsI(), #1\000"
 1549      69736162 
 1549      6C65456E 
 1549      64706F69 
 1549      6E747349 
 1550 00c3 00       		.space	1
 1551              	.LC9:
 1552 00c4 22757362 		.ascii	"\"usbStartReceiveI\"()\000"
 1552      53746172 
 1552      74526563 
 1552      65697665 
ARM GAS  /tmp/ccIGPwpJ.s 			page 29


 1552      49222829 
 1553 00d9 000000   		.space	3
 1554              	.LC10:
 1555 00dc 22757362 		.ascii	"\"usbStartTransmitI\"()\000"
 1555      53746172 
 1555      74547261 
 1555      6E736D69 
 1555      74492228 
 1556 00f2 0000     		.space	2
 1557              	.LC11:
 1558 00f4 22757362 		.ascii	"\"usbStallReceiveI\"()\000"
 1558      5374616C 
 1558      6C526563 
 1558      65697665 
 1558      49222829 
 1559 0109 000000   		.space	3
 1560              	.LC12:
 1561 010c 22757362 		.ascii	"\"usbStallTransmitI\"()\000"
 1561      5374616C 
 1561      6C547261 
 1561      6E736D69 
 1561      74492228 
 1562 0122 0000     		.section	.rodata.halted_status,"a",%progbits
 1563              		.align	2
 1564              		.set	.LANCHOR1,. + 0
 1565              		.type	halted_status, %object
 1566              		.size	halted_status, 2
 1567              	halted_status:
 1568 0000 01       		.byte	1
 1569 0001 00       		.byte	0
 1570 0002 0000     		.text
 1571              	.Letext0:
 1572              		.file 2 "/home/formica/toolchains/gcc-arm-none-eabi-4_7-2012q4/bin/../lib/gcc/arm-none-eabi/4.7.3/
 1573              		.file 3 "/home/formica/toolchains/gcc-arm-none-eabi-4_7-2012q4/bin/../lib/gcc/arm-none-eabi/4.7.3/
 1574              		.file 4 "/home/formica/chibios/chibios/os/ports/GCC/ARMCMx/chtypes.h"
 1575              		.file 5 "/home/formica/chibios/chibios/os/hal/include/usb.h"
 1576              		.file 6 "/home/formica/chibios/chibios/os/hal/platforms/STM32/USBv1/usb_lld.h"
 1577              		.file 7 "/home/formica/chibios/chibios/os/kernel/include/chdebug.h"
 1578              		.file 8 "/home/formica/chibios/chibios/os/ports/common/ARMCMx/CMSIS/include/core_cm3.h"