ARM GAS  /tmp/cciaCXKt.s 			page 1


   1              		.syntax unified
   2              		.cpu cortex-m3
   3              		.fpu softvfp
   4              		.eabi_attribute 20, 1
   5              		.eabi_attribute 21, 1
   6              		.eabi_attribute 23, 3
   7              		.eabi_attribute 24, 1
   8              		.eabi_attribute 25, 1
   9              		.eabi_attribute 26, 1
  10              		.eabi_attribute 30, 2
  11              		.eabi_attribute 34, 1
  12              		.eabi_attribute 18, 4
  13              		.thumb
  14              		.file	"usb_lld.c"
  15              		.text
  16              	.Ltext0:
  17              		.cfi_sections	.debug_frame
  18              		.section	.text.Vector8C,"ax",%progbits
  19              		.align	2
  20              		.p2align 4,,15
  21              		.global	Vector8C
  22              		.thumb
  23              		.thumb_func
  24              		.type	Vector8C, %function
  25              	Vector8C:
  26              	.LFB64:
  27              		.file 1 "/home/formica/chibios/chibios/os/hal/platforms/STM32/USBv1/usb_lld.c"
  28              		.loc 1 129 0
  29              		.cfi_startproc
  30              		@ args = 0, pretend = 0, frame = 0
  31              		@ frame_needed = 0, uses_anonymous_args = 0
  32 0000 08B5     		push	{r3, lr}
  33              	.LCFI0:
  34              		.cfi_def_cfa_offset 8
  35              		.cfi_offset 3, -8
  36              		.cfi_offset 14, -4
  37              		.loc 1 131 0
  38 0002 FFF7FEFF 		bl	dbg_check_enter_isr
  39              	.LVL0:
  40              		.loc 1 133 0
  41 0006 FFF7FEFF 		bl	dbg_check_leave_isr
  42              	.LVL1:
  43              		.loc 1 134 0
  44 000a BDE80840 		pop	{r3, lr}
  45              		.loc 1 133 0
  46 000e FFF7FEBF 		b	_port_irq_epilogue
  47              	.LVL2:
  48              		.cfi_endproc
  49              	.LFE64:
  50              		.size	Vector8C, .-Vector8C
  51 0012 00BFAFF3 		.section	.text.usb_lld_init,"ax",%progbits
  51      0080AFF3 
  51      0080AFF3 
  51      0080
  52              		.align	2
  53              		.p2align 4,,15
  54              		.global	usb_lld_init
ARM GAS  /tmp/cciaCXKt.s 			page 2


  55              		.thumb
  56              		.thumb_func
  57              		.type	usb_lld_init, %function
  58              	usb_lld_init:
  59              	.LFB66:
  60              		.loc 1 272 0
  61              		.cfi_startproc
  62              		@ args = 0, pretend = 0, frame = 0
  63              		@ frame_needed = 0, uses_anonymous_args = 0
  64              		@ link register save eliminated.
  65              		.loc 1 275 0
  66 0000 40F20000 		movw	r0, #:lower16:.LANCHOR0
  67 0004 C0F20000 		movt	r0, #:upper16:.LANCHOR0
  68              		.loc 1 276 0
  69              		.loc 1 275 0
  70 0008 FFF7FEBF 		b	usbObjectInit
  71              	.LVL3:
  72              		.cfi_endproc
  73              	.LFE66:
  74              		.size	usb_lld_init, .-usb_lld_init
  75 000c AFF30080 		.section	.text.usb_lld_start,"ax",%progbits
  76              		.align	2
  77              		.p2align 4,,15
  78              		.global	usb_lld_start
  79              		.thumb
  80              		.thumb_func
  81              		.type	usb_lld_start, %function
  82              	usb_lld_start:
  83              	.LFB67:
  84              		.loc 1 285 0
  85              		.cfi_startproc
  86              		@ args = 0, pretend = 0, frame = 0
  87              		@ frame_needed = 0, uses_anonymous_args = 0
  88              	.LVL4:
  89 0000 38B5     		push	{r3, r4, r5, lr}
  90              	.LCFI1:
  91              		.cfi_def_cfa_offset 16
  92              		.cfi_offset 3, -16
  93              		.cfi_offset 4, -12
  94              		.cfi_offset 5, -8
  95              		.cfi_offset 14, -4
  96              		.loc 1 287 0
  97 0002 0378     		ldrb	r3, [r0, #0]	@ zero_extendqisi2
  98              		.loc 1 285 0
  99 0004 0446     		mov	r4, r0
 100              		.loc 1 287 0
 101 0006 012B     		cmp	r3, #1
 102 0008 00D0     		beq	.L7
 103 000a 38BD     		pop	{r3, r4, r5, pc}
 104              	.L7:
 105              		.loc 1 290 0
 106 000c 0F4A     		ldr	r2, .L9
 107 000e 9042     		cmp	r0, r2
 108 0010 04D0     		beq	.L8
 109              	.LVL5:
 110              	.L5:
 111              		.loc 1 306 0
ARM GAS  /tmp/cciaCXKt.s 			page 3


 112 0012 2046     		mov	r0, r4
 113              		.loc 1 309 0
 114 0014 BDE83840 		pop	{r3, r4, r5, lr}
 115              		.loc 1 306 0
 116 0018 FFF7FEBF 		b	_usb_reset
 117              	.LVL6:
 118              	.L8:
 119              		.loc 1 292 0
 120 001c 4FF48050 		mov	r0, #4096
 121              	.LVL7:
 122 0020 C4F20200 		movt	r0, 16386
 123 0024 C169     		ldr	r1, [r0, #28]
 124              		.loc 1 294 0
 125 0026 4FF4B845 		mov	r5, #23552
 126              		.loc 1 292 0
 127 002a 41F40002 		orr	r2, r1, #8388608
 128              		.loc 1 294 0
 129 002e C4F20005 		movt	r5, 16384
 130              		.loc 1 292 0
 131 0032 C261     		str	r2, [r0, #28]
 132              		.loc 1 297 0
 133 0034 6021     		movs	r1, #96
 134              		.loc 1 294 0
 135 0036 2B64     		str	r3, [r5, #64]
 136              		.loc 1 297 0
 137 0038 1320     		movs	r0, #19
 138 003a FFF7FEFF 		bl	nvicEnableVector
 139              	.LVL8:
 140              		.loc 1 299 0
 141 003e 1420     		movs	r0, #20
 142 0040 E021     		movs	r1, #224
 143 0042 FFF7FEFF 		bl	nvicEnableVector
 144              	.LVL9:
 145              		.loc 1 302 0
 146 0046 0023     		movs	r3, #0
 147 0048 2B64     		str	r3, [r5, #64]
 148 004a E2E7     		b	.L5
 149              	.L10:
 150              		.align	2
 151              	.L9:
 152 004c 00000000 		.word	.LANCHOR0
 153              		.cfi_endproc
 154              	.LFE67:
 155              		.size	usb_lld_start, .-usb_lld_start
 156              		.section	.text.usb_lld_stop,"ax",%progbits
 157              		.align	2
 158              		.p2align 4,,15
 159              		.global	usb_lld_stop
 160              		.thumb
 161              		.thumb_func
 162              		.type	usb_lld_stop, %function
 163              	usb_lld_stop:
 164              	.LFB68:
 165              		.loc 1 318 0
 166              		.cfi_startproc
 167              		@ args = 0, pretend = 0, frame = 0
 168              		@ frame_needed = 0, uses_anonymous_args = 0
ARM GAS  /tmp/cciaCXKt.s 			page 4


 169              	.LVL10:
 170 0000 08B5     		push	{r3, lr}
 171              	.LCFI2:
 172              		.cfi_def_cfa_offset 8
 173              		.cfi_offset 3, -8
 174              		.cfi_offset 14, -4
 175              		.loc 1 321 0
 176 0002 0378     		ldrb	r3, [r0, #0]	@ zero_extendqisi2
 177 0004 012B     		cmp	r3, #1
 178 0006 00D0     		beq	.L13
 179              	.LVL11:
 180              	.L11:
 181 0008 08BD     		pop	{r3, pc}
 182              	.LVL12:
 183              	.L13:
 184              		.loc 1 323 0
 185 000a 0C49     		ldr	r1, .L14
 186 000c 8842     		cmp	r0, r1
 187 000e FBD1     		bne	.L11
 188              		.loc 1 324 0
 189 0010 1320     		movs	r0, #19
 190              	.LVL13:
 191 0012 FFF7FEFF 		bl	nvicDisableVector
 192              	.LVL14:
 193              		.loc 1 325 0
 194 0016 1420     		movs	r0, #20
 195 0018 FFF7FEFF 		bl	nvicDisableVector
 196              	.LVL15:
 197              		.loc 1 326 0
 198 001c 4FF4B842 		mov	r2, #23552
 199 0020 C4F20002 		movt	r2, 16384
 200              		.loc 1 327 0
 201 0024 4FF48050 		mov	r0, #4096
 202              		.loc 1 326 0
 203 0028 0323     		movs	r3, #3
 204 002a 1364     		str	r3, [r2, #64]
 205              		.loc 1 327 0
 206 002c C4F20200 		movt	r0, 16386
 207 0030 C169     		ldr	r1, [r0, #28]
 208 0032 21F40002 		bic	r2, r1, #8388608
 209 0036 C261     		str	r2, [r0, #28]
 210 0038 E6E7     		b	.L11
 211              	.L15:
 212 003a 00BF     		.align	2
 213              	.L14:
 214 003c 00000000 		.word	.LANCHOR0
 215              		.cfi_endproc
 216              	.LFE68:
 217              		.size	usb_lld_stop, .-usb_lld_stop
 218              		.section	.text.usb_lld_set_address,"ax",%progbits
 219              		.align	2
 220              		.p2align 4,,15
 221              		.global	usb_lld_set_address
 222              		.thumb
 223              		.thumb_func
 224              		.type	usb_lld_set_address, %function
 225              	usb_lld_set_address:
ARM GAS  /tmp/cciaCXKt.s 			page 5


 226              	.LFB70:
 227              		.loc 1 370 0
 228              		.cfi_startproc
 229              		@ args = 0, pretend = 0, frame = 0
 230              		@ frame_needed = 0, uses_anonymous_args = 0
 231              		@ link register save eliminated.
 232              	.LVL16:
 233              		.loc 1 372 0
 234 0000 90F84A20 		ldrb	r2, [r0, #74]	@ zero_extendqisi2
 235 0004 4FF4B843 		mov	r3, #23552
 236 0008 42F08000 		orr	r0, r2, #128
 237              	.LVL17:
 238 000c C4F20003 		movt	r3, 16384
 239 0010 D864     		str	r0, [r3, #76]
 240 0012 7047     		bx	lr
 241              		.cfi_endproc
 242              	.LFE70:
 243              		.size	usb_lld_set_address, .-usb_lld_set_address
 244 0014 AFF30080 		.section	.text.usb_lld_init_endpoint,"ax",%progbits
 244      AFF30080 
 244      AFF30080 
 245              		.align	2
 246              		.p2align 4,,15
 247              		.global	usb_lld_init_endpoint
 248              		.thumb
 249              		.thumb_func
 250              		.type	usb_lld_init_endpoint, %function
 251              	usb_lld_init_endpoint:
 252              	.LFB71:
 253              		.loc 1 383 0
 254              		.cfi_startproc
 255              		@ args = 0, pretend = 0, frame = 0
 256              		@ frame_needed = 0, uses_anonymous_args = 0
 257              	.LVL18:
 258              		.loc 1 386 0
 259 0000 0B1D     		adds	r3, r1, #4
 260              		.loc 1 383 0
 261 0002 2DE9F041 		push	{r4, r5, r6, r7, r8, lr}
 262              	.LCFI3:
 263              		.cfi_def_cfa_offset 24
 264              		.cfi_offset 4, -24
 265              		.cfi_offset 5, -20
 266              		.cfi_offset 6, -16
 267              		.cfi_offset 7, -12
 268              		.cfi_offset 8, -8
 269              		.cfi_offset 14, -4
 270              		.loc 1 386 0
 271 0006 50F82340 		ldr	r4, [r0, r3, lsl #2]
 272              	.LVL19:
 273              		.loc 1 383 0
 274 000a 0546     		mov	r5, r0
 275              		.loc 1 389 0
 276 000c 2268     		ldr	r2, [r4, #0]
 277 000e 02F00306 		and	r6, r2, #3
 278 0012 731E     		subs	r3, r6, #1
 279 0014 022B     		cmp	r3, #2
 280 0016 96BF     		itet	ls
ARM GAS  /tmp/cciaCXKt.s 			page 6


 281 0018 3548     		ldrls	r0, .L34
 282              	.LVL20:
 283 001a 4FF40073 		movhi	r3, #512
 284 001e 30F81330 		ldrhls	r3, [r0, r3, lsl #1]
 285              	.LVL21:
 286              		.loc 1 404 0
 287 0022 A068     		ldr	r0, [r4, #8]
 288 0024 08B1     		cbz	r0, .L19
 289              		.loc 1 405 0
 290 0026 43F02003 		orr	r3, r3, #32
 291              	.LVL22:
 292              	.L19:
 293              		.loc 1 409 0
 294 002a E768     		ldr	r7, [r4, #12]
 295 002c 4FB1     		cbz	r7, .L20
 296              		.loc 1 410 0
 297 002e D206     		lsls	r2, r2, #27
 298 0030 50D5     		bpl	.L21
 299              		.loc 1 411 0
 300 0032 0122     		movs	r2, #1
 301 0034 02FA01F2 		lsl	r2, r2, r1
 302 0038 EE89     		ldrh	r6, [r5, #14]
 303              		.loc 1 412 0
 304 003a 43F44053 		orr	r3, r3, #12288
 305              	.LVL23:
 306              		.loc 1 411 0
 307 003e 3243     		orrs	r2, r2, r6
 308 0040 EA81     		strh	r2, [r5, #14]	@ movhi
 309              	.LVL24:
 310              	.L20:
 311              		.loc 1 419 0
 312 0042 43EA0100 		orr	r0, r3, r1
 313 0046 20F4F047 		bic	r7, r0, #30720
 314 004a 4FF4B842 		mov	r2, #23552
 315 004e C4F20002 		movt	r2, 16384
 316 0052 27F07006 		bic	r6, r7, #112
 317 0056 42F82160 		str	r6, [r2, r1, lsl #2]
 318              		.loc 1 420 0
 319 005a 52F82170 		ldr	r7, [r2, r1, lsl #2]
 320 005e 47F67000 		movw	r0, #30832
 321 0062 1840     		ands	r0, r0, r3
 322              		.loc 1 423 0
 323 0064 638A     		ldrh	r3, [r4, #18]
 324              	.LVL25:
 325              		.loc 1 420 0
 326 0066 7840     		eors	r0, r0, r7
 327 0068 42F82100 		str	r0, [r2, r1, lsl #2]
 328              		.loc 1 424 0
 329 006c 5A1E     		subs	r2, r3, #1
 330              		.loc 1 423 0
 331 006e 3E2B     		cmp	r3, #62
 332 0070 33D8     		bhi	.L33
 333              		.loc 1 427 0
 334 0072 42F00106 		orr	r6, r2, #1
 335 0076 771C     		adds	r7, r6, #1
 336 0078 07EBD770 		add	r0, r7, r7, lsr #31
 337 007c 4202     		lsls	r2, r0, #9
ARM GAS  /tmp/cciaCXKt.s 			page 7


 338 007e 02F47C40 		and	r0, r2, #64512
 339              	.LVL26:
 340              	.L23:
 341              		.loc 1 428 0
 342 0082 4FF4B847 		mov	r7, #23552
 343 0086 C4F20007 		movt	r7, 16384
 344 008a 3A6D     		ldr	r2, [r7, #80]
 345              	.LBB16:
 346              	.LBB17:
 347              		.loc 1 113 0
 348 008c D5F84C80 		ldr	r8, [r5, #76]
 349              	.LBE17:
 350              	.LBE16:
 351              		.loc 1 431 0
 352 0090 268A     		ldrh	r6, [r4, #16]
 353              		.loc 1 428 0
 354 0092 02F10057 		add	r7, r2, #536870912
 355 0096 07F54052 		add	r2, r7, #12288
 356 009a 02EBC101 		add	r1, r2, r1, lsl #3
 357              	.LVL27:
 358              	.LBB21:
 359              	.LBB18:
 360              		.loc 1 114 0
 361 009e 4644     		add	r6, r6, r8
 362              	.LBE18:
 363              	.LBE21:
 364              		.loc 1 428 0
 365 00a0 4F00     		lsls	r7, r1, #1
 366              	.LVL28:
 367              		.loc 1 429 0
 368 00a2 0022     		movs	r2, #0
 369              	.LBB22:
 370              	.LBB19:
 371              		.loc 1 115 0
 372 00a4 B6F5007F 		cmp	r6, #512
 373              	.LBE19:
 374              	.LBE22:
 375              		.loc 1 429 0
 376 00a8 BA80     		strh	r2, [r7, #4]	@ movhi
 377              		.loc 1 430 0
 378 00aa B881     		strh	r0, [r7, #12]	@ movhi
 379              	.LVL29:
 380              	.LBB23:
 381              	.LBB20:
 382              		.loc 1 114 0
 383 00ac EE64     		str	r6, [r5, #76]
 384              		.loc 1 115 0
 385 00ae 04D9     		bls	.L24
 386 00b0 1048     		ldr	r0, .L34+4
 387              	.LVL30:
 388 00b2 FFF7FEFF 		bl	chDbgPanic
 389              	.LVL31:
 390 00b6 638A     		ldrh	r3, [r4, #18]
 391 00b8 EE6C     		ldr	r6, [r5, #76]
 392              	.L24:
 393              	.LBE20:
 394              	.LBE23:
ARM GAS  /tmp/cciaCXKt.s 			page 8


 395              	.LBB24:
 396              	.LBB25:
 397              		.loc 1 114 0
 398 00ba 9819     		adds	r0, r3, r6
 399              		.loc 1 115 0
 400 00bc B0F5007F 		cmp	r0, #512
 401              	.LBE25:
 402              	.LBE24:
 403              		.loc 1 431 0
 404 00c0 C7F80080 		str	r8, [r7, #0]
 405              	.LVL32:
 406              	.LBB27:
 407              	.LBB26:
 408              		.loc 1 114 0
 409 00c4 E864     		str	r0, [r5, #76]
 410              		.loc 1 115 0
 411 00c6 02D9     		bls	.L25
 412              	.LVL33:
 413 00c8 0A48     		ldr	r0, .L34+4
 414 00ca FFF7FEFF 		bl	chDbgPanic
 415              	.LVL34:
 416              	.L25:
 417              	.LBE26:
 418              	.LBE27:
 419              		.loc 1 432 0
 420 00ce BE60     		str	r6, [r7, #8]
 421 00d0 BDE8F081 		pop	{r4, r5, r6, r7, r8, pc}
 422              	.LVL35:
 423              	.L21:
 424              		.loc 1 415 0
 425 00d4 43F40053 		orr	r3, r3, #8192
 426              	.LVL36:
 427 00d8 B3E7     		b	.L20
 428              	.LVL37:
 429              	.L33:
 430              		.loc 1 424 0
 431 00da 42F01F06 		orr	r6, r2, #31
 432 00de 771C     		adds	r7, r6, #1
 433 00e0 7A11     		asrs	r2, r7, #5
 434 00e2 6FEAC260 		mvn	r0, r2, lsl #27
 435 00e6 6FEA5046 		mvn	r6, r0, lsr #17
 436 00ea B0B2     		uxth	r0, r6
 437              	.LVL38:
 438 00ec C9E7     		b	.L23
 439              	.L35:
 440 00ee 00BF     		.align	2
 441              	.L34:
 442 00f0 00000000 		.word	.LANCHOR1
 443 00f4 00000000 		.word	.LC0
 444              		.cfi_endproc
 445              	.LFE71:
 446              		.size	usb_lld_init_endpoint, .-usb_lld_init_endpoint
 447              		.section	.text.usb_lld_reset,"ax",%progbits
 448              		.align	2
 449              		.p2align 4,,15
 450              		.global	usb_lld_reset
 451              		.thumb
ARM GAS  /tmp/cciaCXKt.s 			page 9


 452              		.thumb_func
 453              		.type	usb_lld_reset, %function
 454              	usb_lld_reset:
 455              	.LFB69:
 456              		.loc 1 340 0
 457              		.cfi_startproc
 458              		@ args = 0, pretend = 0, frame = 0
 459              		@ frame_needed = 0, uses_anonymous_args = 0
 460              		@ link register save eliminated.
 461              	.LVL39:
 462              		.loc 1 351 0
 463 0000 4168     		ldr	r1, [r0, #4]
 464              		.loc 1 340 0
 465 0002 30B4     		push	{r4, r5}
 466              	.LCFI4:
 467              		.cfi_def_cfa_offset 8
 468              		.cfi_offset 4, -8
 469              		.cfi_offset 5, -4
 470              		.loc 1 344 0
 471 0004 4FF4B843 		mov	r3, #23552
 472              		.loc 1 351 0
 473 0008 CD68     		ldr	r5, [r1, #12]
 474              		.loc 1 344 0
 475 000a 0024     		movs	r4, #0
 476 000c C4F20003 		movt	r3, 16384
 477 0010 1C65     		str	r4, [r3, #80]
 478              		.loc 1 347 0
 479 0012 A542     		cmp	r5, r4
 480 0014 14BF     		ite	ne
 481 0016 4FF41E45 		movne	r5, #40448
 482 001a 4FF41C45 		moveq	r5, #39936
 483              		.loc 1 345 0
 484 001e 5C64     		str	r4, [r3, #68]
 485              		.loc 1 360 0
 486 0020 2146     		mov	r1, r4
 487              		.loc 1 346 0
 488 0022 8024     		movs	r4, #128
 489 0024 DC64     		str	r4, [r3, #76]
 490              	.LVL40:
 491              		.loc 1 353 0
 492 0026 1D64     		str	r5, [r3, #64]
 493              	.LVL41:
 494              	.LBB28:
 495              	.LBB29:
 496              		.loc 1 101 0
 497 0028 4023     		movs	r3, #64
 498 002a C364     		str	r3, [r0, #76]
 499              	.LBE29:
 500              	.LBE28:
 501              		.loc 1 359 0
 502 002c 024B     		ldr	r3, .L39
 503 002e 0361     		str	r3, [r0, #16]
 504              		.loc 1 361 0
 505 0030 30BC     		pop	{r4, r5}
 506              		.loc 1 360 0
 507 0032 FFF7FEBF 		b	usb_lld_init_endpoint
 508              	.LVL42:
ARM GAS  /tmp/cciaCXKt.s 			page 10


 509              	.L40:
 510 0036 00BF     		.align	2
 511              	.L39:
 512 0038 00000000 		.word	.LANCHOR2
 513              		.cfi_endproc
 514              	.LFE69:
 515              		.size	usb_lld_reset, .-usb_lld_reset
 516 003c AFF30080 		.section	.text.usb_lld_disable_endpoints,"ax",%progbits
 517              		.align	2
 518              		.p2align 4,,15
 519              		.global	usb_lld_disable_endpoints
 520              		.thumb
 521              		.thumb_func
 522              		.type	usb_lld_disable_endpoints, %function
 523              	usb_lld_disable_endpoints:
 524              	.LFB72:
 525              		.loc 1 442 0
 526              		.cfi_startproc
 527              		@ args = 0, pretend = 0, frame = 0
 528              		@ frame_needed = 0, uses_anonymous_args = 0
 529              		@ link register save eliminated.
 530              	.LVL43:
 531              	.LBB30:
 532              	.LBB31:
 533              		.loc 1 101 0
 534 0000 4022     		movs	r2, #64
 535              	.LBE31:
 536              	.LBE30:
 537              		.loc 1 450 0
 538 0002 4FF4B843 		mov	r3, #23552
 539              	.LBB33:
 540              	.LBB32:
 541              		.loc 1 101 0
 542 0006 C264     		str	r2, [r0, #76]
 543              	.LVL44:
 544              	.LBE32:
 545              	.LBE33:
 546              		.loc 1 450 0
 547 0008 C4F20003 		movt	r3, 16384
 548 000c 5968     		ldr	r1, [r3, #4]
 549              		.loc 1 451 0
 550 000e 0020     		movs	r0, #0
 551              	.LVL45:
 552              		.loc 1 450 0
 553 0010 5960     		str	r1, [r3, #4]
 554              		.loc 1 451 0
 555 0012 5860     		str	r0, [r3, #4]
 556              	.LVL46:
 557              		.loc 1 450 0
 558 0014 9A68     		ldr	r2, [r3, #8]
 559 0016 9A60     		str	r2, [r3, #8]
 560              		.loc 1 451 0
 561 0018 9860     		str	r0, [r3, #8]
 562              	.LVL47:
 563              		.loc 1 450 0
 564 001a D968     		ldr	r1, [r3, #12]
 565 001c D960     		str	r1, [r3, #12]
ARM GAS  /tmp/cciaCXKt.s 			page 11


 566              		.loc 1 451 0
 567 001e D860     		str	r0, [r3, #12]
 568              	.LVL48:
 569              		.loc 1 450 0
 570 0020 1A69     		ldr	r2, [r3, #16]
 571 0022 1A61     		str	r2, [r3, #16]
 572              		.loc 1 451 0
 573 0024 1861     		str	r0, [r3, #16]
 574              	.LVL49:
 575              		.loc 1 450 0
 576 0026 5969     		ldr	r1, [r3, #20]
 577 0028 5961     		str	r1, [r3, #20]
 578              		.loc 1 451 0
 579 002a 5861     		str	r0, [r3, #20]
 580              	.LVL50:
 581              		.loc 1 450 0
 582 002c 9A69     		ldr	r2, [r3, #24]
 583 002e 9A61     		str	r2, [r3, #24]
 584              		.loc 1 451 0
 585 0030 9861     		str	r0, [r3, #24]
 586              	.LVL51:
 587              		.loc 1 450 0
 588 0032 D969     		ldr	r1, [r3, #28]
 589 0034 D961     		str	r1, [r3, #28]
 590              		.loc 1 451 0
 591 0036 D861     		str	r0, [r3, #28]
 592              	.LVL52:
 593 0038 7047     		bx	lr
 594              		.cfi_endproc
 595              	.LFE72:
 596              		.size	usb_lld_disable_endpoints, .-usb_lld_disable_endpoints
 597 003a 00BFAFF3 		.section	.text.usb_lld_get_status_out,"ax",%progbits
 597      0080
 598              		.align	2
 599              		.p2align 4,,15
 600              		.global	usb_lld_get_status_out
 601              		.thumb
 602              		.thumb_func
 603              		.type	usb_lld_get_status_out, %function
 604              	usb_lld_get_status_out:
 605              	.LFB73:
 606              		.loc 1 467 0
 607              		.cfi_startproc
 608              		@ args = 0, pretend = 0, frame = 0
 609              		@ frame_needed = 0, uses_anonymous_args = 0
 610              		@ link register save eliminated.
 611              	.LVL53:
 612              		.loc 1 470 0
 613 0000 4FF4B843 		mov	r3, #23552
 614 0004 C4F20003 		movt	r3, 16384
 615 0008 53F82100 		ldr	r0, [r3, r1, lsl #2]
 616              	.LVL54:
 617 000c 10F44050 		ands	r0, r0, #12288
 618 0010 04D0     		beq	.L45
 619              		.loc 1 476 0
 620 0012 B0F5805F 		cmp	r0, #4096
 621 0016 0CBF     		ite	eq
ARM GAS  /tmp/cciaCXKt.s 			page 12


 622 0018 0120     		moveq	r0, #1
 623 001a 0220     		movne	r0, #2
 624              	.L45:
 625              		.loc 1 478 0
 626 001c 7047     		bx	lr
 627              		.cfi_endproc
 628              	.LFE73:
 629              		.size	usb_lld_get_status_out, .-usb_lld_get_status_out
 630 001e 00BF     		.section	.text.usb_lld_get_status_in,"ax",%progbits
 631              		.align	2
 632              		.p2align 4,,15
 633              		.global	usb_lld_get_status_in
 634              		.thumb
 635              		.thumb_func
 636              		.type	usb_lld_get_status_in, %function
 637              	usb_lld_get_status_in:
 638              	.LFB74:
 639              		.loc 1 492 0
 640              		.cfi_startproc
 641              		@ args = 0, pretend = 0, frame = 0
 642              		@ frame_needed = 0, uses_anonymous_args = 0
 643              		@ link register save eliminated.
 644              	.LVL55:
 645              		.loc 1 495 0
 646 0000 4FF4B843 		mov	r3, #23552
 647 0004 C4F20003 		movt	r3, 16384
 648 0008 53F82100 		ldr	r0, [r3, r1, lsl #2]
 649              	.LVL56:
 650 000c 00F03001 		and	r1, r0, #48
 651              	.LVL57:
 652 0010 1029     		cmp	r1, #16
 653 0012 02D8     		bhi	.L49
 654 0014 024A     		ldr	r2, .L50
 655 0016 505C     		ldrb	r0, [r2, r1]	@ zero_extendqisi2
 656 0018 7047     		bx	lr
 657              	.L49:
 658 001a 0220     		movs	r0, #2
 659              		.loc 1 503 0
 660 001c 7047     		bx	lr
 661              	.L51:
 662 001e 00BF     		.align	2
 663              	.L50:
 664 0020 00000000 		.word	.LANCHOR3
 665              		.cfi_endproc
 666              	.LFE74:
 667              		.size	usb_lld_get_status_in, .-usb_lld_get_status_in
 668 0024 AFF30080 		.section	.text.usb_lld_read_setup,"ax",%progbits
 668      AFF30080 
 668      AFF30080 
 669              		.align	2
 670              		.p2align 4,,15
 671              		.global	usb_lld_read_setup
 672              		.thumb
 673              		.thumb_func
 674              		.type	usb_lld_read_setup, %function
 675              	usb_lld_read_setup:
 676              	.LFB75:
ARM GAS  /tmp/cciaCXKt.s 			page 13


 677              		.loc 1 519 0
 678              		.cfi_startproc
 679              		@ args = 0, pretend = 0, frame = 0
 680              		@ frame_needed = 0, uses_anonymous_args = 0
 681              		@ link register save eliminated.
 682              	.LVL58:
 683              		.loc 1 525 0
 684 0000 4FF4B843 		mov	r3, #23552
 685 0004 C4F20003 		movt	r3, 16384
 686 0008 186D     		ldr	r0, [r3, #80]
 687              	.LVL59:
 688              		.loc 1 519 0
 689 000a 10B4     		push	{r4}
 690              	.LCFI5:
 691              		.cfi_def_cfa_offset 4
 692              		.cfi_offset 4, -4
 693              		.loc 1 525 0
 694 000c 00F10054 		add	r4, r0, #536870912
 695 0010 04F54053 		add	r3, r4, #12288
 696 0014 03EBC101 		add	r1, r3, r1, lsl #3
 697              	.LVL60:
 698 0018 4800     		lsls	r0, r1, #1
 699              	.LVL61:
 700              		.loc 1 526 0
 701 001a 8468     		ldr	r4, [r0, #8]
 702 001c 04F10053 		add	r3, r4, #536870912
 703 0020 03F54051 		add	r1, r3, #12288
 704 0024 4800     		lsls	r0, r1, #1
 705              	.LVL62:
 706              		.loc 1 528 0
 707 0026 0468     		ldr	r4, [r0, #0]
 708 0028 031D     		adds	r3, r0, #4
 709 002a 0BCB     		ldmia	r3, {r0, r1, r3}
 710              	.LVL63:
 711 002c 1480     		strh	r4, [r2, #0]	@ movhi
 712              	.LVL64:
 713 002e 5080     		strh	r0, [r2, #2]	@ movhi
 714              	.LVL65:
 715 0030 9180     		strh	r1, [r2, #4]	@ movhi
 716              	.LVL66:
 717 0032 D380     		strh	r3, [r2, #6]	@ movhi
 718              	.LVL67:
 719              		.loc 1 531 0
 720 0034 10BC     		pop	{r4}
 721 0036 7047     		bx	lr
 722              		.cfi_endproc
 723              	.LFE75:
 724              		.size	usb_lld_read_setup, .-usb_lld_read_setup
 725 0038 AFF30080 		.section	.text.usb_lld_read_packet_buffer,"ax",%progbits
 725      AFF30080 
 726              		.align	2
 727              		.p2align 4,,15
 728              		.global	usb_lld_read_packet_buffer
 729              		.thumb
 730              		.thumb_func
 731              		.type	usb_lld_read_packet_buffer, %function
 732              	usb_lld_read_packet_buffer:
ARM GAS  /tmp/cciaCXKt.s 			page 14


 733              	.LFB76:
 734              		.loc 1 551 0
 735              		.cfi_startproc
 736              		@ args = 0, pretend = 0, frame = 0
 737              		@ frame_needed = 0, uses_anonymous_args = 0
 738              		@ link register save eliminated.
 739              	.LVL68:
 740              		.loc 1 557 0
 741 0000 4FF4B840 		mov	r0, #23552
 742              	.LVL69:
 743 0004 C4F20000 		movt	r0, 16384
 744              		.loc 1 551 0
 745 0008 70B4     		push	{r4, r5, r6}
 746              	.LCFI6:
 747              		.cfi_def_cfa_offset 12
 748              		.cfi_offset 4, -12
 749              		.cfi_offset 5, -8
 750              		.cfi_offset 6, -4
 751              		.loc 1 557 0
 752 000a 046D     		ldr	r4, [r0, #80]
 753 000c 04F10050 		add	r0, r4, #536870912
 754 0010 00F54054 		add	r4, r0, #12288
 755 0014 04EBC101 		add	r1, r4, r1, lsl #3
 756              	.LVL70:
 757 0018 4800     		lsls	r0, r1, #1
 758              	.LVL71:
 759              		.loc 1 558 0
 760 001a 8468     		ldr	r4, [r0, #8]
 761              		.loc 1 559 0
 762 001c 8189     		ldrh	r1, [r0, #12]
 763              		.loc 1 558 0
 764 001e 04F10054 		add	r4, r4, #536870912
 765              		.loc 1 559 0
 766 0022 8805     		lsls	r0, r1, #22
 767              	.LVL72:
 768 0024 800D     		lsrs	r0, r0, #22
 769              		.loc 1 562 0
 770 0026 8342     		cmp	r3, r0
 771 0028 28BF     		it	cs
 772 002a 0346     		movcs	r3, r0
 773              	.LVL73:
 774              		.loc 1 558 0
 775 002c 04F54051 		add	r1, r4, #12288
 776              		.loc 1 562 0
 777 0030 0133     		adds	r3, r3, #1
 778              		.loc 1 558 0
 779 0032 4C00     		lsls	r4, r1, #1
 780              	.LVL74:
 781              		.loc 1 563 0
 782 0034 5908     		lsrs	r1, r3, #1
 783              	.LVL75:
 784 0036 1CD0     		beq	.L64
 785              		.loc 1 564 0
 786 0038 2568     		ldr	r5, [r4, #0]
 787 003a 0139     		subs	r1, r1, #1
 788              	.LVL76:
 789 003c 22F8025B 		strh	r5, [r2], #2	@ movhi
ARM GAS  /tmp/cciaCXKt.s 			page 15


 790              	.LVL77:
 791              		.loc 1 563 0
 792 0040 0B46     		mov	r3, r1
 793 0042 0232     		adds	r2, r2, #2
 794 0044 01F00101 		and	r1, r1, #1
 795              	.LVL78:
 796 0048 9BB1     		cbz	r3, .L64
 797 004a 31B1     		cbz	r1, .L55
 798              		.loc 1 564 0
 799 004c 54F8041F 		ldr	r1, [r4, #4]!
 800 0050 22F8021C 		strh	r1, [r2, #-2]	@ movhi
 801              	.LVL79:
 802 0054 0232     		adds	r2, r2, #2
 803              		.loc 1 563 0
 804 0056 013B     		subs	r3, r3, #1
 805 0058 0BD0     		beq	.L64
 806              	.L55:
 807 005a 251D     		adds	r5, r4, #4
 808              		.loc 1 564 0
 809 005c 6668     		ldr	r6, [r4, #4]
 810 005e A468     		ldr	r4, [r4, #8]
 811 0060 1146     		mov	r1, r2
 812 0062 22F8026C 		strh	r6, [r2, #-2]	@ movhi
 813 0066 21F8024B 		strh	r4, [r1], #2	@ movhi
 814 006a 8A1C     		adds	r2, r1, #2
 815 006c 2C1D     		adds	r4, r5, #4
 816              		.loc 1 563 0
 817 006e 023B     		subs	r3, r3, #2
 818 0070 F3D1     		bne	.L55
 819              	.L64:
 820              		.loc 1 569 0
 821 0072 70BC     		pop	{r4, r5, r6}
 822 0074 7047     		bx	lr
 823              		.cfi_endproc
 824              	.LFE76:
 825              		.size	usb_lld_read_packet_buffer, .-usb_lld_read_packet_buffer
 826 0076 00BFAFF3 		.section	.text.usb_lld_write_packet_buffer,"ax",%progbits
 826      0080AFF3 
 826      0080
 827              		.align	2
 828              		.p2align 4,,15
 829              		.global	usb_lld_write_packet_buffer
 830              		.thumb
 831              		.thumb_func
 832              		.type	usb_lld_write_packet_buffer, %function
 833              	usb_lld_write_packet_buffer:
 834              	.LFB77:
 835              		.loc 1 586 0
 836              		.cfi_startproc
 837              		@ args = 0, pretend = 0, frame = 0
 838              		@ frame_needed = 0, uses_anonymous_args = 0
 839              		@ link register save eliminated.
 840              	.LVL80:
 841              		.loc 1 591 0
 842 0000 4FF4B840 		mov	r0, #23552
 843              	.LVL81:
 844 0004 C4F20000 		movt	r0, 16384
ARM GAS  /tmp/cciaCXKt.s 			page 16


 845              		.loc 1 586 0
 846 0008 30B4     		push	{r4, r5}
 847              	.LCFI7:
 848              		.cfi_def_cfa_offset 8
 849              		.cfi_offset 4, -8
 850              		.cfi_offset 5, -4
 851              		.loc 1 591 0
 852 000a 046D     		ldr	r4, [r0, #80]
 853 000c 04F10055 		add	r5, r4, #536870912
 854 0010 05F54050 		add	r0, r5, #12288
 855 0014 00EBC101 		add	r1, r0, r1, lsl #3
 856              	.LVL82:
 857 0018 4800     		lsls	r0, r1, #1
 858              	.LVL83:
 859              		.loc 1 592 0
 860 001a 0468     		ldr	r4, [r0, #0]
 861              		.loc 1 593 0
 862 001c 9DB2     		uxth	r5, r3
 863              		.loc 1 592 0
 864 001e 04F10051 		add	r1, r4, #536870912
 865 0022 01F54054 		add	r4, r1, #12288
 866              		.loc 1 594 0
 867 0026 591C     		adds	r1, r3, #1
 868              		.loc 1 593 0
 869 0028 8580     		strh	r5, [r0, #4]	@ movhi
 870              		.loc 1 592 0
 871 002a 6300     		lsls	r3, r4, #1
 872              	.LVL84:
 873              		.loc 1 595 0
 874 002c 4808     		lsrs	r0, r1, #1
 875              	.LVL85:
 876 002e 1DD0     		beq	.L65
 877 0030 0138     		subs	r0, r0, #1
 878              	.LVL86:
 879              		.loc 1 596 0
 880 0032 32F8024B 		ldrh	r4, [r2], #2
 881              	.LVL87:
 882              		.loc 1 595 0
 883 0036 0146     		mov	r1, r0
 884              		.loc 1 596 0
 885 0038 43F8044B 		str	r4, [r3], #4
 886              	.LVL88:
 887 003c 00F00100 		and	r0, r0, #1
 888              	.LVL89:
 889 0040 0232     		adds	r2, r2, #2
 890              		.loc 1 595 0
 891 0042 99B1     		cbz	r1, .L65
 892 0044 30B1     		cbz	r0, .L67
 893              		.loc 1 596 0
 894 0046 32F8020C 		ldrh	r0, [r2, #-2]
 895 004a 0232     		adds	r2, r2, #2
 896              		.loc 1 595 0
 897 004c 0139     		subs	r1, r1, #1
 898              	.LVL90:
 899              		.loc 1 596 0
 900 004e 43F8040B 		str	r0, [r3], #4
 901              	.LVL91:
ARM GAS  /tmp/cciaCXKt.s 			page 17


 902              		.loc 1 595 0
 903 0052 0BD0     		beq	.L65
 904              	.L67:
 905              		.loc 1 596 0
 906 0054 32F8025C 		ldrh	r5, [r2, #-2]
 907 0058 1846     		mov	r0, r3
 908 005a 32F8024B 		ldrh	r4, [r2], #2
 909 005e 40F8045B 		str	r5, [r0], #4
 910 0062 0232     		adds	r2, r2, #2
 911 0064 5C60     		str	r4, [r3, #4]
 912 0066 031D     		adds	r3, r0, #4
 913              		.loc 1 595 0
 914 0068 0239     		subs	r1, r1, #2
 915 006a F3D1     		bne	.L67
 916              	.L65:
 917              		.loc 1 600 0
 918 006c 30BC     		pop	{r4, r5}
 919 006e 7047     		bx	lr
 920              		.cfi_endproc
 921              	.LFE77:
 922              		.size	usb_lld_write_packet_buffer, .-usb_lld_write_packet_buffer
 923              		.section	.text.Vector90,"ax",%progbits
 924              		.align	2
 925              		.p2align 4,,15
 926              		.global	Vector90
 927              		.thumb
 928              		.thumb_func
 929              		.type	Vector90, %function
 930              	Vector90:
 931              	.LFB65:
 932              		.loc 1 141 0
 933              		.cfi_startproc
 934              		@ args = 0, pretend = 0, frame = 0
 935              		@ frame_needed = 0, uses_anonymous_args = 0
 936              	.LVL92:
 937 0000 2DE9F84F 		push	{r3, r4, r5, r6, r7, r8, r9, sl, fp, lr}
 938              	.LCFI8:
 939              		.cfi_def_cfa_offset 40
 940              		.cfi_offset 3, -40
 941              		.cfi_offset 4, -36
 942              		.cfi_offset 5, -32
 943              		.cfi_offset 6, -28
 944              		.cfi_offset 7, -24
 945              		.cfi_offset 8, -20
 946              		.cfi_offset 9, -16
 947              		.cfi_offset 10, -12
 948              		.cfi_offset 11, -8
 949              		.cfi_offset 14, -4
 950              		.loc 1 146 0
 951 0004 FFF7FEFF 		bl	dbg_check_enter_isr
 952              	.LVL93:
 953              		.loc 1 148 0
 954 0008 4FF4B843 		mov	r3, #23552
 955 000c C4F20003 		movt	r3, 16384
 956 0010 5C6C     		ldr	r4, [r3, #68]
 957              	.LVL94:
 958              		.loc 1 151 0
ARM GAS  /tmp/cciaCXKt.s 			page 18


 959 0012 6205     		lsls	r2, r4, #21
 960 0014 00F10E81 		bmi	.L129
 961              	.L77:
 962              		.loc 1 158 0
 963 0018 2305     		lsls	r3, r4, #20
 964 001a 14D5     		bpl	.L79
 965              		.loc 1 160 0
 966 001c 8E48     		ldr	r0, .L133
 967              		.loc 1 159 0
 968 001e 4FF4B843 		mov	r3, #23552
 969 0022 C4F20003 		movt	r3, 16384
 970              		.loc 1 160 0
 971 0026 4268     		ldr	r2, [r0, #4]
 972              		.loc 1 159 0
 973 0028 196C     		ldr	r1, [r3, #64]
 974              		.loc 1 160 0
 975 002a 1268     		ldr	r2, [r2, #0]
 976              		.loc 1 159 0
 977 002c 41F00801 		orr	r1, r1, #8
 978 0030 1964     		str	r1, [r3, #64]
 979              		.loc 1 160 0
 980 0032 0AB1     		cbz	r2, .L80
 981              		.loc 1 160 0 is_stmt 0 discriminator 1
 982 0034 0321     		movs	r1, #3
 983 0036 9047     		blx	r2
 984              	.LVL95:
 985              	.L80:
 986              		.loc 1 164 0 is_stmt 1
 987 0038 4FF4B840 		mov	r0, #23552
 988 003c C4F20000 		movt	r0, 16384
 989 0040 6FF40063 		mvn	r3, #2048
 990 0044 4364     		str	r3, [r0, #68]
 991              	.L79:
 992              		.loc 1 168 0
 993 0046 E004     		lsls	r0, r4, #19
 994 0048 0ED5     		bpl	.L81
 995              	.LBB34:
 996              		.loc 1 169 0
 997 004a 4FF4B843 		mov	r3, #23552
 998 004e C4F20003 		movt	r3, 16384
 999 0052 9A6C     		ldr	r2, [r3, #72]
 1000              	.LVL96:
 1001              		.loc 1 170 0
 1002 0054 1104     		lsls	r1, r2, #16
 1003 0056 40F1E080 		bpl	.L130
 1004              	.LVL97:
 1005              	.L83:
 1006              		.loc 1 181 0
 1007 005a 4FF4B840 		mov	r0, #23552
 1008 005e C4F20000 		movt	r0, 16384
 1009 0062 6FF48053 		mvn	r3, #4096
 1010 0066 4364     		str	r3, [r0, #68]
 1011              	.L81:
 1012              	.LBE34:
 1013              		.loc 1 185 0
 1014 0068 A205     		lsls	r2, r4, #22
 1015 006a 0BD5     		bpl	.L85
ARM GAS  /tmp/cciaCXKt.s 			page 19


 1016              		.loc 1 186 0
 1017 006c 7A48     		ldr	r0, .L133
 1018 006e 4168     		ldr	r1, [r0, #4]
 1019 0070 CA68     		ldr	r2, [r1, #12]
 1020 0072 02B1     		cbz	r2, .L86
 1021              		.loc 1 186 0 is_stmt 0 discriminator 1
 1022 0074 9047     		blx	r2
 1023              	.LVL98:
 1024              	.L86:
 1025              		.loc 1 187 0 is_stmt 1
 1026 0076 4FF4B840 		mov	r0, #23552
 1027 007a C4F20000 		movt	r0, 16384
 1028 007e 6FF40073 		mvn	r3, #512
 1029 0082 4364     		str	r3, [r0, #68]
 1030              	.L85:
 1031              		.loc 1 191 0 discriminator 1
 1032 0084 2304     		lsls	r3, r4, #16
 1033 0086 40F19F80 		bpl	.L96
 1034 008a DFF8CC81 		ldr	r8, .L133
 1035              	.LBB35:
 1036              		.loc 1 193 0
 1037 008e 4FF4B845 		mov	r5, #23552
 1038 0092 C4F20005 		movt	r5, 16384
 1039              		.loc 1 194 0
 1040 0096 C146     		mov	r9, r8
 1041              		.loc 1 220 0
 1042 0098 4FF0010A 		mov	sl, #1
 1043 009c 11E0     		b	.L95
 1044              	.LVL99:
 1045              	.L132:
 1046              		.loc 1 234 0
 1047 009e 0AFA04F1 		lsl	r1, sl, r4
 1048 00a2 B8F80E00 		ldrh	r0, [r8, #14]
 1049 00a6 58F82B30 		ldr	r3, [r8, fp, lsl #2]
 1050 00aa 20EA0100 		bic	r0, r0, r1
 1051 00ae A8F80E00 		strh	r0, [r8, #14]	@ movhi
 1052 00b2 DA68     		ldr	r2, [r3, #12]
 1053 00b4 6848     		ldr	r0, .L133
 1054 00b6 2146     		mov	r1, r4
 1055 00b8 9047     		blx	r2
 1056              	.LVL100:
 1057              	.L91:
 1058              		.loc 1 256 0
 1059 00ba 6C6C     		ldr	r4, [r5, #68]
 1060              	.LVL101:
 1061              	.LBE35:
 1062              		.loc 1 191 0
 1063 00bc 2104     		lsls	r1, r4, #16
 1064 00be 40F18380 		bpl	.L96
 1065              	.LVL102:
 1066              	.L95:
 1067              	.LBB48:
 1068              		.loc 1 193 0
 1069 00c2 04F00F04 		and	r4, r4, #15
 1070              	.LVL103:
 1071 00c6 55F82460 		ldr	r6, [r5, r4, lsl #2]
 1072              	.LVL104:
ARM GAS  /tmp/cciaCXKt.s 			page 20


 1073              		.loc 1 194 0
 1074 00ca 04F1040B 		add	fp, r4, #4
 1075              		.loc 1 196 0
 1076 00ce 3006     		lsls	r0, r6, #24
 1077              		.loc 1 194 0
 1078 00d0 58F82B70 		ldr	r7, [r8, fp, lsl #2]
 1079              	.LVL105:
 1080              		.loc 1 196 0
 1081 00d4 36D5     		bpl	.L88
 1082              		.loc 1 198 0
 1083 00d6 55F82410 		ldr	r1, [r5, r4, lsl #2]
 1084 00da 21F4F142 		bic	r2, r1, #30848
 1085 00de 22F07000 		bic	r0, r2, #112
 1086 00e2 45F82400 		str	r0, [r5, r4, lsl #2]
 1087              		.loc 1 199 0
 1088 00e6 3B68     		ldr	r3, [r7, #0]
 1089 00e8 D906     		lsls	r1, r3, #27
 1090 00ea 73D4     		bmi	.L90
 1091              		.loc 1 205 0
 1092 00ec 2A6D     		ldr	r2, [r5, #80]
 1093              		.loc 1 206 0
 1094 00ee 7969     		ldr	r1, [r7, #20]
 1095              		.loc 1 205 0
 1096 00f0 02F10050 		add	r0, r2, #536870912
 1097 00f4 00F54053 		add	r3, r0, #12288
 1098 00f8 03EBC402 		add	r2, r3, r4, lsl #3
 1099 00fc 5000     		lsls	r0, r2, #1
 1100 00fe B0F804E0 		ldrh	lr, [r0, #4]
 1101              		.loc 1 206 0
 1102 0102 0A68     		ldr	r2, [r1, #0]
 1103              		.loc 1 207 0
 1104 0104 8868     		ldr	r0, [r1, #8]
 1105              		.loc 1 208 0
 1106 0106 4B68     		ldr	r3, [r1, #4]
 1107              		.loc 1 205 0
 1108 0108 1FFA8EFC 		uxth	ip, lr
 1109              	.LVL106:
 1110              		.loc 1 206 0
 1111 010c 6244     		add	r2, r2, ip
 1112              		.loc 1 207 0
 1113 010e 6044     		add	r0, r0, ip
 1114              		.loc 1 208 0
 1115 0110 CCEB0303 		rsb	r3, ip, r3
 1116              		.loc 1 206 0
 1117 0114 0A60     		str	r2, [r1, #0]
 1118              		.loc 1 207 0
 1119 0116 8860     		str	r0, [r1, #8]
 1120              		.loc 1 208 0
 1121 0118 4B60     		str	r3, [r1, #4]
 1122              		.loc 1 209 0
 1123 011a 002B     		cmp	r3, #0
 1124 011c 5AD0     		beq	.L90
 1125              		.loc 1 211 0
 1126 011e B7F810E0 		ldrh	lr, [r7, #16]
 1127              	.LVL107:
 1128              		.loc 1 215 0
 1129 0122 4D48     		ldr	r0, .L133
ARM GAS  /tmp/cciaCXKt.s 			page 21


 1130 0124 2146     		mov	r1, r4
 1131 0126 7345     		cmp	r3, lr
 1132 0128 28BF     		it	cs
 1133 012a 7346     		movcs	r3, lr
 1134              	.LVL108:
 1135 012c FFF7FEFF 		bl	usb_lld_write_packet_buffer
 1136              	.LVL109:
 1137              	.LBB36:
 1138              	.LBB37:
 1139              		.loc 1 675 0
 1140 0130 55F82410 		ldr	r1, [r5, r4, lsl #2]
 1141 0134 21F4F042 		bic	r2, r1, #30720
 1142 0138 22F04003 		bic	r3, r2, #64
 1143 013c 83F03000 		eor	r0, r3, #48
 1144 0140 45F82400 		str	r0, [r5, r4, lsl #2]
 1145              	.LVL110:
 1146              	.L88:
 1147              	.LBE37:
 1148              	.LBE36:
 1149              		.loc 1 224 0
 1150 0144 3204     		lsls	r2, r6, #16
 1151 0146 B8D5     		bpl	.L91
 1152              		.loc 1 225 0
 1153 0148 55F82400 		ldr	r0, [r5, r4, lsl #2]
 1154              		.loc 1 227 0
 1155 014c 3305     		lsls	r3, r6, #20
 1156              		.loc 1 225 0
 1157 014e 20F47841 		bic	r1, r0, #63488
 1158 0152 21F07002 		bic	r2, r1, #112
 1159 0156 45F82420 		str	r2, [r5, r4, lsl #2]
 1160              		.loc 1 227 0
 1161 015a 48D4     		bmi	.L131
 1162              		.loc 1 232 0
 1163 015c 3B68     		ldr	r3, [r7, #0]
 1164 015e D806     		lsls	r0, r3, #27
 1165 0160 9DD4     		bmi	.L132
 1166              		.loc 1 239 0
 1167 0162 BB69     		ldr	r3, [r7, #24]
 1168              		.loc 1 238 0
 1169 0164 E6B2     		uxtb	r6, r4
 1170              	.LVL111:
 1171 0166 5A68     		ldr	r2, [r3, #4]
 1172 0168 3146     		mov	r1, r6
 1173 016a 9B68     		ldr	r3, [r3, #8]
 1174 016c 3A48     		ldr	r0, .L133
 1175 016e FFF7FEFF 		bl	usb_lld_read_packet_buffer
 1176              	.LVL112:
 1177              	.LBB38:
 1178              	.LBB39:
 1179              		.loc 1 660 0
 1180 0172 55F82410 		ldr	r1, [r5, r4, lsl #2]
 1181              	.LBE39:
 1182              	.LBE38:
 1183              		.loc 1 242 0
 1184 0176 BB69     		ldr	r3, [r7, #24]
 1185              	.LBB44:
 1186              	.LBB40:
ARM GAS  /tmp/cciaCXKt.s 			page 22


 1187              		.loc 1 660 0
 1188 0178 21F4904E 		bic	lr, r1, #18432
 1189              	.LBE40:
 1190              	.LBE44:
 1191              		.loc 1 245 0
 1192 017c B3F800C0 		ldrh	ip, [r3, #0]
 1193              	.LBB45:
 1194              	.LBB41:
 1195              		.loc 1 660 0
 1196 0180 2EF07002 		bic	r2, lr, #112
 1197              	.LBE41:
 1198              	.LBE45:
 1199              		.loc 1 242 0
 1200 0184 5F68     		ldr	r7, [r3, #4]
 1201              	.LVL113:
 1202              		.loc 1 243 0
 1203 0186 D968     		ldr	r1, [r3, #12]
 1204              	.LBB46:
 1205              	.LBB42:
 1206              		.loc 1 660 0
 1207 0188 82F4405E 		eor	lr, r2, #12288
 1208              	.LBE42:
 1209              	.LBE46:
 1210              		.loc 1 244 0
 1211 018c 9A68     		ldr	r2, [r3, #8]
 1212              		.loc 1 245 0
 1213 018e 0CF1FF3C 		add	ip, ip, #-1
 1214              		.loc 1 242 0
 1215 0192 3F18     		adds	r7, r7, r0
 1216              		.loc 1 243 0
 1217 0194 0918     		adds	r1, r1, r0
 1218              		.loc 1 244 0
 1219 0196 101A     		subs	r0, r2, r0
 1220              	.LVL114:
 1221              		.loc 1 245 0
 1222 0198 1FFA8CF2 		uxth	r2, ip
 1223              		.loc 1 244 0
 1224 019c 9860     		str	r0, [r3, #8]
 1225              	.LBB47:
 1226              	.LBB43:
 1227              		.loc 1 660 0
 1228 019e 45F824E0 		str	lr, [r5, r4, lsl #2]
 1229              	.LBE43:
 1230              	.LBE47:
 1231              		.loc 1 242 0
 1232 01a2 5F60     		str	r7, [r3, #4]
 1233              		.loc 1 243 0
 1234 01a4 D960     		str	r1, [r3, #12]
 1235              		.loc 1 245 0
 1236 01a6 1A80     		strh	r2, [r3, #0]	@ movhi
 1237              		.loc 1 246 0
 1238 01a8 002A     		cmp	r2, #0
 1239 01aa 27D0     		beq	.L94
 1240              		.loc 1 248 0
 1241 01ac 55F82410 		ldr	r1, [r5, r4, lsl #2]
 1242 01b0 21F49043 		bic	r3, r1, #18432
 1243 01b4 23F07000 		bic	r0, r3, #112
ARM GAS  /tmp/cciaCXKt.s 			page 23


 1244 01b8 80F44052 		eor	r2, r0, #12288
 1245 01bc 45F82420 		str	r2, [r5, r4, lsl #2]
 1246              		.loc 1 256 0
 1247 01c0 6C6C     		ldr	r4, [r5, #68]
 1248              	.LVL115:
 1249              	.LBE48:
 1250              		.loc 1 191 0
 1251 01c2 2104     		lsls	r1, r4, #16
 1252 01c4 3FF57DAF 		bmi	.L95
 1253              	.LVL116:
 1254              	.L96:
 1255              		.loc 1 259 0
 1256 01c8 FFF7FEFF 		bl	dbg_check_leave_isr
 1257              	.LVL117:
 1258              		.loc 1 260 0
 1259 01cc BDE8F84F 		pop	{r3, r4, r5, r6, r7, r8, r9, sl, fp, lr}
 1260              		.loc 1 259 0
 1261 01d0 FFF7FEBF 		b	_port_irq_epilogue
 1262              	.LVL118:
 1263              	.L90:
 1264              	.LBB49:
 1265              		.loc 1 220 0
 1266 01d4 0AFA04F1 		lsl	r1, sl, r4
 1267 01d8 B9F80C20 		ldrh	r2, [r9, #12]
 1268 01dc BB68     		ldr	r3, [r7, #8]
 1269 01de 22EA0102 		bic	r2, r2, r1
 1270 01e2 A9F80C20 		strh	r2, [r9, #12]	@ movhi
 1271 01e6 1C48     		ldr	r0, .L133
 1272 01e8 2146     		mov	r1, r4
 1273 01ea 9847     		blx	r3
 1274              	.LVL119:
 1275 01ec AAE7     		b	.L88
 1276              	.L131:
 1277              		.loc 1 230 0
 1278 01ee 58F82B10 		ldr	r1, [r8, fp, lsl #2]
 1279 01f2 1948     		ldr	r0, .L133
 1280 01f4 4B68     		ldr	r3, [r1, #4]
 1281 01f6 2146     		mov	r1, r4
 1282 01f8 9847     		blx	r3
 1283              	.LVL120:
 1284 01fa 5EE7     		b	.L91
 1285              	.LVL121:
 1286              	.L94:
 1287              		.loc 1 252 0
 1288 01fc 0AFA04F4 		lsl	r4, sl, r4
 1289              	.LVL122:
 1290 0200 B9F80E10 		ldrh	r1, [r9, #14]
 1291 0204 59F82B30 		ldr	r3, [r9, fp, lsl #2]
 1292 0208 21EA0400 		bic	r0, r1, r4
 1293 020c A9F80E00 		strh	r0, [r9, #14]	@ movhi
 1294 0210 DA68     		ldr	r2, [r3, #12]
 1295 0212 1148     		ldr	r0, .L133
 1296 0214 3146     		mov	r1, r6
 1297 0216 9047     		blx	r2
 1298              	.LVL123:
 1299 0218 4FE7     		b	.L91
 1300              	.LVL124:
ARM GAS  /tmp/cciaCXKt.s 			page 24


 1301              	.L130:
 1302              	.LBE49:
 1303              	.LBB50:
 1304              		.loc 1 172 0
 1305 021a 0F48     		ldr	r0, .L133
 1306              		.loc 1 171 0
 1307 021c 196C     		ldr	r1, [r3, #64]
 1308              		.loc 1 172 0
 1309 021e 4268     		ldr	r2, [r0, #4]
 1310              	.LVL125:
 1311              		.loc 1 171 0
 1312 0220 21F00801 		bic	r1, r1, #8
 1313              		.loc 1 172 0
 1314 0224 1268     		ldr	r2, [r2, #0]
 1315              		.loc 1 171 0
 1316 0226 1964     		str	r1, [r3, #64]
 1317              		.loc 1 172 0
 1318 0228 002A     		cmp	r2, #0
 1319 022a 3FF416AF 		beq	.L83
 1320              		.loc 1 172 0 is_stmt 0 discriminator 1
 1321 022e 0421     		movs	r1, #4
 1322 0230 9047     		blx	r2
 1323              	.LVL126:
 1324 0232 12E7     		b	.L83
 1325              	.L129:
 1326              	.LBE50:
 1327              		.loc 1 144 0 is_stmt 1
 1328 0234 084D     		ldr	r5, .L133
 1329              		.loc 1 152 0
 1330 0236 2846     		mov	r0, r5
 1331 0238 FFF7FEFF 		bl	_usb_reset
 1332              	.LVL127:
 1333              		.loc 1 153 0
 1334 023c 6868     		ldr	r0, [r5, #4]
 1335 023e 0268     		ldr	r2, [r0, #0]
 1336 0240 12B1     		cbz	r2, .L78
 1337              		.loc 1 153 0 is_stmt 0 discriminator 1
 1338 0242 2846     		mov	r0, r5
 1339 0244 0021     		movs	r1, #0
 1340 0246 9047     		blx	r2
 1341              	.LVL128:
 1342              	.L78:
 1343              		.loc 1 154 0 is_stmt 1
 1344 0248 4FF4B841 		mov	r1, #23552
 1345 024c C4F20001 		movt	r1, 16384
 1346 0250 6FF48063 		mvn	r3, #1024
 1347 0254 4B64     		str	r3, [r1, #68]
 1348 0256 DFE6     		b	.L77
 1349              	.L134:
 1350              		.align	2
 1351              	.L133:
 1352 0258 00000000 		.word	.LANCHOR0
 1353              		.cfi_endproc
 1354              	.LFE65:
 1355              		.size	Vector90, .-Vector90
 1356 025c AFF30080 		.section	.text.usb_lld_prepare_receive,"ax",%progbits
 1357              		.align	2
ARM GAS  /tmp/cciaCXKt.s 			page 25


 1358              		.p2align 4,,15
 1359              		.global	usb_lld_prepare_receive
 1360              		.thumb
 1361              		.thumb_func
 1362              		.type	usb_lld_prepare_receive, %function
 1363              	usb_lld_prepare_receive:
 1364              	.LFB78:
 1365              		.loc 1 613 0
 1366              		.cfi_startproc
 1367              		@ args = 0, pretend = 0, frame = 0
 1368              		@ frame_needed = 0, uses_anonymous_args = 0
 1369              		@ link register save eliminated.
 1370              	.LVL129:
 1371              		.loc 1 614 0
 1372 0000 0431     		adds	r1, r1, #4
 1373              	.LVL130:
 1374 0002 50F82100 		ldr	r0, [r0, r1, lsl #2]
 1375              	.LVL131:
 1376 0006 8169     		ldr	r1, [r0, #24]
 1377              	.LVL132:
 1378              		.loc 1 616 0
 1379 0008 4A60     		str	r2, [r1, #4]
 1380              		.loc 1 618 0
 1381 000a 0022     		movs	r2, #0
 1382              	.LVL133:
 1383              		.loc 1 617 0
 1384 000c 8B60     		str	r3, [r1, #8]
 1385              		.loc 1 618 0
 1386 000e CA60     		str	r2, [r1, #12]
 1387              		.loc 1 619 0
 1388 0010 33B1     		cbz	r3, .L138
 1389              		.loc 1 622 0
 1390 0012 428A     		ldrh	r2, [r0, #18]
 1391 0014 501E     		subs	r0, r2, #1
 1392 0016 C318     		adds	r3, r0, r3
 1393              	.LVL134:
 1394 0018 B3FBF2F2 		udiv	r2, r3, r2
 1395 001c 0A80     		strh	r2, [r1, #0]	@ movhi
 1396 001e 7047     		bx	lr
 1397              	.LVL135:
 1398              	.L138:
 1399              		.loc 1 620 0
 1400 0020 0120     		movs	r0, #1
 1401 0022 0880     		strh	r0, [r1, #0]	@ movhi
 1402 0024 7047     		bx	lr
 1403              		.cfi_endproc
 1404              	.LFE78:
 1405              		.size	usb_lld_prepare_receive, .-usb_lld_prepare_receive
 1406 0026 00BFAFF3 		.section	.text.usb_lld_prepare_transmit,"ax",%progbits
 1406      0080AFF3 
 1406      0080
 1407              		.align	2
 1408              		.p2align 4,,15
 1409              		.global	usb_lld_prepare_transmit
 1410              		.thumb
 1411              		.thumb_func
 1412              		.type	usb_lld_prepare_transmit, %function
ARM GAS  /tmp/cciaCXKt.s 			page 26


 1413              	usb_lld_prepare_transmit:
 1414              	.LFB79:
 1415              		.loc 1 637 0
 1416              		.cfi_startproc
 1417              		@ args = 0, pretend = 0, frame = 0
 1418              		@ frame_needed = 0, uses_anonymous_args = 0
 1419              		@ link register save eliminated.
 1420              	.LVL136:
 1421 0000 70B4     		push	{r4, r5, r6}
 1422              	.LCFI9:
 1423              		.cfi_def_cfa_offset 12
 1424              		.cfi_offset 4, -12
 1425              		.cfi_offset 5, -8
 1426              		.cfi_offset 6, -4
 1427              		.loc 1 638 0
 1428 0002 0C1D     		adds	r4, r1, #4
 1429 0004 50F82450 		ldr	r5, [r0, r4, lsl #2]
 1430              		.loc 1 642 0
 1431 0008 0026     		movs	r6, #0
 1432              		.loc 1 638 0
 1433 000a 6C69     		ldr	r4, [r5, #20]
 1434              	.LVL137:
 1435              		.loc 1 643 0
 1436 000c 2D8A     		ldrh	r5, [r5, #16]
 1437              	.LVL138:
 1438              		.loc 1 641 0
 1439 000e 84E80C00 		stmia	r4, {r2, r3}
 1440              		.loc 1 645 0
 1441 0012 AB42     		cmp	r3, r5
 1442 0014 28BF     		it	cs
 1443 0016 2B46     		movcs	r3, r5
 1444              	.LVL139:
 1445              		.loc 1 642 0
 1446 0018 A660     		str	r6, [r4, #8]
 1447              		.loc 1 646 0
 1448 001a 70BC     		pop	{r4, r5, r6}
 1449              		.loc 1 645 0
 1450 001c FFF7FEBF 		b	usb_lld_write_packet_buffer
 1451              	.LVL140:
 1452              		.cfi_endproc
 1453              	.LFE79:
 1454              		.size	usb_lld_prepare_transmit, .-usb_lld_prepare_transmit
 1455              		.section	.text.usb_lld_start_out,"ax",%progbits
 1456              		.align	2
 1457              		.p2align 4,,15
 1458              		.global	usb_lld_start_out
 1459              		.thumb
 1460              		.thumb_func
 1461              		.type	usb_lld_start_out, %function
 1462              	usb_lld_start_out:
 1463              	.LFB80:
 1464              		.loc 1 656 0
 1465              		.cfi_startproc
 1466              		@ args = 0, pretend = 0, frame = 0
 1467              		@ frame_needed = 0, uses_anonymous_args = 0
 1468              		@ link register save eliminated.
 1469              	.LVL141:
ARM GAS  /tmp/cciaCXKt.s 			page 27


 1470              		.loc 1 660 0
 1471 0000 4FF4B843 		mov	r3, #23552
 1472 0004 C4F20003 		movt	r3, 16384
 1473 0008 53F82120 		ldr	r2, [r3, r1, lsl #2]
 1474 000c 22F49040 		bic	r0, r2, #18432
 1475              	.LVL142:
 1476 0010 20F07002 		bic	r2, r0, #112
 1477 0014 82F44050 		eor	r0, r2, #12288
 1478 0018 43F82100 		str	r0, [r3, r1, lsl #2]
 1479 001c 7047     		bx	lr
 1480              		.cfi_endproc
 1481              	.LFE80:
 1482              		.size	usb_lld_start_out, .-usb_lld_start_out
 1483 001e 00BF     		.section	.text.usb_lld_start_in,"ax",%progbits
 1484              		.align	2
 1485              		.p2align 4,,15
 1486              		.global	usb_lld_start_in
 1487              		.thumb
 1488              		.thumb_func
 1489              		.type	usb_lld_start_in, %function
 1490              	usb_lld_start_in:
 1491              	.LFB81:
 1492              		.loc 1 671 0
 1493              		.cfi_startproc
 1494              		@ args = 0, pretend = 0, frame = 0
 1495              		@ frame_needed = 0, uses_anonymous_args = 0
 1496              		@ link register save eliminated.
 1497              	.LVL143:
 1498              		.loc 1 675 0
 1499 0000 4FF4B843 		mov	r3, #23552
 1500 0004 C4F20003 		movt	r3, 16384
 1501 0008 53F82120 		ldr	r2, [r3, r1, lsl #2]
 1502 000c 22F4F040 		bic	r0, r2, #30720
 1503              	.LVL144:
 1504 0010 20F04002 		bic	r2, r0, #64
 1505 0014 82F03000 		eor	r0, r2, #48
 1506 0018 43F82100 		str	r0, [r3, r1, lsl #2]
 1507 001c 7047     		bx	lr
 1508              		.cfi_endproc
 1509              	.LFE81:
 1510              		.size	usb_lld_start_in, .-usb_lld_start_in
 1511 001e 00BF     		.section	.text.usb_lld_stall_out,"ax",%progbits
 1512              		.align	2
 1513              		.p2align 4,,15
 1514              		.global	usb_lld_stall_out
 1515              		.thumb
 1516              		.thumb_func
 1517              		.type	usb_lld_stall_out, %function
 1518              	usb_lld_stall_out:
 1519              	.LFB82:
 1520              		.loc 1 686 0
 1521              		.cfi_startproc
 1522              		@ args = 0, pretend = 0, frame = 0
 1523              		@ frame_needed = 0, uses_anonymous_args = 0
 1524              		@ link register save eliminated.
 1525              	.LVL145:
 1526              		.loc 1 690 0
ARM GAS  /tmp/cciaCXKt.s 			page 28


 1527 0000 4FF4B843 		mov	r3, #23552
 1528 0004 C4F20003 		movt	r3, 16384
 1529 0008 53F82120 		ldr	r2, [r3, r1, lsl #2]
 1530 000c 22F49040 		bic	r0, r2, #18432
 1531              	.LVL146:
 1532 0010 20F07002 		bic	r2, r0, #112
 1533 0014 82F48050 		eor	r0, r2, #4096
 1534 0018 43F82100 		str	r0, [r3, r1, lsl #2]
 1535 001c 7047     		bx	lr
 1536              		.cfi_endproc
 1537              	.LFE82:
 1538              		.size	usb_lld_stall_out, .-usb_lld_stall_out
 1539 001e 00BF     		.section	.text.usb_lld_stall_in,"ax",%progbits
 1540              		.align	2
 1541              		.p2align 4,,15
 1542              		.global	usb_lld_stall_in
 1543              		.thumb
 1544              		.thumb_func
 1545              		.type	usb_lld_stall_in, %function
 1546              	usb_lld_stall_in:
 1547              	.LFB83:
 1548              		.loc 1 701 0
 1549              		.cfi_startproc
 1550              		@ args = 0, pretend = 0, frame = 0
 1551              		@ frame_needed = 0, uses_anonymous_args = 0
 1552              		@ link register save eliminated.
 1553              	.LVL147:
 1554              		.loc 1 705 0
 1555 0000 4FF4B843 		mov	r3, #23552
 1556 0004 C4F20003 		movt	r3, 16384
 1557 0008 53F82120 		ldr	r2, [r3, r1, lsl #2]
 1558 000c 22F4F040 		bic	r0, r2, #30720
 1559              	.LVL148:
 1560 0010 20F04002 		bic	r2, r0, #64
 1561 0014 82F01000 		eor	r0, r2, #16
 1562 0018 43F82100 		str	r0, [r3, r1, lsl #2]
 1563 001c 7047     		bx	lr
 1564              		.cfi_endproc
 1565              	.LFE83:
 1566              		.size	usb_lld_stall_in, .-usb_lld_stall_in
 1567 001e 00BF     		.section	.text.usb_lld_clear_out,"ax",%progbits
 1568              		.align	2
 1569              		.p2align 4,,15
 1570              		.global	usb_lld_clear_out
 1571              		.thumb
 1572              		.thumb_func
 1573              		.type	usb_lld_clear_out, %function
 1574              	usb_lld_clear_out:
 1575              	.LFB84:
 1576              		.loc 1 716 0
 1577              		.cfi_startproc
 1578              		@ args = 0, pretend = 0, frame = 0
 1579              		@ frame_needed = 0, uses_anonymous_args = 0
 1580              		@ link register save eliminated.
 1581              	.LVL149:
 1582              		.loc 1 722 0
 1583 0000 4FF4B843 		mov	r3, #23552
ARM GAS  /tmp/cciaCXKt.s 			page 29


 1584 0004 C4F20003 		movt	r3, 16384
 1585 0008 53F82120 		ldr	r2, [r3, r1, lsl #2]
 1586 000c 02F44050 		and	r0, r2, #12288
 1587              	.LVL150:
 1588 0010 B0F5405F 		cmp	r0, #12288
 1589 0014 09D0     		beq	.L144
 1590              		.loc 1 723 0
 1591 0016 53F82120 		ldr	r2, [r3, r1, lsl #2]
 1592 001a 22F4F040 		bic	r0, r2, #30720
 1593 001e 20F04002 		bic	r2, r0, #64
 1594 0022 82F40050 		eor	r0, r2, #8192
 1595 0026 43F82100 		str	r0, [r3, r1, lsl #2]
 1596              	.L144:
 1597 002a 7047     		bx	lr
 1598              		.cfi_endproc
 1599              	.LFE84:
 1600              		.size	usb_lld_clear_out, .-usb_lld_clear_out
 1601 002c AFF30080 		.section	.text.usb_lld_clear_in,"ax",%progbits
 1602              		.align	2
 1603              		.p2align 4,,15
 1604              		.global	usb_lld_clear_in
 1605              		.thumb
 1606              		.thumb_func
 1607              		.type	usb_lld_clear_in, %function
 1608              	usb_lld_clear_in:
 1609              	.LFB85:
 1610              		.loc 1 734 0
 1611              		.cfi_startproc
 1612              		@ args = 0, pretend = 0, frame = 0
 1613              		@ frame_needed = 0, uses_anonymous_args = 0
 1614              		@ link register save eliminated.
 1615              	.LVL151:
 1616              		.loc 1 740 0
 1617 0000 4FF4B843 		mov	r3, #23552
 1618 0004 C4F20003 		movt	r3, 16384
 1619 0008 53F82120 		ldr	r2, [r3, r1, lsl #2]
 1620 000c 02F03000 		and	r0, r2, #48
 1621              	.LVL152:
 1622 0010 3028     		cmp	r0, #48
 1623 0012 09D0     		beq	.L149
 1624              		.loc 1 741 0
 1625 0014 53F82120 		ldr	r2, [r3, r1, lsl #2]
 1626 0018 22F4F040 		bic	r0, r2, #30720
 1627 001c 20F04002 		bic	r2, r0, #64
 1628 0020 82F02000 		eor	r0, r2, #32
 1629 0024 43F82100 		str	r0, [r3, r1, lsl #2]
 1630              	.L149:
 1631 0028 7047     		bx	lr
 1632              		.cfi_endproc
 1633              	.LFE85:
 1634              		.size	usb_lld_clear_in, .-usb_lld_clear_in
 1635              		.global	USBD1
 1636 002a 00BFAFF3 		.section	.bss.USBD1,"aw",%nobits
 1636      0080
 1637              		.align	2
 1638              		.set	.LANCHOR0,. + 0
 1639              		.type	USBD1, %object
ARM GAS  /tmp/cciaCXKt.s 			page 30


 1640              		.size	USBD1, 80
 1641              	USBD1:
 1642 0000 00000000 		.space	80
 1642      00000000 
 1642      00000000 
 1642      00000000 
 1642      00000000 
 1643              		.section	.rodata.CSWTCH.16,"a",%progbits
 1644              		.align	2
 1645              		.set	.LANCHOR3,. + 0
 1646              		.type	CSWTCH.16, %object
 1647              		.size	CSWTCH.16, 17
 1648              	CSWTCH.16:
 1649 0000 00       		.byte	0
 1650 0001 02       		.byte	2
 1651 0002 02       		.byte	2
 1652 0003 02       		.byte	2
 1653 0004 02       		.byte	2
 1654 0005 02       		.byte	2
 1655 0006 02       		.byte	2
 1656 0007 02       		.byte	2
 1657 0008 02       		.byte	2
 1658 0009 02       		.byte	2
 1659 000a 02       		.byte	2
 1660 000b 02       		.byte	2
 1661 000c 02       		.byte	2
 1662 000d 02       		.byte	2
 1663 000e 02       		.byte	2
 1664 000f 02       		.byte	2
 1665 0010 01       		.byte	1
 1666 0011 000000   		.section	.rodata.CSWTCH.10,"a",%progbits
 1667              		.align	2
 1668              		.set	.LANCHOR1,. + 0
 1669              		.type	CSWTCH.10, %object
 1670              		.size	CSWTCH.10, 6
 1671              	CSWTCH.10:
 1672 0000 0004     		.short	1024
 1673 0002 0000     		.short	0
 1674 0004 0006     		.short	1536
 1675 0006 0000     		.section	.rodata.str1.4,"aMS",%progbits,1
 1676              		.align	2
 1677              	.LC0:
 1678 0000 706D5F61 		.ascii	"pm_alloc(), #1\000"
 1678      6C6C6F63 
 1678      28292C20 
 1678      233100
 1679 000f 00       		.section	.rodata.ep0config,"a",%progbits
 1680              		.align	2
 1681              		.set	.LANCHOR2,. + 0
 1682              		.type	ep0config, %object
 1683              		.size	ep0config, 28
 1684              	ep0config:
 1685 0000 00000000 		.word	0
 1686 0004 00000000 		.word	_usb_ep0setup
 1687 0008 00000000 		.word	_usb_ep0in
 1688 000c 00000000 		.word	_usb_ep0out
 1689 0010 4000     		.short	64
ARM GAS  /tmp/cciaCXKt.s 			page 31


 1690 0012 4000     		.short	64
 1691 0014 00000000 		.word	ep0_state
 1692 0018 00000000 		.word	ep0_state
 1693              		.section	.bss.ep0_state,"aw",%nobits
 1694              		.align	2
 1695              		.type	ep0_state, %object
 1696              		.size	ep0_state, 16
 1697              	ep0_state:
 1698 0000 00000000 		.space	16
 1698      00000000 
 1698      00000000 
 1698      00000000 
 1699              		.text
 1700              	.Letext0:
 1701              		.file 2 "/home/formica/toolchains/gcc-arm-none-eabi-4_7-2012q4/bin/../lib/gcc/arm-none-eabi/4.7.3/
 1702              		.file 3 "/home/formica/toolchains/gcc-arm-none-eabi-4_7-2012q4/bin/../lib/gcc/arm-none-eabi/4.7.3/
 1703              		.file 4 "/home/formica/chibios/chibios/os/ports/GCC/ARMCMx/chtypes.h"
 1704              		.file 5 "/home/formica/chibios/chibios/os/hal/platforms/STM32F1xx/stm32f10x.h"
 1705              		.file 6 "/home/formica/chibios/chibios/os/hal/include/usb.h"
 1706              		.file 7 "/home/formica/chibios/chibios/os/hal/platforms/STM32/USBv1/usb_lld.h"
 1707              		.file 8 "/home/formica/chibios/chibios/os/hal/platforms/STM32/USBv1/stm32_usb.h"
 1708              		.file 9 "/home/formica/chibios/chibios/os/ports/common/ARMCMx/CMSIS/include/core_cm3.h"
 1709              		.file 10 "/home/formica/chibios/chibios/os/kernel/include/chdebug.h"
 1710              		.file 11 "/home/formica/chibios/chibios/os/ports/GCC/ARMCMx/chcore_v7m.h"
 1711              		.file 12 "/home/formica/chibios/chibios/os/ports/common/ARMCMx/nvic.h"